 Editor

 Timestamp is 5a012389 (Mon Nov  6 22:07:53 2017)

 Preferred load address is 00400000

 Start         Length     Name                   Class
 0001:00000000 00022689H .textbss                DATA
 0002:00000000 000065d0H .text$di                CODE
 0002:000065d0 00043180H .text$mn                CODE
 0002:00049750 00004590H .text$x                 CODE
 0002:0004dce0 00001106H .text$yd                CODE
 0003:00000000 00000104H .CRT$XCA                DATA
 0003:00000104 00000104H .CRT$XCAA               DATA
 0003:00000208 00000104H .CRT$XCL                DATA
 0003:0000030c 0000012cH .CRT$XCU                DATA
 0003:00000438 00000104H .CRT$XCZ                DATA
 0003:0000053c 00000104H .CRT$XIA                DATA
 0003:00000640 00000104H .CRT$XIAA               DATA
 0003:00000744 00000104H .CRT$XIAC               DATA
 0003:00000848 00000104H .CRT$XIZ                DATA
 0003:0000094c 00000104H .CRT$XPA                DATA
 0003:00000a50 00000104H .CRT$XPZ                DATA
 0003:00000b54 00000104H .CRT$XTA                DATA
 0003:00000c58 00000108H .CRT$XTZ                DATA
 0003:00000d60 00006354H .rdata                  DATA
 0003:000070b4 0000077cH .rdata$r                DATA
 0003:00007830 000001a0H .rdata$zzzdbg           DATA
 0003:000079d0 00000104H .rtc$IAA                DATA
 0003:00007ad4 00000144H .rtc$IMZ                DATA
 0003:00007c18 00000104H .rtc$IZZ                DATA
 0003:00007d1c 00000104H .rtc$TAA                DATA
 0003:00007e20 00000144H .rtc$TMZ                DATA
 0003:00007f64 00000104H .rtc$TZZ                DATA
 0003:00008068 000035e2H .xdata$x                DATA
 0003:0000b64a 00000000H .edata                  DATA
 0004:00000000 000001a0H .data                   DATA
 0004:000001a0 00000448H .data$r                 DATA
 0004:000005e8 00000504H .bss                    DATA
 0005:00000000 000004b4H .idata$5                DATA
 0005:000004b4 00000064H .idata$2                DATA
 0005:00000518 00000014H .idata$3                DATA
 0005:0000052c 000004b4H .idata$4                DATA
 0005:000009e0 00001c5fH .idata$6                DATA
 0006:00000000 00000104H .00cfg                  DATA
 0007:00000000 00000170H .rsrc$01                DATA
 0007:00000170 000002ccH .rsrc$02                DATA

  Address         Publics by Value              Rva+Base       Lib:Object

 0000:00000000       ___guard_iat_count         00000000     <absolute>
 0000:00000000       ___safe_se_handler_count   00000000     <absolute>
 0000:00000000       ___guard_longjmp_count     00000000     <absolute>
 0000:00000000       ___guard_fids_count        00000000     <absolute>
 0000:00000000       ___guard_fids_table        00000000     <absolute>
 0000:00000000       ___guard_iat_table         00000000     <absolute>
 0000:00000000       ___safe_se_handler_table   00000000     <absolute>
 0000:00000000       ___dynamic_value_reloc_table 00000000     <absolute>
 0000:00000000       ___guard_longjmp_table     00000000     <absolute>
 0000:00000100       ___guard_flags             00000100     <absolute>
 0000:00000000       ___ImageBase               00400000     <linker-defined>
 0001:00000000       __enc$textbss$begin        00401000     <linker-defined>
 0001:00022689       __enc$textbss$end          00423689     <linker-defined>
 0002:000065d0       ??$?0$$V@?$_Compressed_pair@U?$_Wrap_alloc@V?$allocator@D@std@@@std@@V?$_String_val@U?$_Simple_types@D@std@@@2@$00@std@@QAE@U_Zero_then_variadic_args_t@1@@Z 0042a5d0 f i Editor.obj
 0002:00006630       ??$?0AAU?$_Wrap_alloc@V?$allocator@D@std@@@std@@@?$_Wrap_alloc@V?$allocator@U_Container_proxy@std@@@std@@@std@@QAE@AAU?$_Wrap_alloc@V?$allocator@D@std@@@1@@Z 0042a630 f i Editor.obj
 0002:000066a0       ??$?0D@?$allocator@U_Container_proxy@std@@@std@@QAE@ABV?$allocator@D@1@@Z 0042a6a0 f i Editor.obj
 0002:000066e0       ??$_Min_value@I@std@@YAABIABI0@Z 0042a6e0 f i Editor.obj
 0002:00006750       ??$_Unfancy@D@std@@YAPADPAD@Z 0042a750 f i Editor.obj
 0002:00006790       ??$_Unfancy@U_Container_proxy@std@@@std@@YAPAU_Container_proxy@0@PAU10@@Z 0042a790 f i Editor.obj
 0002:000067d0       ??$addressof@$$CBV?$basic_string@DU?$char_traits@D@std@@V?$allocator@D@2@@std@@@std@@YAPBV?$basic_string@DU?$char_traits@D@std@@V?$allocator@D@2@@0@ABV10@@Z 0042a7d0 f i Editor.obj
 0002:00006810       ??$addressof@PAD@std@@YAPAPADAAPAD@Z 0042a810 f i Editor.obj
 0002:00006850       ??$addressof@U_Container_proxy@std@@@std@@YAPAU_Container_proxy@0@AAU10@@Z 0042a850 f i Editor.obj
 0002:00006890       ??$addressof@V?$_String_val@U?$_Simple_types@D@std@@@std@@@std@@YAPAV?$_String_val@U?$_Simple_types@D@std@@@0@AAV10@@Z 0042a890 f i Editor.obj
 0002:000068d0       ??$construct@PADAAPAD@?$_Wrap_alloc@V?$allocator@D@std@@@std@@QAEXPAPADAAPAD@Z 0042a8d0 f i Editor.obj
 0002:00006940       ??$construct@PADAAPAD@?$allocator@D@std@@QAEXPAPADAAPAD@Z 0042a940 f i Editor.obj
 0002:000069f0       ??$construct@PADAAPAD@?$allocator_traits@V?$allocator@D@std@@@std@@SAXAAV?$allocator@D@1@PAPADAAPAD@Z 0042a9f0 f i Editor.obj
 0002:00006a50       ??$construct@U_Container_proxy@std@@U12@@?$_Wrap_alloc@V?$allocator@U_Container_proxy@std@@@std@@@std@@QAEXPAU_Container_proxy@1@$$QAU21@@Z 0042aa50 f i Editor.obj
 0002:00006ac0       ??$construct@U_Container_proxy@std@@U12@@?$allocator@U_Container_proxy@std@@@std@@QAEXPAU_Container_proxy@1@$$QAU21@@Z 0042aac0 f i Editor.obj
 0002:00006b70       ??$construct@U_Container_proxy@std@@U12@@?$allocator_traits@V?$allocator@U_Container_proxy@std@@@std@@@std@@SAXAAV?$allocator@U_Container_proxy@std@@@1@PAU_Container_proxy@1@$$QAU31@@Z 0042ab70 f i Editor.obj
 0002:00006bd0       ??$destroy@PAD@?$_Wrap_alloc@V?$allocator@D@std@@@std@@QAEXPAPAD@Z 0042abd0 f i Editor.obj
 0002:00006c30       ??$destroy@PAD@?$allocator@D@std@@QAEXPAPAD@Z 0042ac30 f i Editor.obj
 0002:00006c70       ??$destroy@PAD@?$allocator_traits@V?$allocator@D@std@@@std@@SAXAAV?$allocator@D@1@PAPAD@Z 0042ac70 f i Editor.obj
 0002:00006cc0       ??$destroy@U_Container_proxy@std@@@?$_Wrap_alloc@V?$allocator@U_Container_proxy@std@@@std@@@std@@QAEXPAU_Container_proxy@1@@Z 0042acc0 f i Editor.obj
 0002:00006d20       ??$destroy@U_Container_proxy@std@@@?$allocator@U_Container_proxy@std@@@std@@QAEXPAU_Container_proxy@1@@Z 0042ad20 f i Editor.obj
 0002:00006d60       ??$destroy@U_Container_proxy@std@@@?$allocator_traits@V?$allocator@U_Container_proxy@std@@@std@@@std@@SAXAAV?$allocator@U_Container_proxy@std@@@1@PAU_Container_proxy@1@@Z 0042ad60 f i Editor.obj
 0002:00006db0       ??$forward@AAPAD@std@@YAAAPADAAPAD@Z 0042adb0 f i Editor.obj
 0002:00006df0       ??$forward@AAU?$_Wrap_alloc@V?$allocator@D@std@@@std@@@std@@YAAAU?$_Wrap_alloc@V?$allocator@D@std@@@0@AAU10@@Z 0042adf0 f i Editor.obj
 0002:00006e30       ??$forward@U_Container_proxy@std@@@std@@YA$$QAU_Container_proxy@0@AAU10@@Z 0042ae30 f i Editor.obj
 0002:00006e70       ??0?$_String_alloc@U?$_String_base_types@DV?$allocator@D@std@@@std@@@std@@QAE@XZ 0042ae70 f i Editor.obj
 0002:00006f20       ??0?$_String_val@U?$_Simple_types@D@std@@@std@@QAE@XZ 0042af20 f i Editor.obj
 0002:00006fe0       ??0?$_Wrap_alloc@V?$allocator@D@std@@@std@@QAE@XZ 0042afe0 f i Editor.obj
 0002:00007040       ??0?$allocator@D@std@@QAE@XZ 0042b040 f i Editor.obj
 0002:00007080       ??0?$basic_string@DU?$char_traits@D@std@@V?$allocator@D@2@@std@@QAE@QBD@Z 0042b080 f i Editor.obj
 0002:00007140       ??0Editor@@QAE@XZ          0042b140 f   Editor.obj
 0002:000071c0       ??0_Bxty@?$_String_val@U?$_Simple_types@D@std@@@std@@QAE@XZ 0042b1c0 f i Editor.obj
 0002:00007200       ??0_Container_base12@std@@QAE@XZ 0042b200 f i Editor.obj
 0002:00007250       ??0_Container_proxy@std@@QAE@XZ 0042b250 f i Editor.obj
 0002:000072a0       ??1?$_Compressed_pair@U?$_Wrap_alloc@V?$allocator@D@std@@@std@@V?$_String_val@U?$_Simple_types@D@std@@@2@$00@std@@QAE@XZ 0042b2a0 f i Editor.obj
 0002:000072f0       ??1?$_String_alloc@U?$_String_base_types@DV?$allocator@D@std@@@std@@@std@@QAE@XZ 0042b2f0 f i Editor.obj
 0002:00007380       ??1?$_String_val@U?$_Simple_types@D@std@@@std@@QAE@XZ 0042b380 f i Editor.obj
 0002:000073e0       ??1?$basic_string@DU?$char_traits@D@std@@V?$allocator@D@2@@std@@QAE@XZ 0042b3e0 f i Editor.obj
 0002:00007470       ??1Editor@@UAE@XZ          0042b470 f   Editor.obj
 0002:00007510       ??1_Bxty@?$_String_val@U?$_Simple_types@D@std@@@std@@QAE@XZ 0042b510 f i Editor.obj
 0002:00007550       ??1_Container_base12@std@@QAE@XZ 0042b550 f i Editor.obj
 0002:000075e0       ??2@YAPAXIPAX@Z            0042b5e0 f i Editor.obj
 0002:00007620       ??_GEditor@@UAEPAXI@Z      0042b620 f i Editor.obj
 0002:00007620       ??_EEditor@@UAEPAXI@Z      0042b620 f i Editor.obj
 0002:000076b0       ??_GGrid@@QAEPAXI@Z        0042b6b0 f i Editor.obj
 0002:00007740       ??_GGridVisualizer@@QAEPAXI@Z 0042b740 f i Editor.obj
 0002:000077d0       ?_Alloc_proxy@?$_String_alloc@U?$_String_base_types@DV?$allocator@D@std@@@std@@@std@@QAEXXZ 0042b7d0 f i Editor.obj
 0002:000078e0       ?_Allocate@std@@YAPAXII_N@Z 0042b8e0 f i Editor.obj
 0002:00007b40       ?_Check_offset@?$basic_string@DU?$char_traits@D@std@@V?$allocator@D@2@@std@@QBEXI@Z 0042bb40 f i Editor.obj
 0002:00007ba0       ?_Clamp_suffix_size@?$basic_string@DU?$char_traits@D@std@@V?$allocator@D@2@@std@@QBEIII@Z 0042bba0 f i Editor.obj
 0002:00007c20       ?_Copy@?$basic_string@DU?$char_traits@D@std@@V?$allocator@D@2@@std@@QAEXI@Z 0042bc20 f i Editor.obj
 0002:00007ed0       ?_Deallocate@std@@YAXPAXII@Z 0042bed0 f i Editor.obj
 0002:000082f0       ?_Eos@?$basic_string@DU?$char_traits@D@std@@V?$allocator@D@2@@std@@QAEXI@Z 0042c2f0 f i Editor.obj
 0002:00008380       ?_Free_proxy@?$_String_alloc@U?$_String_base_types@DV?$allocator@D@std@@@std@@@std@@QAEXXZ 0042c380 f i Editor.obj
 0002:00008470       ?_Get_data@?$_String_alloc@U?$_String_base_types@DV?$allocator@D@std@@@std@@@std@@QAEAAV?$_String_val@U?$_Simple_types@D@std@@@2@XZ 0042c470 f i Editor.obj
 0002:000084c0       ?_Get_data@?$_String_alloc@U?$_String_base_types@DV?$allocator@D@std@@@std@@@std@@QBEABV?$_String_val@U?$_Simple_types@D@std@@@2@XZ 0042c4c0 f i Editor.obj
 0002:00008510       ?_Get_first@?$_Compressed_pair@U?$_Wrap_alloc@V?$allocator@D@std@@@std@@V?$_String_val@U?$_Simple_types@D@std@@@2@$00@std@@QAEAAU?$_Wrap_alloc@V?$allocator@D@std@@@2@XZ 0042c510 f i Editor.obj
 0002:00008550       ?_Get_first@?$_Compressed_pair@U?$_Wrap_alloc@V?$allocator@D@std@@@std@@V?$_String_val@U?$_Simple_types@D@std@@@2@$00@std@@QBEABU?$_Wrap_alloc@V?$allocator@D@std@@@2@XZ 0042c550 f i Editor.obj
 0002:00008590       ?_Get_second@?$_Compressed_pair@U?$_Wrap_alloc@V?$allocator@D@std@@@std@@V?$_String_val@U?$_Simple_types@D@std@@@2@$00@std@@QAEAAV?$_String_val@U?$_Simple_types@D@std@@@2@XZ 0042c590 f i Editor.obj
 0002:000085d0       ?_Get_second@?$_Compressed_pair@U?$_Wrap_alloc@V?$allocator@D@std@@@std@@V?$_String_val@U?$_Simple_types@D@std@@@2@$00@std@@QBEABV?$_String_val@U?$_Simple_types@D@std@@@2@XZ 0042c5d0 f i Editor.obj
 0002:00008610       ?_Getal@?$_String_alloc@U?$_String_base_types@DV?$allocator@D@std@@@std@@@std@@QAEAAU?$_Wrap_alloc@V?$allocator@D@std@@@2@XZ 0042c610 f i Editor.obj
 0002:00008660       ?_Getal@?$_String_alloc@U?$_String_base_types@DV?$allocator@D@std@@@std@@@std@@QBEABU?$_Wrap_alloc@V?$allocator@D@std@@@2@XZ 0042c660 f i Editor.obj
 0002:000086b0       ?_Grow@?$basic_string@DU?$char_traits@D@std@@V?$allocator@D@2@@std@@QAE_NI@Z 0042c6b0 f i Editor.obj
 0002:00008740       ?_Inside@?$basic_string@DU?$char_traits@D@std@@V?$allocator@D@2@@std@@QBE_NQBD@Z 0042c740 f i Editor.obj
 0002:000087f0       ?_Large_string_engaged@?$_String_val@U?$_Simple_types@D@std@@@std@@QBE_NXZ 0042c7f0 f i Editor.obj
 0002:00008860       ?_Myproxy@?$_String_alloc@U?$_String_base_types@DV?$allocator@D@std@@@std@@@std@@QAEAAPAU_Container_proxy@2@XZ 0042c860 f i Editor.obj
 0002:000088b0       ?_Myptr@?$_String_alloc@U?$_String_base_types@DV?$allocator@D@std@@@std@@@std@@QAEPADXZ 0042c8b0 f i Editor.obj
 0002:00008910       ?_Myptr@?$_String_alloc@U?$_String_base_types@DV?$allocator@D@std@@@std@@@std@@QBEPBDXZ 0042c910 f i Editor.obj
 0002:00008970       ?_Myptr@?$_String_val@U?$_Simple_types@D@std@@@std@@QAEPADXZ 0042c970 f i Editor.obj
 0002:00008a00       ?_Myptr@?$_String_val@U?$_Simple_types@D@std@@@std@@QBEPBDXZ 0042ca00 f i Editor.obj
 0002:00008a90       ?_Myres@?$_String_alloc@U?$_String_base_types@DV?$allocator@D@std@@@std@@@std@@QAEAAIXZ 0042ca90 f i Editor.obj
 0002:00008af0       ?_Mysize@?$_String_alloc@U?$_String_base_types@DV?$allocator@D@std@@@std@@@std@@QAEAAIXZ 0042caf0 f i Editor.obj
 0002:00008b50       ?_Mysize@?$_String_alloc@U?$_String_base_types@DV?$allocator@D@std@@@std@@@std@@QBEABIXZ 0042cb50 f i Editor.obj
 0002:00008bb0       ?_Orphan_all@?$_String_alloc@U?$_String_base_types@DV?$allocator@D@std@@@std@@@std@@QAEXXZ 0042cbb0 f i Editor.obj
 0002:00008c10       ?_Orphan_all@_Container_base12@std@@QAEXXZ 0042cc10 f i Editor.obj
 0002:00008d20       ?_Tidy_deallocate@?$basic_string@DU?$char_traits@D@std@@V?$allocator@D@2@@std@@QAEXXZ 0042cd20 f i Editor.obj
 0002:00008e30       ?_Tidy_init@?$basic_string@DU?$char_traits@D@std@@V?$allocator@D@2@@std@@QAEXXZ 0042ce30 f i Editor.obj
 0002:00008ed0       ?_Xlen@?$basic_string@DU?$char_traits@D@std@@V?$allocator@D@2@@std@@SAXXZ 0042ced0 f i Editor.obj
 0002:00008f30       ?_Xran@?$basic_string@DU?$char_traits@D@std@@V?$allocator@D@2@@std@@SAXXZ 0042cf30 f i Editor.obj
 0002:00008f90       ?__empty_global_delete@@YAXPAX@Z 0042cf90 f i Editor.obj
 0002:00008fc0       ?__empty_global_delete@@YAXPAXI@Z 0042cfc0 f i Editor.obj
 0002:00008fc0       ?__global_delete@@YAXPAXI@Z 0042cfc0 f i Editor.obj
 0002:00008ff0       ?address@?$_Wrap_alloc@V?$allocator@U_Container_proxy@std@@@std@@@std@@QBEPAU_Container_proxy@2@AAU32@@Z 0042cff0 f i Editor.obj
 0002:00009050       ?allocate@?$_Wrap_alloc@V?$allocator@D@std@@@std@@QAEPADI@Z 0042d050 f i Editor.obj
 0002:000090b0       ?allocate@?$_Wrap_alloc@V?$allocator@U_Container_proxy@std@@@std@@@std@@QAEPAU_Container_proxy@2@I@Z 0042d0b0 f i Editor.obj
 0002:00009110       ?allocate@?$allocator@D@std@@QAEPADI@Z 0042d110 f i Editor.obj
 0002:00009170       ?allocate@?$allocator@U_Container_proxy@std@@@std@@QAEPAU_Container_proxy@2@I@Z 0042d170 f i Editor.obj
 0002:000091d0       ?assign@?$basic_string@DU?$char_traits@D@std@@V?$allocator@D@2@@std@@QAEAAV12@ABV12@II@Z 0042d1d0 f i Editor.obj
 0002:000092d0       ?assign@?$basic_string@DU?$char_traits@D@std@@V?$allocator@D@2@@std@@QAEAAV12@QBD@Z 0042d2d0 f i Editor.obj
 0002:00009340       ?assign@?$basic_string@DU?$char_traits@D@std@@V?$allocator@D@2@@std@@QAEAAV12@QBDI@Z 0042d340 f i Editor.obj
 0002:00009410       ?assign@?$char_traits@D@std@@SAXAADABD@Z 0042d410 f i Editor.obj
 0002:00009450       ?beginLoop@Editor@@UAEXXZ  0042d450 f   Editor.obj
 0002:000094a0       ?cleanup@Editor@@UAEXXZ    0042d4a0 f   Editor.obj
 0002:000095a0       ?copy@?$char_traits@D@std@@SAPADQADQBDI@Z 0042d5a0 f i Editor.obj
 0002:00009600       ?deallocate@?$_Wrap_alloc@V?$allocator@D@std@@@std@@QAEXPADI@Z 0042d600 f i Editor.obj
 0002:00009660       ?deallocate@?$_Wrap_alloc@V?$allocator@U_Container_proxy@std@@@std@@@std@@QAEXPAU_Container_proxy@2@I@Z 0042d660 f i Editor.obj
 0002:000096c0       ?deallocate@?$allocator@D@std@@QAEXPADI@Z 0042d6c0 f i Editor.obj
 0002:00009720       ?deallocate@?$allocator@U_Container_proxy@std@@@std@@QAEXPAU_Container_proxy@2@I@Z 0042d720 f i Editor.obj
 0002:00009780       ?endLoop@Editor@@UAE_NXZ   0042d780 f   Editor.obj
 0002:000097d0       ?erase@?$basic_string@DU?$char_traits@D@std@@V?$allocator@D@2@@std@@QAEAAV12@I@Z 0042d7d0 f i Editor.obj
 0002:00009840       ?erase@?$basic_string@DU?$char_traits@D@std@@V?$allocator@D@2@@std@@QAEAAV12@II@Z 0042d840 f i Editor.obj
 0002:00009920       ?getBackBuffer@GraphicsSystem@@QAEPAVGraphicsBuffer@@XZ 0042d920 f i Editor.obj
 0002:00009960       ?getHeight@GraphicsBuffer@@QBEHXZ 0042d960 f i Editor.obj
 0002:000099d0       ?getHeight@GraphicsSystem@@QBEHXZ 0042d9d0 f i Editor.obj
 0002:00009a10       ?getWidth@GraphicsBuffer@@QBEHXZ 0042da10 f i Editor.obj
 0002:00009a80       ?getWidth@GraphicsSystem@@QBEHXZ 0042da80 f i Editor.obj
 0002:00009ac0       ?init@Editor@@UAE_NXZ      0042dac0 f   Editor.obj
 0002:00009d60       ?length@?$char_traits@D@std@@SAIQBD@Z 0042dd60 f i Editor.obj
 0002:00009db0       ?loadGrid@Editor@@QAEXAAV?$basic_ifstream@DU?$char_traits@D@std@@@std@@@Z 0042ddb0 f   Editor.obj
 0002:00009e10       ?max_size@?$_Wrap_alloc@V?$allocator@D@std@@@std@@QBEIU_Nil@2@@Z 0042de10 f i Editor.obj
 0002:00009e70       ?max_size@?$allocator@D@std@@QBEIXZ 0042de70 f i Editor.obj
 0002:00009eb0       ?max_size@?$allocator_traits@V?$allocator@D@std@@@std@@SAIABV?$allocator@D@2@@Z 0042deb0 f i Editor.obj
 0002:00009f00       ?max_size@?$basic_string@DU?$char_traits@D@std@@V?$allocator@D@2@@std@@QBEIXZ 0042df00 f i Editor.obj
 0002:00009fa0       ?move@?$char_traits@D@std@@SAPADQADQBDI@Z 0042dfa0 f i Editor.obj
 0002:0000a010       ?pointer_to@?$pointer_traits@PAU_Container_proxy@std@@@std@@SAPAU_Container_proxy@2@AAU32@@Z 0042e010 f i Editor.obj
 0002:0000a060       ?processLoop@Editor@@UAEXXZ 0042e060 f   Editor.obj
 0002:0000a1e0       ?saveGrid@Editor@@QAEXAAV?$basic_ofstream@DU?$char_traits@D@std@@@std@@@Z 0042e1e0 f   Editor.obj
 0002:0000a240       ?setModified@GridVisualizer@@QAEXXZ 0042e240 f i Editor.obj
 0002:0000a280       ??$?6U?$char_traits@D@std@@@std@@YAAAV?$basic_ostream@DU?$char_traits@D@std@@@0@AAV10@PBD@Z 0042e280 f i main.obj
 0002:0000a840       ??$_Fgetc@D@std@@YA_NAADPAU_iobuf@@@Z 0042e840 f i main.obj
 0002:0000a8c0       ??$_Fputc@D@std@@YA_NDPAU_iobuf@@@Z 0042e8c0 f i main.obj
 0002:0000a950       ??$_Unfancy@$$CBD@std@@YAPBDPBD@Z 0042e950 f i main.obj
 0002:0000a990       ??$_Ungetc@D@std@@YA_NABDPAU_iobuf@@@Z 0042e990 f i main.obj
 0002:0000aa20       ??$addressof@D@std@@YAPADAAD@Z 0042ea20 f i main.obj
 0002:0000aa60       ??$use_facet@V?$codecvt@DDU_Mbstatet@@@std@@@std@@YAABV?$codecvt@DDU_Mbstatet@@@0@ABVlocale@0@@Z 0042ea60 f i main.obj
 0002:0000ac60       ??0?$_Iterator012@Urandom_access_iterator_tag@std@@DHPBDABDU_Iterator_base12@2@@std@@QAE@XZ 0042ec60 f i main.obj
 0002:0000acc0       ??0?$_String_const_iterator@V?$_String_val@U?$_Simple_types@D@std@@@std@@@std@@QAE@PBDPBU_Container_base12@1@@Z 0042ecc0 f i main.obj
 0002:0000ad80       ??0?$_String_iterator@V?$_String_val@U?$_Simple_types@D@std@@@std@@@std@@QAE@PADPBU_Container_base12@1@@Z 0042ed80 f i main.obj
 0002:0000ade0       ??0?$basic_filebuf@DU?$char_traits@D@std@@@std@@QAE@PAU_iobuf@@@Z 0042ede0 f i main.obj
 0002:0000aeb0       ??0?$basic_ifstream@DU?$char_traits@D@std@@@std@@QAE@ABV?$basic_string@DU?$char_traits@D@std@@V?$allocator@D@2@@1@HH@Z 0042eeb0 f i main.obj
 0002:0000b060       ??0?$basic_ofstream@DU?$char_traits@D@std@@@std@@QAE@ABV?$basic_string@DU?$char_traits@D@std@@V?$allocator@D@2@@1@HH@Z 0042f060 f i main.obj
 0002:0000b210       ??0?$basic_string@DU?$char_traits@D@std@@V?$allocator@D@2@@std@@QAE@ID@Z 0042f210 f i main.obj
 0002:0000b2d0       ??0?$basic_string@DU?$char_traits@D@std@@V?$allocator@D@2@@std@@QAE@XZ 0042f2d0 f i main.obj
 0002:0000b370       ??0?$fpos@U_Mbstatet@@@std@@QAE@U_Mbstatet@@_J@Z 0042f370 f i main.obj
 0002:0000b3f0       ??0?$fpos@U_Mbstatet@@@std@@QAE@_J@Z 0042f3f0 f i main.obj
 0002:0000b470       ??0_Iterator_base12@std@@QAE@XZ 0042f470 f i main.obj
 0002:0000b4c0       ??0_Sentry_base@?$basic_ostream@DU?$char_traits@D@std@@@std@@QAE@AAV12@@Z 0042f4c0 f i main.obj
 0002:0000b5b0       ??0bad_cast@std@@QAE@ABV01@@Z 0042f5b0 f i main.obj
 0002:0000b620       ??0bad_cast@std@@QAE@XZ    0042f620 f i main.obj
 0002:0000b690       ??0exception@std@@QAE@ABV01@@Z 0042f690 f i main.obj
 0002:0000b720       ??0exception@std@@QAE@QBDH@Z 0042f720 f i main.obj
 0002:0000b790       ??0sentry@?$basic_ostream@DU?$char_traits@D@std@@@std@@QAE@AAV12@@Z 0042f790 f i main.obj
 0002:0000b910       ??1?$_Iterator012@Urandom_access_iterator_tag@std@@DHPBDABDU_Iterator_base12@2@@std@@QAE@XZ 0042f910 f i main.obj
 0002:0000b960       ??1?$_String_const_iterator@V?$_String_val@U?$_Simple_types@D@std@@@std@@@std@@QAE@XZ 0042f960 f i main.obj
 0002:0000b9b0       ??1?$_String_iterator@V?$_String_val@U?$_Simple_types@D@std@@@std@@@std@@QAE@XZ 0042f9b0 f i main.obj
 0002:0000ba00       ??1?$basic_filebuf@DU?$char_traits@D@std@@@std@@UAE@XZ 0042fa00 f i main.obj
 0002:0000bad0       ??1?$basic_ifstream@DU?$char_traits@D@std@@@std@@UAE@XZ 0042fad0 f i main.obj
 0002:0000bb80       ??1?$basic_ofstream@DU?$char_traits@D@std@@@std@@UAE@XZ 0042fb80 f i main.obj
 0002:0000bc30       ??1_Iterator_base12@std@@QAE@XZ 0042fc30 f i main.obj
 0002:0000bd20       ??1_Sentry_base@?$basic_ostream@DU?$char_traits@D@std@@@std@@QAE@XZ 0042fd20 f i main.obj
 0002:0000be40       ??1bad_cast@std@@UAE@XZ    0042fe40 f i main.obj
 0002:0000be90       ??1exception@std@@UAE@XZ   0042fe90 f i main.obj
 0002:0000bf00       ??1locale@std@@QAE@XZ      0042ff00 f i main.obj
 0002:0000c010       ??1sentry@?$basic_ostream@DU?$char_traits@D@std@@@std@@QAE@XZ 00430010 f i main.obj
 0002:0000c0d0       ??B?$fpos@U_Mbstatet@@@std@@QBE_JXZ 004300d0 f i main.obj
 0002:0000c120       ??Bsentry@?$basic_ostream@DU?$char_traits@D@std@@@std@@QBE_NXZ 00430120 f i main.obj
 0002:0000c160       ??D?$_String_const_iterator@V?$_String_val@U?$_Simple_types@D@std@@@std@@@std@@QBEABDXZ 00430160 f i main.obj
 0002:0000c320       ??D?$_String_iterator@V?$_String_val@U?$_Simple_types@D@std@@@std@@@std@@QBEAADXZ 00430320 f i main.obj
 0002:0000c370       ??_D?$basic_ifstream@DU?$char_traits@D@std@@@std@@QAEXXZ 00430370 f i main.obj
 0002:0000c3e0       ??_D?$basic_ofstream@DU?$char_traits@D@std@@@std@@QAEXXZ 004303e0 f i main.obj
 0002:0000c44c       ??_E?$basic_ifstream@DU?$char_traits@D@std@@@std@@$4PPPPPPPM@A@AEPAXI@Z 0043044c f i main.obj
 0002:0000c456       ??_E?$basic_ofstream@DU?$char_traits@D@std@@@std@@$4PPPPPPPM@A@AEPAXI@Z 00430456 f i main.obj
 0002:0000c460       ??_G?$basic_filebuf@DU?$char_traits@D@std@@@std@@UAEPAXI@Z 00430460 f i main.obj
 0002:0000c460       ??_E?$basic_filebuf@DU?$char_traits@D@std@@@std@@UAEPAXI@Z 00430460 f i main.obj
 0002:0000c4d0       ??_G?$basic_ifstream@DU?$char_traits@D@std@@@std@@UAEPAXI@Z 004304d0 f i main.obj
 0002:0000c4d0       ??_E?$basic_ifstream@DU?$char_traits@D@std@@@std@@UAEPAXI@Z 004304d0 f i main.obj
 0002:0000c550       ??_E?$basic_ofstream@DU?$char_traits@D@std@@@std@@UAEPAXI@Z 00430550 f i main.obj
 0002:0000c550       ??_G?$basic_ofstream@DU?$char_traits@D@std@@@std@@UAEPAXI@Z 00430550 f i main.obj
 0002:0000c5d0       ??_Ebad_cast@std@@UAEPAXI@Z 004305d0 f i main.obj
 0002:0000c5d0       ??_Gbad_cast@std@@UAEPAXI@Z 004305d0 f i main.obj
 0002:0000c640       ??_Gexception@std@@UAEPAXI@Z 00430640 f i main.obj
 0002:0000c640       ??_Eexception@std@@UAEPAXI@Z 00430640 f i main.obj
 0002:0000c6b0       ?_Adopt@_Iterator_base12@std@@QAEXPBU_Container_base12@2@@Z 004306b0 f i main.obj
 0002:0000c860       ?_Chassign@?$basic_string@DU?$char_traits@D@std@@V?$allocator@D@2@@std@@QAEXIID@Z 00430860 f i main.obj
 0002:0000c900       ?_Endwrite@?$basic_filebuf@DU?$char_traits@D@std@@@std@@IAE_NXZ 00430900 f i main.obj
 0002:0000cde0       ?_Getcont@_Iterator_base12@std@@QBEPBU_Container_base12@2@XZ 00430de0 f i main.obj
 0002:0000ce50       ?_Getfacet@locale@std@@QBEPBVfacet@12@I@Z 00430e50 f i main.obj
 0002:0000cf50       ?_Init@?$basic_filebuf@DU?$char_traits@D@std@@@std@@IAEXPAU_iobuf@@W4_Initfl@12@@Z 00430f50 f i main.obj
 0002:0000d110       ?_Initcvt@?$basic_filebuf@DU?$char_traits@D@std@@@std@@IAEXPBV?$codecvt@DDU_Mbstatet@@@2@@Z 00431110 f i main.obj
 0002:0000d1b0       ?_Lock@?$basic_filebuf@DU?$char_traits@D@std@@@std@@UAEXXZ 004311b0 f i main.obj
 0002:0000d220       ?_Orphan_me@_Iterator_base12@std@@QAEXXZ 00431220 f i main.obj
 0002:0000d330       ?_Reset_back@?$basic_filebuf@DU?$char_traits@D@std@@@std@@AAEXXZ 00431330 f i main.obj
 0002:0000d3d0       ?_Set_back@?$basic_filebuf@DU?$char_traits@D@std@@@std@@AAEXXZ 004313d0 f i main.obj
 0002:0000d4b0       ?_Unlock@?$basic_filebuf@DU?$char_traits@D@std@@@std@@UAEXXZ 004314b0 f i main.obj
 0002:0000d520       ?address@?$_Wrap_alloc@V?$allocator@D@std@@@std@@QBEPADAAD@Z 00431520 f i main.obj
 0002:0000d580       ?append@?$basic_string@DU?$char_traits@D@std@@V?$allocator@D@2@@std@@QAEAAV12@ID@Z 00431580 f i main.obj
 0002:0000d650       ?assign@?$basic_string@DU?$char_traits@D@std@@V?$allocator@D@2@@std@@QAEAAV12@ID@Z 00431650 f i main.obj
 0002:0000d6f0       ?assign@?$char_traits@D@std@@SAPADQADID@Z 004316f0 f i main.obj
 0002:0000d750       ?begin@?$basic_string@DU?$char_traits@D@std@@V?$allocator@D@2@@std@@QAE?AV?$_String_iterator@V?$_String_val@U?$_Simple_types@D@std@@@std@@@2@XZ 00431750 f i main.obj
 0002:0000d820       ?c_str@?$basic_string@DU?$char_traits@D@std@@V?$allocator@D@2@@std@@QBEPBDXZ 00431820 f i main.obj
 0002:0000d8b0       ?close@?$basic_filebuf@DU?$char_traits@D@std@@@std@@QAEPAV12@XZ 004318b0 f i main.obj
 0002:0000d970       ?close@?$basic_ifstream@DU?$char_traits@D@std@@@std@@QAEXXZ 00431970 f i main.obj
 0002:0000d9f0       ?close@?$basic_ofstream@DU?$char_traits@D@std@@@std@@QAEXXZ 004319f0 f i main.obj
 0002:0000da70       ?eof@?$char_traits@D@std@@SAHXZ 00431a70 f i main.obj
 0002:0000dab0       ?eq_int_type@?$char_traits@D@std@@SA_NABH0@Z 00431ab0 f i main.obj
 0002:0000db10       ?getGridVisualizer@Editor@@QAEPAVGridVisualizer@@XZ 00431b10 f i main.obj
 0002:0000db50       ?imbue@?$basic_filebuf@DU?$char_traits@D@std@@@std@@MAEXABVlocale@2@@Z 00431b50 f i main.obj
 0002:0000dbc0       ?markForExit@Game@@QAEXXZ  00431bc0 f i main.obj
 0002:0000dc00       ?not_eof@?$char_traits@D@std@@SAHABH@Z 00431c00 f i main.obj
 0002:0000dca0       ?open@?$basic_filebuf@DU?$char_traits@D@std@@@std@@QAEPAV12@PBDHH@Z 00431ca0 f i main.obj
 0002:0000ddf0       ?overflow@?$basic_filebuf@DU?$char_traits@D@std@@@std@@MAEHH@Z 00431df0 f i main.obj
 0002:0000e480       ?pbackfail@?$basic_filebuf@DU?$char_traits@D@std@@@std@@MAEHH@Z 00432480 f i main.obj
 0002:0000e6d0       ?pointer_to@?$pointer_traits@PAD@std@@SAPADAAD@Z 004326d0 f i main.obj
 0002:0000e720       ?seekoff@?$basic_filebuf@DU?$char_traits@D@std@@@std@@MAE?AV?$fpos@U_Mbstatet@@@2@_JHH@Z 00432720 f i main.obj
 0002:0000e8d0       ?seekpos@?$basic_filebuf@DU?$char_traits@D@std@@@std@@MAE?AV?$fpos@U_Mbstatet@@@2@V32@H@Z 004328d0 f i main.obj
 0002:0000eab0       ?seekpos@?$fpos@U_Mbstatet@@@std@@QBE_JXZ 00432ab0 f i main.obj
 0002:0000eaf0       ?setbuf@?$basic_filebuf@DU?$char_traits@D@std@@@std@@MAEPAV?$basic_streambuf@DU?$char_traits@D@std@@@2@PAD_J@Z 00432af0 f i main.obj
 0002:0000ebd0       ?size@?$basic_string@DU?$char_traits@D@std@@V?$allocator@D@2@@std@@QBEIXZ 00432bd0 f i main.obj
 0002:0000ec30       ?state@?$fpos@U_Mbstatet@@@std@@QBE?AU_Mbstatet@@XZ 00432c30 f i main.obj
 0002:0000ec80       ?sync@?$basic_filebuf@DU?$char_traits@D@std@@@std@@MAEHXZ 00432c80 f i main.obj
 0002:0000ed80       ?to_char_type@?$char_traits@D@std@@SADABH@Z 00432d80 f i main.obj
 0002:0000edc0       ?to_int_type@?$char_traits@D@std@@SAHABD@Z 00432dc0 f i main.obj
 0002:0000ee00       ?uflow@?$basic_filebuf@DU?$char_traits@D@std@@@std@@MAEHXZ 00432e00 f i main.obj
 0002:0000f420       ?underflow@?$basic_filebuf@DU?$char_traits@D@std@@@std@@MAEHXZ 00433420 f i main.obj
 0002:0000f590       ?what@exception@std@@UBEPBDXZ 00433590 f i main.obj
 0002:0000f600       _main                      00433600 f   main.obj
 0002:0000fd10       ??$__vcrt_va_start_verify_argument_type@QBD@@YAXXZ 00433d10 f i CommonPathfindingLib:Game.obj
 0002:0000fd40       ??0Game@@QAE@XZ            00433d40 f   CommonPathfindingLib:Game.obj
 0002:0000fdf0       ??1Game@@UAE@XZ            00433df0 f   CommonPathfindingLib:Game.obj
 0002:0000fe80       ??_EGame@@UAEPAXI@Z        00433e80 f i CommonPathfindingLib:Game.obj
 0002:0000fe80       ??_GGame@@UAEPAXI@Z        00433e80 f i CommonPathfindingLib:Game.obj
 0002:0000ff10       ??_GGraphicsBufferManager@@QAEPAXI@Z 00433f10 f i CommonPathfindingLib:Game.obj
 0002:0000ffa0       ??_GGraphicsSystem@@QAEPAXI@Z 00433fa0 f i CommonPathfindingLib:Game.obj
 0002:00010030       ??_GSpriteManager@@QAEPAXI@Z 00434030 f i CommonPathfindingLib:Game.obj
 0002:000100c0       ??_GTimer@@QAEPAXI@Z       004340c0 f i CommonPathfindingLib:Game.obj
 0002:00010150       ?beginLoop@Game@@UAEXXZ    00434150 f   CommonPathfindingLib:Game.obj
 0002:00010200       ?cleanup@Game@@UAEXXZ      00434200 f   CommonPathfindingLib:Game.obj
 0002:000104d0       ?endLoop@Game@@UAE_NXZ     004344d0 f   CommonPathfindingLib:Game.obj
 0002:00010540       ?genRandomBinomial@@YAMXZ  00434540 f   CommonPathfindingLib:Game.obj
 0002:000105e0       ?genRandomFloat@@YAMXZ     004345e0 f   CommonPathfindingLib:Game.obj
 0002:00010650       ?init@Game@@UAE_NXZ        00434650 f   CommonPathfindingLib:Game.obj
 0002:00010c60       ?lerp@@YAMHHH@Z            00434c60 f   CommonPathfindingLib:Game.obj
 0002:00010d20       ?mapRotationToRange@@YAMMMM@Z 00434d20 f   CommonPathfindingLib:Game.obj
 0002:00010dd0       ?processLoop@Game@@UAEXXZ  00434dd0 f   CommonPathfindingLib:Game.obj
 0002:00010e30       ___local_stdio_printf_options 00434e30 f i CommonPathfindingLib:Game.obj
 0002:00010e70       __vfprintf_l               00434e70 f i CommonPathfindingLib:Game.obj
 0002:00010ef0       _fprintf                   00434ef0 f i CommonPathfindingLib:Game.obj
 0002:00010f70       _printf                    00434f70 f i CommonPathfindingLib:Game.obj
 0002:00011060       ??$?0$$V@?$_Compressed_pair@U?$_Wrap_alloc@V?$allocator@U?$_Tree_node@U?$pair@$$CBHPAVGraphicsBuffer@@@std@@PAX@std@@@std@@@std@@V?$_Tree_val@U?$_Tree_simple_types@U?$pair@$$CBHPAVGraphicsBuffer@@@std@@@std@@@2@$00@std@@QAE@U_Zero_then_variadic_args_t@1@@Z 00435060 f i CommonPathfindingLib:GraphicsBufferManager.obj
 0002:000110c0       ??$?0$$V@?$_Compressed_pair@U?$_Wrap_alloc@V?$allocator@U?$_Tree_node@U?$pair@$$CBV?$basic_string@DU?$char_traits@D@std@@V?$allocator@D@2@@std@@H@std@@PAX@std@@@std@@@std@@V?$_Tree_val@U?$_Tree_simple_types@U?$pair@$$CBV?$basic_string@DU?$char_traits@D@std@@V?$allocator@D@2@@std@@H@std@@@std@@@2@$00@std@@QAE@U_Zero_then_variadic_args_t@1@@Z 004350c0 f i CommonPathfindingLib:GraphicsBufferManager.obj
 0002:00011120       ??$?0AAU?$_Wrap_alloc@V?$allocator@U?$_Tree_node@U?$pair@$$CBHPAVGraphicsBuffer@@@std@@PAX@std@@@std@@@std@@@?$_Wrap_alloc@V?$allocator@U_Container_proxy@std@@@std@@@std@@QAE@AAU?$_Wrap_alloc@V?$allocator@U?$_Tree_node@U?$pair@$$CBHPAVGraphicsBuffer@@@std@@PAX@std@@@std@@@1@@Z 00435120 f i CommonPathfindingLib:GraphicsBufferManager.obj
 0002:00011190       ??$?0AAU?$_Wrap_alloc@V?$allocator@U?$_Tree_node@U?$pair@$$CBV?$basic_string@DU?$char_traits@D@std@@V?$allocator@D@2@@std@@H@std@@PAX@std@@@std@@@std@@@?$_Wrap_alloc@V?$allocator@U_Container_proxy@std@@@std@@@std@@QAE@AAU?$_Wrap_alloc@V?$allocator@U?$_Tree_node@U?$pair@$$CBV?$basic_string@DU?$char_traits@D@std@@V?$allocator@D@2@@std@@H@std@@PAX@std@@@std@@@1@@Z 00435190 f i CommonPathfindingLib:GraphicsBufferManager.obj
 0002:00011200       ??$?0AAV?$_Tree_iterator@V?$_Tree_val@U?$_Tree_simple_types@U?$pair@$$CBHPAVGraphicsBuffer@@@std@@@std@@@std@@@std@@_NX$0A@@?$pair@V?$_Tree_iterator@V?$_Tree_val@U?$_Tree_simple_types@U?$pair@$$CBHPAVGraphicsBuffer@@@std@@@std@@@std@@@std@@_N@std@@QAE@AAV?$_Tree_iterator@V?$_Tree_val@U?$_Tree_simple_types@U?$pair@$$CBHPAVGraphicsBuffer@@@std@@@std@@@std@@@1@$$QA_N@Z 00435200 f i CommonPathfindingLib:GraphicsBufferManager.obj
 0002:00011280       ??$?0AAV?$_Tree_iterator@V?$_Tree_val@U?$_Tree_simple_types@U?$pair@$$CBV?$basic_string@DU?$char_traits@D@std@@V?$allocator@D@2@@std@@H@std@@@std@@@std@@@std@@_NX$0A@@?$pair@V?$_Tree_iterator@V?$_Tree_val@U?$_Tree_simple_types@U?$pair@$$CBV?$basic_string@DU?$char_traits@D@std@@V?$allocator@D@2@@std@@H@std@@@std@@@std@@@std@@_N@std@@QAE@AAV?$_Tree_iterator@V?$_Tree_val@U?$_Tree_simple_types@U?$pair@$$CBV?$basic_string@DU?$char_traits@D@std@@V?$allocator@D@2@@std@@H@std@@@std@@@std@@@1@$$QA_N@Z 00435280 f i CommonPathfindingLib:GraphicsBufferManager.obj
 0002:00011300       ??$?0ABH$$Z$$V@?$pair@$$CBHPAVGraphicsBuffer@@@std@@QAE@Upiecewise_construct_t@1@V?$tuple@ABH@1@V?$tuple@$$V@1@@Z 00435300 f i CommonPathfindingLib:GraphicsBufferManager.obj
 0002:00011380       ??$?0ABH$0A@@?$tuple@ABH@std@@QAE@ABH@Z 00435380 f i CommonPathfindingLib:GraphicsBufferManager.obj
 0002:000113f0       ??$?0ABH@?$_Tuple_val@ABH@std@@QAE@ABH@Z 004353f0 f i CommonPathfindingLib:GraphicsBufferManager.obj
 0002:00011450       ??$?0ABU?$less@H@std@@U_Zero_then_variadic_args_t@1@@?$_Compressed_pair@U?$less@H@std@@V?$_Compressed_pair@U?$_Wrap_alloc@V?$allocator@U?$_Tree_node@U?$pair@$$CBHPAVGraphicsBuffer@@@std@@PAX@std@@@std@@@std@@V?$_Tree_val@U?$_Tree_simple_types@U?$pair@$$CBHPAVGraphicsBuffer@@@std@@@std@@@2@$00@2@$00@std@@QAE@U_One_then_variadic_args_t@1@ABU?$less@H@1@$$QAU_Zero_then_variadic_args_t@1@@Z 00435450 f i CommonPathfindingLib:GraphicsBufferManager.obj
 0002:000114d0       ??$?0ABU?$less@V?$basic_string@DU?$char_traits@D@std@@V?$allocator@D@2@@std@@@std@@U_Zero_then_variadic_args_t@1@@?$_Compressed_pair@U?$less@V?$basic_string@DU?$char_traits@D@std@@V?$allocator@D@2@@std@@@std@@V?$_Compressed_pair@U?$_Wrap_alloc@V?$allocator@U?$_Tree_node@U?$pair@$$CBV?$basic_string@DU?$char_traits@D@std@@V?$allocator@D@2@@std@@H@std@@PAX@std@@@std@@@std@@V?$_Tree_val@U?$_Tree_simple_types@U?$pair@$$CBV?$basic_string@DU?$char_traits@D@std@@V?$allocator@D@2@@std@@H@std@@@std@@@2@$00@2@$00@std@@QAE@U_One_then_variadic_args_t@1@ABU?$less@V?$basic_string@DU?$char_traits@D@std@@V?$allocator@D@2@@std@@@1@$$QAU_Zero_then_variadic_args_t@1@@Z 004354d0 f i CommonPathfindingLib:GraphicsBufferManager.obj
 0002:00011550       ??$?0ABV?$basic_string@DU?$char_traits@D@std@@V?$allocator@D@2@@std@@$$Z$$V@?$pair@$$CBV?$basic_string@DU?$char_traits@D@std@@V?$allocator@D@2@@std@@H@std@@QAE@Upiecewise_construct_t@1@V?$tuple@ABV?$basic_string@DU?$char_traits@D@std@@V?$allocator@D@2@@std@@@1@V?$tuple@$$V@1@@Z 00435550 f i CommonPathfindingLib:GraphicsBufferManager.obj
 0002:000115d0       ??$?0ABV?$basic_string@DU?$char_traits@D@std@@V?$allocator@D@2@@std@@$0A@@?$tuple@ABV?$basic_string@DU?$char_traits@D@std@@V?$allocator@D@2@@std@@@std@@QAE@ABV?$basic_string@DU?$char_traits@D@std@@V?$allocator@D@2@@1@@Z 004355d0 f i CommonPathfindingLib:GraphicsBufferManager.obj
 0002:00011640       ??$?0ABV?$basic_string@DU?$char_traits@D@std@@V?$allocator@D@2@@std@@@?$_Tuple_val@ABV?$basic_string@DU?$char_traits@D@std@@V?$allocator@D@2@@std@@@std@@QAE@ABV?$basic_string@DU?$char_traits@D@std@@V?$allocator@D@2@@1@@Z 00435640 f i CommonPathfindingLib:GraphicsBufferManager.obj
 0002:000116a0       ??$?0U?$_Tree_node@U?$pair@$$CBHPAVGraphicsBuffer@@@std@@PAX@std@@@?$allocator@U_Container_proxy@std@@@std@@QAE@ABV?$allocator@U?$_Tree_node@U?$pair@$$CBHPAVGraphicsBuffer@@@std@@PAX@std@@@1@@Z 004356a0 f i CommonPathfindingLib:GraphicsBufferManager.obj
 0002:000116e0       ??$?0U?$_Tree_node@U?$pair@$$CBV?$basic_string@DU?$char_traits@D@std@@V?$allocator@D@2@@std@@H@std@@PAX@std@@@?$allocator@U_Container_proxy@std@@@std@@QAE@ABV?$allocator@U?$_Tree_node@U?$pair@$$CBV?$basic_string@DU?$char_traits@D@std@@V?$allocator@D@2@@std@@H@std@@PAX@std@@@1@@Z 004356e0 f i CommonPathfindingLib:GraphicsBufferManager.obj
 0002:00011720       ??$?0U?$_Wrap_alloc@V?$allocator@D@std@@@std@@$$V@?$_Compressed_pair@U?$_Wrap_alloc@V?$allocator@D@std@@@std@@V?$_String_val@U?$_Simple_types@D@std@@@2@$00@std@@QAE@U_One_then_variadic_args_t@1@$$QAU?$_Wrap_alloc@V?$allocator@D@std@@@1@@Z 00435720 f i CommonPathfindingLib:GraphicsBufferManager.obj
 0002:00011790       ??$?0U?$_Wrap_alloc@V?$allocator@D@std@@@std@@X@?$_String_alloc@U?$_String_base_types@DV?$allocator@D@std@@@std@@@std@@QAE@$$QAU?$_Wrap_alloc@V?$allocator@D@std@@@1@@Z 00435790 f i CommonPathfindingLib:GraphicsBufferManager.obj
 0002:00011850       ??$?0U_Exact_args_t@std@@$0A@@?$tuple@$$V@std@@QAE@U_Exact_args_t@1@@Z 00435850 f i CommonPathfindingLib:GraphicsBufferManager.obj
 0002:00011890       ??$?0U_Exact_args_t@std@@ABH$$V$0A@@?$tuple@ABH@std@@QAE@U_Exact_args_t@1@ABH@Z 00435890 f i CommonPathfindingLib:GraphicsBufferManager.obj
 0002:00011920       ??$?0U_Exact_args_t@std@@ABV?$basic_string@DU?$char_traits@D@std@@V?$allocator@D@2@@1@$$V$0A@@?$tuple@ABV?$basic_string@DU?$char_traits@D@std@@V?$allocator@D@2@@std@@@std@@QAE@U_Exact_args_t@1@ABV?$basic_string@DU?$char_traits@D@std@@V?$allocator@D@2@@1@@Z 00435920 f i CommonPathfindingLib:GraphicsBufferManager.obj
 0002:000119b0       ??$?0V?$_Tree_iterator@V?$_Tree_val@U?$_Tree_simple_types@U?$pair@$$CBHPAVGraphicsBuffer@@@std@@@std@@@std@@@std@@_NX$0A@@?$pair@V?$_Tree_iterator@V?$_Tree_val@U?$_Tree_simple_types@U?$pair@$$CBHPAVGraphicsBuffer@@@std@@@std@@@std@@@std@@_N@std@@QAE@$$QAV?$_Tree_iterator@V?$_Tree_val@U?$_Tree_simple_types@U?$pair@$$CBHPAVGraphicsBuffer@@@std@@@std@@@std@@@1@$$QA_N@Z 004359b0 f i CommonPathfindingLib:GraphicsBufferManager.obj
 0002:00011a30       ??$?0V?$_Tree_iterator@V?$_Tree_val@U?$_Tree_simple_types@U?$pair@$$CBV?$basic_string@DU?$char_traits@D@std@@V?$allocator@D@2@@std@@H@std@@@std@@@std@@@std@@_NX$0A@@?$pair@V?$_Tree_iterator@V?$_Tree_val@U?$_Tree_simple_types@U?$pair@$$CBV?$basic_string@DU?$char_traits@D@std@@V?$allocator@D@2@@std@@H@std@@@std@@@std@@@std@@_N@std@@QAE@$$QAV?$_Tree_iterator@V?$_Tree_val@U?$_Tree_simple_types@U?$pair@$$CBV?$basic_string@DU?$char_traits@D@std@@V?$allocator@D@2@@std@@H@std@@@std@@@std@@@1@$$QA_N@Z 00435a30 f i CommonPathfindingLib:GraphicsBufferManager.obj
 0002:00011ab0       ??$?0V?$allocator@D@std@@@?$_Wrap_alloc@V?$allocator@D@std@@@std@@QAE@$$QAV?$allocator@D@1@@Z 00435ab0 f i CommonPathfindingLib:GraphicsBufferManager.obj
 0002:00011b20       ??$?0V?$tuple@ABH@std@@V?$tuple@$$V@1@$0A@$$Z$S@?$pair@$$CBHPAVGraphicsBuffer@@@std@@QAE@AAV?$tuple@ABH@1@AAV?$tuple@$$V@1@U?$integer_sequence@I$0A@@1@U?$integer_sequence@I$S@1@@Z 00435b20 f i CommonPathfindingLib:GraphicsBufferManager.obj
 0002:00011ba0       ??$?0V?$tuple@ABV?$basic_string@DU?$char_traits@D@std@@V?$allocator@D@2@@std@@@std@@V?$tuple@$$V@1@$0A@$$Z$S@?$pair@$$CBV?$basic_string@DU?$char_traits@D@std@@V?$allocator@D@2@@std@@H@std@@QAE@AAV?$tuple@ABV?$basic_string@DU?$char_traits@D@std@@V?$allocator@D@2@@std@@@1@AAV?$tuple@$$V@1@U?$integer_sequence@I$0A@@1@U?$integer_sequence@I$S@1@@Z 00435ba0 f i CommonPathfindingLib:GraphicsBufferManager.obj
 0002:00011c20       ??$?MDU?$char_traits@D@std@@V?$allocator@D@1@@std@@YA_NABV?$basic_string@DU?$char_traits@D@std@@V?$allocator@D@2@@0@0@Z 00435c20 f i CommonPathfindingLib:GraphicsBufferManager.obj
 0002:00011ca0       ??$_Buynode@ABUpiecewise_construct_t@std@@V?$tuple@ABH@2@V?$tuple@$$V@2@@?$_Tree_comp_alloc@V?$_Tmap_traits@HPAVGraphicsBuffer@@U?$less@H@std@@V?$allocator@U?$pair@$$CBHPAVGraphicsBuffer@@@std@@@3@$0A@@std@@@std@@QAEPAU?$_Tree_node@U?$pair@$$CBHPAVGraphicsBuffer@@@std@@PAX@1@ABUpiecewise_construct_t@1@$$QAV?$tuple@ABH@1@$$QAV?$tuple@$$V@1@@Z 00435ca0 f i CommonPathfindingLib:GraphicsBufferManager.obj
 0002:00011e10       ??$_Buynode@ABUpiecewise_construct_t@std@@V?$tuple@ABV?$basic_string@DU?$char_traits@D@std@@V?$allocator@D@2@@std@@@2@V?$tuple@$$V@2@@?$_Tree_comp_alloc@V?$_Tmap_traits@V?$basic_string@DU?$char_traits@D@std@@V?$allocator@D@2@@std@@HU?$less@V?$basic_string@DU?$char_traits@D@std@@V?$allocator@D@2@@std@@@2@V?$allocator@U?$pair@$$CBV?$basic_string@DU?$char_traits@D@std@@V?$allocator@D@2@@std@@H@std@@@2@$0A@@std@@@std@@QAEPAU?$_Tree_node@U?$pair@$$CBV?$basic_string@DU?$char_traits@D@std@@V?$allocator@D@2@@std@@H@std@@PAX@1@ABUpiecewise_construct_t@1@$$QAV?$tuple@ABV?$basic_string@DU?$char_traits@D@std@@V?$allocator@D@2@@std@@@1@$$QAV?$tuple@$$V@1@@Z 00435e10 f i CommonPathfindingLib:GraphicsBufferManager.obj
 0002:00011f80       ??$_Buynode_if_nil@AAU?$pair@$$CBHPAVGraphicsBuffer@@@std@@@?$_Tree@V?$_Tmap_traits@HPAVGraphicsBuffer@@U?$less@H@std@@V?$allocator@U?$pair@$$CBHPAVGraphicsBuffer@@@std@@@3@$0A@@std@@@std@@IAEPAU?$_Tree_node@U?$pair@$$CBHPAVGraphicsBuffer@@@std@@PAX@1@PAU21@AAU?$pair@$$CBHPAVGraphicsBuffer@@@1@@Z 00435f80 f i CommonPathfindingLib:GraphicsBufferManager.obj
 0002:00011fc0       ??$_Buynode_if_nil@AAU?$pair@$$CBV?$basic_string@DU?$char_traits@D@std@@V?$allocator@D@2@@std@@H@std@@@?$_Tree@V?$_Tmap_traits@V?$basic_string@DU?$char_traits@D@std@@V?$allocator@D@2@@std@@HU?$less@V?$basic_string@DU?$char_traits@D@std@@V?$allocator@D@2@@std@@@2@V?$allocator@U?$pair@$$CBV?$basic_string@DU?$char_traits@D@std@@V?$allocator@D@2@@std@@H@std@@@2@$0A@@std@@@std@@IAEPAU?$_Tree_node@U?$pair@$$CBV?$basic_string@DU?$char_traits@D@std@@V?$allocator@D@2@@std@@H@std@@PAX@1@PAU21@AAU?$pair@$$CBV?$basic_string@DU?$char_traits@D@std@@V?$allocator@D@2@@std@@H@1@@Z 00435fc0 f i CommonPathfindingLib:GraphicsBufferManager.obj
 0002:00012000       ??$_Debug_lt_pred@AAU?$less@H@std@@ABHABH@std@@YA_NAAU?$less@H@0@ABH1PB_WI@Z 00436000 f i CommonPathfindingLib:GraphicsBufferManager.obj
 0002:00012110       ??$_Debug_lt_pred@AAU?$less@V?$basic_string@DU?$char_traits@D@std@@V?$allocator@D@2@@std@@@std@@ABV?$basic_string@DU?$char_traits@D@std@@V?$allocator@D@2@@2@ABV32@@std@@YA_NAAU?$less@V?$basic_string@DU?$char_traits@D@std@@V?$allocator@D@2@@std@@@0@ABV?$basic_string@DU?$char_traits@D@std@@V?$allocator@D@2@@0@1PB_WI@Z 00436110 f i CommonPathfindingLib:GraphicsBufferManager.obj
 0002:00012220       ??$_Debug_lt_pred@ABU?$less@H@std@@ABHABH@std@@YA_NABU?$less@H@0@ABH1PB_WI@Z 00436220 f i CommonPathfindingLib:GraphicsBufferManager.obj
 0002:00012330       ??$_Debug_lt_pred@ABU?$less@V?$basic_string@DU?$char_traits@D@std@@V?$allocator@D@2@@std@@@std@@ABV?$basic_string@DU?$char_traits@D@std@@V?$allocator@D@2@@2@ABV32@@std@@YA_NABU?$less@V?$basic_string@DU?$char_traits@D@std@@V?$allocator@D@2@@std@@@0@ABV?$basic_string@DU?$char_traits@D@std@@V?$allocator@D@2@@0@1PB_WI@Z 00436330 f i CommonPathfindingLib:GraphicsBufferManager.obj
 0002:00012440       ??$_Insert_at@AAU?$pair@$$CBHPAVGraphicsBuffer@@@std@@PAU?$_Tree_node@U?$pair@$$CBHPAVGraphicsBuffer@@@std@@PAX@2@@?$_Tree@V?$_Tmap_traits@HPAVGraphicsBuffer@@U?$less@H@std@@V?$allocator@U?$pair@$$CBHPAVGraphicsBuffer@@@std@@@3@$0A@@std@@@std@@IAE?AV?$_Tree_iterator@V?$_Tree_val@U?$_Tree_simple_types@U?$pair@$$CBHPAVGraphicsBuffer@@@std@@@std@@@std@@@1@_NPAU?$_Tree_node@U?$pair@$$CBHPAVGraphicsBuffer@@@std@@PAX@1@AAU?$pair@$$CBHPAVGraphicsBuffer@@@1@1@Z 00436440 f i CommonPathfindingLib:GraphicsBufferManager.obj
 0002:00012a00       ??$_Insert_at@AAU?$pair@$$CBV?$basic_string@DU?$char_traits@D@std@@V?$allocator@D@2@@std@@H@std@@PAU?$_Tree_node@U?$pair@$$CBV?$basic_string@DU?$char_traits@D@std@@V?$allocator@D@2@@std@@H@std@@PAX@2@@?$_Tree@V?$_Tmap_traits@V?$basic_string@DU?$char_traits@D@std@@V?$allocator@D@2@@std@@HU?$less@V?$basic_string@DU?$char_traits@D@std@@V?$allocator@D@2@@std@@@2@V?$allocator@U?$pair@$$CBV?$basic_string@DU?$char_traits@D@std@@V?$allocator@D@2@@std@@H@std@@@2@$0A@@std@@@std@@IAE?AV?$_Tree_iterator@V?$_Tree_val@U?$_Tree_simple_types@U?$pair@$$CBV?$basic_string@DU?$char_traits@D@std@@V?$allocator@D@2@@std@@H@std@@@std@@@std@@@1@_NPAU?$_Tree_node@U?$pair@$$CBV?$basic_string@DU?$char_traits@D@std@@V?$allocator@D@2@@std@@H@std@@PAX@1@AAU?$pair@$$CBV?$basic_string@DU?$char_traits@D@std@@V?$allocator@D@2@@std@@H@1@1@Z 00436a00 f i CommonPathfindingLib:GraphicsBufferManager.obj
 0002:00012fc0       ??$_Insert_hint@AAU?$pair@$$CBHPAVGraphicsBuffer@@@std@@PAU?$_Tree_node@U?$pair@$$CBHPAVGraphicsBuffer@@@std@@PAX@2@@?$_Tree@V?$_Tmap_traits@HPAVGraphicsBuffer@@U?$less@H@std@@V?$allocator@U?$pair@$$CBHPAVGraphicsBuffer@@@std@@@3@$0A@@std@@@std@@IAE?AV?$_Tree_iterator@V?$_Tree_val@U?$_Tree_simple_types@U?$pair@$$CBHPAVGraphicsBuffer@@@std@@@std@@@std@@@1@V?$_Tree_const_iterator@V?$_Tree_val@U?$_Tree_simple_types@U?$pair@$$CBHPAVGraphicsBuffer@@@std@@@std@@@std@@@1@AAU?$pair@$$CBHPAVGraphicsBuffer@@@1@PAU?$_Tree_node@U?$pair@$$CBHPAVGraphicsBuffer@@@std@@PAX@1@@Z 00436fc0 f i CommonPathfindingLib:GraphicsBufferManager.obj
 0002:00014550       ??$_Insert_hint@AAU?$pair@$$CBV?$basic_string@DU?$char_traits@D@std@@V?$allocator@D@2@@std@@H@std@@PAU?$_Tree_node@U?$pair@$$CBV?$basic_string@DU?$char_traits@D@std@@V?$allocator@D@2@@std@@H@std@@PAX@2@@?$_Tree@V?$_Tmap_traits@V?$basic_string@DU?$char_traits@D@std@@V?$allocator@D@2@@std@@HU?$less@V?$basic_string@DU?$char_traits@D@std@@V?$allocator@D@2@@std@@@2@V?$allocator@U?$pair@$$CBV?$basic_string@DU?$char_traits@D@std@@V?$allocator@D@2@@std@@H@std@@@2@$0A@@std@@@std@@IAE?AV?$_Tree_iterator@V?$_Tree_val@U?$_Tree_simple_types@U?$pair@$$CBV?$basic_string@DU?$char_traits@D@std@@V?$allocator@D@2@@std@@H@std@@@std@@@std@@@1@V?$_Tree_const_iterator@V?$_Tree_val@U?$_Tree_simple_types@U?$pair@$$CBV?$basic_string@DU?$char_traits@D@std@@V?$allocator@D@2@@std@@H@std@@@std@@@std@@@1@AAU?$pair@$$CBV?$basic_string@DU?$char_traits@D@std@@V?$allocator@D@2@@std@@H@1@PAU?$_Tree_node@U?$pair@$$CBV?$basic_string@DU?$char_traits@D@std@@V?$allocator@D@2@@std@@H@std@@PAX@1@@Z 00438550 f i CommonPathfindingLib:GraphicsBufferManager.obj
 0002:00015ae0       ??$_Insert_nohint@AAU?$pair@$$CBHPAVGraphicsBuffer@@@std@@PAU?$_Tree_node@U?$pair@$$CBHPAVGraphicsBuffer@@@std@@PAX@2@@?$_Tree@V?$_Tmap_traits@HPAVGraphicsBuffer@@U?$less@H@std@@V?$allocator@U?$pair@$$CBHPAVGraphicsBuffer@@@std@@@3@$0A@@std@@@std@@IAE?AU?$pair@V?$_Tree_iterator@V?$_Tree_val@U?$_Tree_simple_types@U?$pair@$$CBHPAVGraphicsBuffer@@@std@@@std@@@std@@@std@@_N@1@_NAAU?$pair@$$CBHPAVGraphicsBuffer@@@1@PAU?$_Tree_node@U?$pair@$$CBHPAVGraphicsBuffer@@@std@@PAX@1@@Z 00439ae0 f i CommonPathfindingLib:GraphicsBufferManager.obj
 0002:000161b0       ??$_Insert_nohint@AAU?$pair@$$CBV?$basic_string@DU?$char_traits@D@std@@V?$allocator@D@2@@std@@H@std@@PAU?$_Tree_node@U?$pair@$$CBV?$basic_string@DU?$char_traits@D@std@@V?$allocator@D@2@@std@@H@std@@PAX@2@@?$_Tree@V?$_Tmap_traits@V?$basic_string@DU?$char_traits@D@std@@V?$allocator@D@2@@std@@HU?$less@V?$basic_string@DU?$char_traits@D@std@@V?$allocator@D@2@@std@@@2@V?$allocator@U?$pair@$$CBV?$basic_string@DU?$char_traits@D@std@@V?$allocator@D@2@@std@@H@std@@@2@$0A@@std@@@std@@IAE?AU?$pair@V?$_Tree_iterator@V?$_Tree_val@U?$_Tree_simple_types@U?$pair@$$CBV?$basic_string@DU?$char_traits@D@std@@V?$allocator@D@2@@std@@H@std@@@std@@@std@@@std@@_N@1@_NAAU?$pair@$$CBV?$basic_string@DU?$char_traits@D@std@@V?$allocator@D@2@@std@@H@1@PAU?$_Tree_node@U?$pair@$$CBV?$basic_string@DU?$char_traits@D@std@@V?$allocator@D@2@@std@@H@std@@PAX@1@@Z 0043a1b0 f i CommonPathfindingLib:GraphicsBufferManager.obj
 0002:00016880       ??$_Kfn@$$CBHPAVGraphicsBuffer@@@?$_Tmap_traits@HPAVGraphicsBuffer@@U?$less@H@std@@V?$allocator@U?$pair@$$CBHPAVGraphicsBuffer@@@std@@@3@$0A@@std@@SAABHABU?$pair@$$CBHPAVGraphicsBuffer@@@1@@Z 0043a880 f i CommonPathfindingLib:GraphicsBufferManager.obj
 0002:000168c0       ??$_Kfn@$$CBV?$basic_string@DU?$char_traits@D@std@@V?$allocator@D@2@@std@@H@?$_Tmap_traits@V?$basic_string@DU?$char_traits@D@std@@V?$allocator@D@2@@std@@HU?$less@V?$basic_string@DU?$char_traits@D@std@@V?$allocator@D@2@@std@@@2@V?$allocator@U?$pair@$$CBV?$basic_string@DU?$char_traits@D@std@@V?$allocator@D@2@@std@@H@std@@@2@$0A@@std@@SAABV?$basic_string@DU?$char_traits@D@std@@V?$allocator@D@2@@1@ABU?$pair@$$CBV?$basic_string@DU?$char_traits@D@std@@V?$allocator@D@2@@std@@H@1@@Z 0043a8c0 f i CommonPathfindingLib:GraphicsBufferManager.obj
 0002:00016900       ??$_Lbound@H@?$_Tree@V?$_Tmap_traits@HPAVGraphicsBuffer@@U?$less@H@std@@V?$allocator@U?$pair@$$CBHPAVGraphicsBuffer@@@std@@@3@$0A@@std@@@std@@IBEPAU?$_Tree_node@U?$pair@$$CBHPAVGraphicsBuffer@@@std@@PAX@1@ABH@Z 0043a900 f i CommonPathfindingLib:GraphicsBufferManager.obj
 0002:000169f0       ??$_Lbound@V?$basic_string@DU?$char_traits@D@std@@V?$allocator@D@2@@std@@@?$_Tree@V?$_Tmap_traits@V?$basic_string@DU?$char_traits@D@std@@V?$allocator@D@2@@std@@HU?$less@V?$basic_string@DU?$char_traits@D@std@@V?$allocator@D@2@@std@@@2@V?$allocator@U?$pair@$$CBV?$basic_string@DU?$char_traits@D@std@@V?$allocator@D@2@@std@@H@std@@@2@$0A@@std@@@std@@IBEPAU?$_Tree_node@U?$pair@$$CBV?$basic_string@DU?$char_traits@D@std@@V?$allocator@D@2@@std@@H@std@@PAX@1@ABV?$basic_string@DU?$char_traits@D@std@@V?$allocator@D@2@@1@@Z 0043a9f0 f i CommonPathfindingLib:GraphicsBufferManager.obj
 0002:00016ae0       ??$_Traits_compare@U?$char_traits@D@std@@@std@@YAHQBDI0I@Z 0043aae0 f i CommonPathfindingLib:GraphicsBufferManager.obj
 0002:00016b90       ??$_Try_emplace@ABH$$V@?$map@HPAVGraphicsBuffer@@U?$less@H@std@@V?$allocator@U?$pair@$$CBHPAVGraphicsBuffer@@@std@@@3@@std@@QAE?AU?$pair@V?$_Tree_iterator@V?$_Tree_val@U?$_Tree_simple_types@U?$pair@$$CBHPAVGraphicsBuffer@@@std@@@std@@@std@@@std@@_N@1@ABH@Z 0043ab90 f i CommonPathfindingLib:GraphicsBufferManager.obj
 0002:00016ed0       ??$_Try_emplace@ABV?$basic_string@DU?$char_traits@D@std@@V?$allocator@D@2@@std@@$$V@?$map@V?$basic_string@DU?$char_traits@D@std@@V?$allocator@D@2@@std@@HU?$less@V?$basic_string@DU?$char_traits@D@std@@V?$allocator@D@2@@std@@@2@V?$allocator@U?$pair@$$CBV?$basic_string@DU?$char_traits@D@std@@V?$allocator@D@2@@std@@H@std@@@2@@std@@QAE?AU?$pair@V?$_Tree_iterator@V?$_Tree_val@U?$_Tree_simple_types@U?$pair@$$CBV?$basic_string@DU?$char_traits@D@std@@V?$allocator@D@2@@std@@H@std@@@std@@@std@@@std@@_N@1@ABV?$basic_string@DU?$char_traits@D@std@@V?$allocator@D@2@@1@@Z 0043aed0 f i CommonPathfindingLib:GraphicsBufferManager.obj
 0002:00017210       ??$addressof@PAU?$_Tree_node@U?$pair@$$CBHPAVGraphicsBuffer@@@std@@PAX@std@@@std@@YAPAPAU?$_Tree_node@U?$pair@$$CBHPAVGraphicsBuffer@@@std@@PAX@0@AAPAU10@@Z 0043b210 f i CommonPathfindingLib:GraphicsBufferManager.obj
 0002:00017250       ??$addressof@PAU?$_Tree_node@U?$pair@$$CBV?$basic_string@DU?$char_traits@D@std@@V?$allocator@D@2@@std@@H@std@@PAX@std@@@std@@YAPAPAU?$_Tree_node@U?$pair@$$CBV?$basic_string@DU?$char_traits@D@std@@V?$allocator@D@2@@std@@H@std@@PAX@0@AAPAU10@@Z 0043b250 f i CommonPathfindingLib:GraphicsBufferManager.obj
 0002:00017290       ??$addressof@U?$pair@$$CBHPAVGraphicsBuffer@@@std@@@std@@YAPAU?$pair@$$CBHPAVGraphicsBuffer@@@0@AAU10@@Z 0043b290 f i CommonPathfindingLib:GraphicsBufferManager.obj
 0002:000172d0       ??$addressof@U?$pair@$$CBV?$basic_string@DU?$char_traits@D@std@@V?$allocator@D@2@@std@@H@std@@@std@@YAPAU?$pair@$$CBV?$basic_string@DU?$char_traits@D@std@@V?$allocator@D@2@@std@@H@0@AAU10@@Z 0043b2d0 f i CommonPathfindingLib:GraphicsBufferManager.obj
 0002:00017310       ??$addressof@V?$_Tree_val@U?$_Tree_simple_types@U?$pair@$$CBHPAVGraphicsBuffer@@@std@@@std@@@std@@@std@@YAPAV?$_Tree_val@U?$_Tree_simple_types@U?$pair@$$CBHPAVGraphicsBuffer@@@std@@@std@@@0@AAV10@@Z 0043b310 f i CommonPathfindingLib:GraphicsBufferManager.obj
 0002:00017350       ??$addressof@V?$_Tree_val@U?$_Tree_simple_types@U?$pair@$$CBV?$basic_string@DU?$char_traits@D@std@@V?$allocator@D@2@@std@@H@std@@@std@@@std@@@std@@YAPAV?$_Tree_val@U?$_Tree_simple_types@U?$pair@$$CBV?$basic_string@DU?$char_traits@D@std@@V?$allocator@D@2@@std@@H@std@@@std@@@0@AAV10@@Z 0043b350 f i CommonPathfindingLib:GraphicsBufferManager.obj
 0002:00017390       ??$construct@PAU?$_Tree_node@U?$pair@$$CBHPAVGraphicsBuffer@@@std@@PAX@std@@AAPAU12@@?$_Wrap_alloc@V?$allocator@U?$_Tree_node@U?$pair@$$CBHPAVGraphicsBuffer@@@std@@PAX@std@@@std@@@std@@QAEXPAPAU?$_Tree_node@U?$pair@$$CBHPAVGraphicsBuffer@@@std@@PAX@1@AAPAU21@@Z 0043b390 f i CommonPathfindingLib:GraphicsBufferManager.obj
 0002:00017400       ??$construct@PAU?$_Tree_node@U?$pair@$$CBHPAVGraphicsBuffer@@@std@@PAX@std@@AAPAU12@@?$allocator@U?$_Tree_node@U?$pair@$$CBHPAVGraphicsBuffer@@@std@@PAX@std@@@std@@QAEXPAPAU?$_Tree_node@U?$pair@$$CBHPAVGraphicsBuffer@@@std@@PAX@1@AAPAU21@@Z 0043b400 f i CommonPathfindingLib:GraphicsBufferManager.obj
 0002:000174b0       ??$construct@PAU?$_Tree_node@U?$pair@$$CBHPAVGraphicsBuffer@@@std@@PAX@std@@AAPAU12@@?$allocator_traits@V?$allocator@U?$_Tree_node@U?$pair@$$CBHPAVGraphicsBuffer@@@std@@PAX@std@@@std@@@std@@SAXAAV?$allocator@U?$_Tree_node@U?$pair@$$CBHPAVGraphicsBuffer@@@std@@PAX@std@@@1@PAPAU?$_Tree_node@U?$pair@$$CBHPAVGraphicsBuffer@@@std@@PAX@1@AAPAU31@@Z 0043b4b0 f i CommonPathfindingLib:GraphicsBufferManager.obj
 0002:00017510       ??$construct@PAU?$_Tree_node@U?$pair@$$CBV?$basic_string@DU?$char_traits@D@std@@V?$allocator@D@2@@std@@H@std@@PAX@std@@AAPAU12@@?$_Wrap_alloc@V?$allocator@U?$_Tree_node@U?$pair@$$CBV?$basic_string@DU?$char_traits@D@std@@V?$allocator@D@2@@std@@H@std@@PAX@std@@@std@@@std@@QAEXPAPAU?$_Tree_node@U?$pair@$$CBV?$basic_string@DU?$char_traits@D@std@@V?$allocator@D@2@@std@@H@std@@PAX@1@AAPAU21@@Z 0043b510 f i CommonPathfindingLib:GraphicsBufferManager.obj
 0002:00017580       ??$construct@PAU?$_Tree_node@U?$pair@$$CBV?$basic_string@DU?$char_traits@D@std@@V?$allocator@D@2@@std@@H@std@@PAX@std@@AAPAU12@@?$allocator@U?$_Tree_node@U?$pair@$$CBV?$basic_string@DU?$char_traits@D@std@@V?$allocator@D@2@@std@@H@std@@PAX@std@@@std@@QAEXPAPAU?$_Tree_node@U?$pair@$$CBV?$basic_string@DU?$char_traits@D@std@@V?$allocator@D@2@@std@@H@std@@PAX@1@AAPAU21@@Z 0043b580 f i CommonPathfindingLib:GraphicsBufferManager.obj
 0002:00017630       ??$construct@PAU?$_Tree_node@U?$pair@$$CBV?$basic_string@DU?$char_traits@D@std@@V?$allocator@D@2@@std@@H@std@@PAX@std@@AAPAU12@@?$allocator_traits@V?$allocator@U?$_Tree_node@U?$pair@$$CBV?$basic_string@DU?$char_traits@D@std@@V?$allocator@D@2@@std@@H@std@@PAX@std@@@std@@@std@@SAXAAV?$allocator@U?$_Tree_node@U?$pair@$$CBV?$basic_string@DU?$char_traits@D@std@@V?$allocator@D@2@@std@@H@std@@PAX@std@@@1@PAPAU?$_Tree_node@U?$pair@$$CBV?$basic_string@DU?$char_traits@D@std@@V?$allocator@D@2@@std@@H@std@@PAX@1@AAPAU31@@Z 0043b630 f i CommonPathfindingLib:GraphicsBufferManager.obj
 0002:00017690       ??$construct@U?$pair@$$CBHPAVGraphicsBuffer@@@std@@ABUpiecewise_construct_t@2@V?$tuple@ABH@2@V?$tuple@$$V@2@@?$_Wrap_alloc@V?$allocator@U?$_Tree_node@U?$pair@$$CBHPAVGraphicsBuffer@@@std@@PAX@std@@@std@@@std@@QAEXPAU?$pair@$$CBHPAVGraphicsBuffer@@@1@ABUpiecewise_construct_t@1@$$QAV?$tuple@ABH@1@$$QAV?$tuple@$$V@1@@Z 0043b690 f i CommonPathfindingLib:GraphicsBufferManager.obj
 0002:00017720       ??$construct@U?$pair@$$CBHPAVGraphicsBuffer@@@std@@ABUpiecewise_construct_t@2@V?$tuple@ABH@2@V?$tuple@$$V@2@@?$allocator@U?$_Tree_node@U?$pair@$$CBHPAVGraphicsBuffer@@@std@@PAX@std@@@std@@QAEXPAU?$pair@$$CBHPAVGraphicsBuffer@@@1@ABUpiecewise_construct_t@1@$$QAV?$tuple@ABH@1@$$QAV?$tuple@$$V@1@@Z 0043b720 f i CommonPathfindingLib:GraphicsBufferManager.obj
 0002:00017860       ??$construct@U?$pair@$$CBHPAVGraphicsBuffer@@@std@@ABUpiecewise_construct_t@2@V?$tuple@ABH@2@V?$tuple@$$V@2@@?$allocator_traits@V?$allocator@U?$_Tree_node@U?$pair@$$CBHPAVGraphicsBuffer@@@std@@PAX@std@@@std@@@std@@SAXAAV?$allocator@U?$_Tree_node@U?$pair@$$CBHPAVGraphicsBuffer@@@std@@PAX@std@@@1@PAU?$pair@$$CBHPAVGraphicsBuffer@@@1@ABUpiecewise_construct_t@1@$$QAV?$tuple@ABH@1@$$QAV?$tuple@$$V@1@@Z 0043b860 f i CommonPathfindingLib:GraphicsBufferManager.obj
 0002:000178e0       ??$construct@U?$pair@$$CBV?$basic_string@DU?$char_traits@D@std@@V?$allocator@D@2@@std@@H@std@@ABUpiecewise_construct_t@2@V?$tuple@ABV?$basic_string@DU?$char_traits@D@std@@V?$allocator@D@2@@std@@@2@V?$tuple@$$V@2@@?$_Wrap_alloc@V?$allocator@U?$_Tree_node@U?$pair@$$CBV?$basic_string@DU?$char_traits@D@std@@V?$allocator@D@2@@std@@H@std@@PAX@std@@@std@@@std@@QAEXPAU?$pair@$$CBV?$basic_string@DU?$char_traits@D@std@@V?$allocator@D@2@@std@@H@1@ABUpiecewise_construct_t@1@$$QAV?$tuple@ABV?$basic_string@DU?$char_traits@D@std@@V?$allocator@D@2@@std@@@1@$$QAV?$tuple@$$V@1@@Z 0043b8e0 f i CommonPathfindingLib:GraphicsBufferManager.obj
 0002:00017970       ??$construct@U?$pair@$$CBV?$basic_string@DU?$char_traits@D@std@@V?$allocator@D@2@@std@@H@std@@ABUpiecewise_construct_t@2@V?$tuple@ABV?$basic_string@DU?$char_traits@D@std@@V?$allocator@D@2@@std@@@2@V?$tuple@$$V@2@@?$allocator@U?$_Tree_node@U?$pair@$$CBV?$basic_string@DU?$char_traits@D@std@@V?$allocator@D@2@@std@@H@std@@PAX@std@@@std@@QAEXPAU?$pair@$$CBV?$basic_string@DU?$char_traits@D@std@@V?$allocator@D@2@@std@@H@1@ABUpiecewise_construct_t@1@$$QAV?$tuple@ABV?$basic_string@DU?$char_traits@D@std@@V?$allocator@D@2@@std@@@1@$$QAV?$tuple@$$V@1@@Z 0043b970 f i CommonPathfindingLib:GraphicsBufferManager.obj
 0002:00017ab0       ??$construct@U?$pair@$$CBV?$basic_string@DU?$char_traits@D@std@@V?$allocator@D@2@@std@@H@std@@ABUpiecewise_construct_t@2@V?$tuple@ABV?$basic_string@DU?$char_traits@D@std@@V?$allocator@D@2@@std@@@2@V?$tuple@$$V@2@@?$allocator_traits@V?$allocator@U?$_Tree_node@U?$pair@$$CBV?$basic_string@DU?$char_traits@D@std@@V?$allocator@D@2@@std@@H@std@@PAX@std@@@std@@@std@@SAXAAV?$allocator@U?$_Tree_node@U?$pair@$$CBV?$basic_string@DU?$char_traits@D@std@@V?$allocator@D@2@@std@@H@std@@PAX@std@@@1@PAU?$pair@$$CBV?$basic_string@DU?$char_traits@D@std@@V?$allocator@D@2@@std@@H@1@ABUpiecewise_construct_t@1@$$QAV?$tuple@ABV?$basic_string@DU?$char_traits@D@std@@V?$allocator@D@2@@std@@@1@$$QAV?$tuple@$$V@1@@Z 0043bab0 f i CommonPathfindingLib:GraphicsBufferManager.obj
 0002:00017b30       ??$destroy@PAU?$_Tree_node@U?$pair@$$CBHPAVGraphicsBuffer@@@std@@PAX@std@@@?$_Wrap_alloc@V?$allocator@U?$_Tree_node@U?$pair@$$CBHPAVGraphicsBuffer@@@std@@PAX@std@@@std@@@std@@QAEXPAPAU?$_Tree_node@U?$pair@$$CBHPAVGraphicsBuffer@@@std@@PAX@1@@Z 0043bb30 f i CommonPathfindingLib:GraphicsBufferManager.obj
 0002:00017b90       ??$destroy@PAU?$_Tree_node@U?$pair@$$CBHPAVGraphicsBuffer@@@std@@PAX@std@@@?$allocator@U?$_Tree_node@U?$pair@$$CBHPAVGraphicsBuffer@@@std@@PAX@std@@@std@@QAEXPAPAU?$_Tree_node@U?$pair@$$CBHPAVGraphicsBuffer@@@std@@PAX@1@@Z 0043bb90 f i CommonPathfindingLib:GraphicsBufferManager.obj
 0002:00017bd0       ??$destroy@PAU?$_Tree_node@U?$pair@$$CBHPAVGraphicsBuffer@@@std@@PAX@std@@@?$allocator_traits@V?$allocator@U?$_Tree_node@U?$pair@$$CBHPAVGraphicsBuffer@@@std@@PAX@std@@@std@@@std@@SAXAAV?$allocator@U?$_Tree_node@U?$pair@$$CBHPAVGraphicsBuffer@@@std@@PAX@std@@@1@PAPAU?$_Tree_node@U?$pair@$$CBHPAVGraphicsBuffer@@@std@@PAX@1@@Z 0043bbd0 f i CommonPathfindingLib:GraphicsBufferManager.obj
 0002:00017c20       ??$destroy@PAU?$_Tree_node@U?$pair@$$CBV?$basic_string@DU?$char_traits@D@std@@V?$allocator@D@2@@std@@H@std@@PAX@std@@@?$_Wrap_alloc@V?$allocator@U?$_Tree_node@U?$pair@$$CBV?$basic_string@DU?$char_traits@D@std@@V?$allocator@D@2@@std@@H@std@@PAX@std@@@std@@@std@@QAEXPAPAU?$_Tree_node@U?$pair@$$CBV?$basic_string@DU?$char_traits@D@std@@V?$allocator@D@2@@std@@H@std@@PAX@1@@Z 0043bc20 f i CommonPathfindingLib:GraphicsBufferManager.obj
 0002:00017c80       ??$destroy@PAU?$_Tree_node@U?$pair@$$CBV?$basic_string@DU?$char_traits@D@std@@V?$allocator@D@2@@std@@H@std@@PAX@std@@@?$allocator@U?$_Tree_node@U?$pair@$$CBV?$basic_string@DU?$char_traits@D@std@@V?$allocator@D@2@@std@@H@std@@PAX@std@@@std@@QAEXPAPAU?$_Tree_node@U?$pair@$$CBV?$basic_string@DU?$char_traits@D@std@@V?$allocator@D@2@@std@@H@std@@PAX@1@@Z 0043bc80 f i CommonPathfindingLib:GraphicsBufferManager.obj
 0002:00017cc0       ??$destroy@PAU?$_Tree_node@U?$pair@$$CBV?$basic_string@DU?$char_traits@D@std@@V?$allocator@D@2@@std@@H@std@@PAX@std@@@?$allocator_traits@V?$allocator@U?$_Tree_node@U?$pair@$$CBV?$basic_string@DU?$char_traits@D@std@@V?$allocator@D@2@@std@@H@std@@PAX@std@@@std@@@std@@SAXAAV?$allocator@U?$_Tree_node@U?$pair@$$CBV?$basic_string@DU?$char_traits@D@std@@V?$allocator@D@2@@std@@H@std@@PAX@std@@@1@PAPAU?$_Tree_node@U?$pair@$$CBV?$basic_string@DU?$char_traits@D@std@@V?$allocator@D@2@@std@@H@std@@PAX@1@@Z 0043bcc0 f i CommonPathfindingLib:GraphicsBufferManager.obj
 0002:00017d10       ??$destroy@U?$pair@$$CBHPAVGraphicsBuffer@@@std@@@?$_Wrap_alloc@V?$allocator@U?$_Tree_node@U?$pair@$$CBHPAVGraphicsBuffer@@@std@@PAX@std@@@std@@@std@@QAEXPAU?$pair@$$CBHPAVGraphicsBuffer@@@1@@Z 0043bd10 f i CommonPathfindingLib:GraphicsBufferManager.obj
 0002:00017d70       ??$destroy@U?$pair@$$CBHPAVGraphicsBuffer@@@std@@@?$allocator@U?$_Tree_node@U?$pair@$$CBHPAVGraphicsBuffer@@@std@@PAX@std@@@std@@QAEXPAU?$pair@$$CBHPAVGraphicsBuffer@@@1@@Z 0043bd70 f i CommonPathfindingLib:GraphicsBufferManager.obj
 0002:00017db0       ??$destroy@U?$pair@$$CBHPAVGraphicsBuffer@@@std@@@?$allocator_traits@V?$allocator@U?$_Tree_node@U?$pair@$$CBHPAVGraphicsBuffer@@@std@@PAX@std@@@std@@@std@@SAXAAV?$allocator@U?$_Tree_node@U?$pair@$$CBHPAVGraphicsBuffer@@@std@@PAX@std@@@1@PAU?$pair@$$CBHPAVGraphicsBuffer@@@1@@Z 0043bdb0 f i CommonPathfindingLib:GraphicsBufferManager.obj
 0002:00017e00       ??$destroy@U?$pair@$$CBV?$basic_string@DU?$char_traits@D@std@@V?$allocator@D@2@@std@@H@std@@@?$_Wrap_alloc@V?$allocator@U?$_Tree_node@U?$pair@$$CBV?$basic_string@DU?$char_traits@D@std@@V?$allocator@D@2@@std@@H@std@@PAX@std@@@std@@@std@@QAEXPAU?$pair@$$CBV?$basic_string@DU?$char_traits@D@std@@V?$allocator@D@2@@std@@H@1@@Z 0043be00 f i CommonPathfindingLib:GraphicsBufferManager.obj
 0002:00017e60       ??$destroy@U?$pair@$$CBV?$basic_string@DU?$char_traits@D@std@@V?$allocator@D@2@@std@@H@std@@@?$allocator@U?$_Tree_node@U?$pair@$$CBV?$basic_string@DU?$char_traits@D@std@@V?$allocator@D@2@@std@@H@std@@PAX@std@@@std@@QAEXPAU?$pair@$$CBV?$basic_string@DU?$char_traits@D@std@@V?$allocator@D@2@@std@@H@1@@Z 0043be60 f i CommonPathfindingLib:GraphicsBufferManager.obj
 0002:00017ec0       ??$destroy@U?$pair@$$CBV?$basic_string@DU?$char_traits@D@std@@V?$allocator@D@2@@std@@H@std@@@?$allocator_traits@V?$allocator@U?$_Tree_node@U?$pair@$$CBV?$basic_string@DU?$char_traits@D@std@@V?$allocator@D@2@@std@@H@std@@PAX@std@@@std@@@std@@SAXAAV?$allocator@U?$_Tree_node@U?$pair@$$CBV?$basic_string@DU?$char_traits@D@std@@V?$allocator@D@2@@std@@H@std@@PAX@std@@@1@PAU?$pair@$$CBV?$basic_string@DU?$char_traits@D@std@@V?$allocator@D@2@@std@@H@1@@Z 0043bec0 f i CommonPathfindingLib:GraphicsBufferManager.obj
 0002:00017f10       ??$emplace_hint@ABUpiecewise_construct_t@std@@V?$tuple@ABH@2@V?$tuple@$$V@2@@?$_Tree@V?$_Tmap_traits@HPAVGraphicsBuffer@@U?$less@H@std@@V?$allocator@U?$pair@$$CBHPAVGraphicsBuffer@@@std@@@3@$0A@@std@@@std@@QAE?AV?$_Tree_iterator@V?$_Tree_val@U?$_Tree_simple_types@U?$pair@$$CBHPAVGraphicsBuffer@@@std@@@std@@@std@@@1@V?$_Tree_const_iterator@V?$_Tree_val@U?$_Tree_simple_types@U?$pair@$$CBHPAVGraphicsBuffer@@@std@@@std@@@std@@@1@ABUpiecewise_construct_t@1@$$QAV?$tuple@ABH@1@$$QAV?$tuple@$$V@1@@Z 0043bf10 f i CommonPathfindingLib:GraphicsBufferManager.obj
 0002:00018050       ??$emplace_hint@ABUpiecewise_construct_t@std@@V?$tuple@ABV?$basic_string@DU?$char_traits@D@std@@V?$allocator@D@2@@std@@@2@V?$tuple@$$V@2@@?$_Tree@V?$_Tmap_traits@V?$basic_string@DU?$char_traits@D@std@@V?$allocator@D@2@@std@@HU?$less@V?$basic_string@DU?$char_traits@D@std@@V?$allocator@D@2@@std@@@2@V?$allocator@U?$pair@$$CBV?$basic_string@DU?$char_traits@D@std@@V?$allocator@D@2@@std@@H@std@@@2@$0A@@std@@@std@@QAE?AV?$_Tree_iterator@V?$_Tree_val@U?$_Tree_simple_types@U?$pair@$$CBV?$basic_string@DU?$char_traits@D@std@@V?$allocator@D@2@@std@@H@std@@@std@@@std@@@1@V?$_Tree_const_iterator@V?$_Tree_val@U?$_Tree_simple_types@U?$pair@$$CBV?$basic_string@DU?$char_traits@D@std@@V?$allocator@D@2@@std@@H@std@@@std@@@std@@@1@ABUpiecewise_construct_t@1@$$QAV?$tuple@ABV?$basic_string@DU?$char_traits@D@std@@V?$allocator@D@2@@std@@@1@$$QAV?$tuple@$$V@1@@Z 0043c050 f i CommonPathfindingLib:GraphicsBufferManager.obj
 0002:00018190       ??$forward@AAPAU?$_Tree_node@U?$pair@$$CBHPAVGraphicsBuffer@@@std@@PAX@std@@@std@@YAAAPAU?$_Tree_node@U?$pair@$$CBHPAVGraphicsBuffer@@@std@@PAX@0@AAPAU10@@Z 0043c190 f i CommonPathfindingLib:GraphicsBufferManager.obj
 0002:000181d0       ??$forward@AAPAU?$_Tree_node@U?$pair@$$CBV?$basic_string@DU?$char_traits@D@std@@V?$allocator@D@2@@std@@H@std@@PAX@std@@@std@@YAAAPAU?$_Tree_node@U?$pair@$$CBV?$basic_string@DU?$char_traits@D@std@@V?$allocator@D@2@@std@@H@std@@PAX@0@AAPAU10@@Z 0043c1d0 f i CommonPathfindingLib:GraphicsBufferManager.obj
 0002:00018210       ??$forward@AAU?$_Wrap_alloc@V?$allocator@U?$_Tree_node@U?$pair@$$CBHPAVGraphicsBuffer@@@std@@PAX@std@@@std@@@std@@@std@@YAAAU?$_Wrap_alloc@V?$allocator@U?$_Tree_node@U?$pair@$$CBHPAVGraphicsBuffer@@@std@@PAX@std@@@std@@@0@AAU10@@Z 0043c210 f i CommonPathfindingLib:GraphicsBufferManager.obj
 0002:00018250       ??$forward@AAU?$_Wrap_alloc@V?$allocator@U?$_Tree_node@U?$pair@$$CBV?$basic_string@DU?$char_traits@D@std@@V?$allocator@D@2@@std@@H@std@@PAX@std@@@std@@@std@@@std@@YAAAU?$_Wrap_alloc@V?$allocator@U?$_Tree_node@U?$pair@$$CBV?$basic_string@DU?$char_traits@D@std@@V?$allocator@D@2@@std@@H@std@@PAX@std@@@std@@@0@AAU10@@Z 0043c250 f i CommonPathfindingLib:GraphicsBufferManager.obj
 0002:00018290       ??$forward@AAU?$pair@$$CBHPAVGraphicsBuffer@@@std@@@std@@YAAAU?$pair@$$CBHPAVGraphicsBuffer@@@0@AAU10@@Z 0043c290 f i CommonPathfindingLib:GraphicsBufferManager.obj
 0002:000182d0       ??$forward@AAU?$pair@$$CBV?$basic_string@DU?$char_traits@D@std@@V?$allocator@D@2@@std@@H@std@@@std@@YAAAU?$pair@$$CBV?$basic_string@DU?$char_traits@D@std@@V?$allocator@D@2@@std@@H@0@AAU10@@Z 0043c2d0 f i CommonPathfindingLib:GraphicsBufferManager.obj
 0002:00018310       ??$forward@AAV?$_Tree_iterator@V?$_Tree_val@U?$_Tree_simple_types@U?$pair@$$CBHPAVGraphicsBuffer@@@std@@@std@@@std@@@std@@@std@@YAAAV?$_Tree_iterator@V?$_Tree_val@U?$_Tree_simple_types@U?$pair@$$CBHPAVGraphicsBuffer@@@std@@@std@@@std@@@0@AAV10@@Z 0043c310 f i CommonPathfindingLib:GraphicsBufferManager.obj
 0002:00018350       ??$forward@AAV?$_Tree_iterator@V?$_Tree_val@U?$_Tree_simple_types@U?$pair@$$CBV?$basic_string@DU?$char_traits@D@std@@V?$allocator@D@2@@std@@H@std@@@std@@@std@@@std@@@std@@YAAAV?$_Tree_iterator@V?$_Tree_val@U?$_Tree_simple_types@U?$pair@$$CBV?$basic_string@DU?$char_traits@D@std@@V?$allocator@D@2@@std@@H@std@@@std@@@std@@@0@AAV10@@Z 0043c350 f i CommonPathfindingLib:GraphicsBufferManager.obj
 0002:00018390       ??$forward@ABH@std@@YAABHABH@Z 0043c390 f i CommonPathfindingLib:GraphicsBufferManager.obj
 0002:000183d0       ??$forward@ABU?$less@H@std@@@std@@YAABU?$less@H@0@ABU10@@Z 0043c3d0 f i CommonPathfindingLib:GraphicsBufferManager.obj
 0002:00018410       ??$forward@ABU?$less@V?$basic_string@DU?$char_traits@D@std@@V?$allocator@D@2@@std@@@std@@@std@@YAABU?$less@V?$basic_string@DU?$char_traits@D@std@@V?$allocator@D@2@@std@@@0@ABU10@@Z 0043c410 f i CommonPathfindingLib:GraphicsBufferManager.obj
 0002:00018450       ??$forward@ABUpiecewise_construct_t@std@@@std@@YAABUpiecewise_construct_t@0@ABU10@@Z 0043c450 f i CommonPathfindingLib:GraphicsBufferManager.obj
 0002:00018490       ??$forward@ABV?$basic_string@DU?$char_traits@D@std@@V?$allocator@D@2@@std@@@std@@YAABV?$basic_string@DU?$char_traits@D@std@@V?$allocator@D@2@@0@ABV10@@Z 0043c490 f i CommonPathfindingLib:GraphicsBufferManager.obj
 0002:000184d0       ??$forward@U?$_Wrap_alloc@V?$allocator@D@std@@@std@@@std@@YA$$QAU?$_Wrap_alloc@V?$allocator@D@std@@@0@AAU10@@Z 0043c4d0 f i CommonPathfindingLib:GraphicsBufferManager.obj
 0002:00018510       ??$forward@U_Zero_then_variadic_args_t@std@@@std@@YA$$QAU_Zero_then_variadic_args_t@0@AAU10@@Z 0043c510 f i CommonPathfindingLib:GraphicsBufferManager.obj
 0002:00018550       ??$forward@V?$_Tree_iterator@V?$_Tree_val@U?$_Tree_simple_types@U?$pair@$$CBHPAVGraphicsBuffer@@@std@@@std@@@std@@@std@@@std@@YA$$QAV?$_Tree_iterator@V?$_Tree_val@U?$_Tree_simple_types@U?$pair@$$CBHPAVGraphicsBuffer@@@std@@@std@@@std@@@0@AAV10@@Z 0043c550 f i CommonPathfindingLib:GraphicsBufferManager.obj
 0002:00018590       ??$forward@V?$_Tree_iterator@V?$_Tree_val@U?$_Tree_simple_types@U?$pair@$$CBV?$basic_string@DU?$char_traits@D@std@@V?$allocator@D@2@@std@@H@std@@@std@@@std@@@std@@@std@@YA$$QAV?$_Tree_iterator@V?$_Tree_val@U?$_Tree_simple_types@U?$pair@$$CBV?$basic_string@DU?$char_traits@D@std@@V?$allocator@D@2@@std@@H@std@@@std@@@std@@@0@AAV10@@Z 0043c590 f i CommonPathfindingLib:GraphicsBufferManager.obj
 0002:000185d0       ??$forward@V?$allocator@D@std@@@std@@YA$$QAV?$allocator@D@0@AAV10@@Z 0043c5d0 f i CommonPathfindingLib:GraphicsBufferManager.obj
 0002:00018610       ??$forward@V?$tuple@$$V@std@@@std@@YA$$QAV?$tuple@$$V@0@AAV10@@Z 0043c610 f i CommonPathfindingLib:GraphicsBufferManager.obj
 0002:00018650       ??$forward@V?$tuple@ABH@std@@@std@@YA$$QAV?$tuple@ABH@0@AAV10@@Z 0043c650 f i CommonPathfindingLib:GraphicsBufferManager.obj
 0002:00018690       ??$forward@V?$tuple@ABV?$basic_string@DU?$char_traits@D@std@@V?$allocator@D@2@@std@@@std@@@std@@YA$$QAV?$tuple@ABV?$basic_string@DU?$char_traits@D@std@@V?$allocator@D@2@@std@@@0@AAV10@@Z 0043c690 f i CommonPathfindingLib:GraphicsBufferManager.obj
 0002:000186d0       ??$forward@_N@std@@YA$$QA_NAA_N@Z 0043c6d0 f i CommonPathfindingLib:GraphicsBufferManager.obj
 0002:00018710       ??$forward_as_tuple@$$V@std@@YA?AV?$tuple@$$V@0@XZ 0043c710 f i CommonPathfindingLib:GraphicsBufferManager.obj
 0002:00018760       ??$forward_as_tuple@ABH@std@@YA?AV?$tuple@ABH@0@ABH@Z 0043c760 f i CommonPathfindingLib:GraphicsBufferManager.obj
 0002:00018800       ??$forward_as_tuple@ABV?$basic_string@DU?$char_traits@D@std@@V?$allocator@D@2@@std@@@std@@YA?AV?$tuple@ABV?$basic_string@DU?$char_traits@D@std@@V?$allocator@D@2@@std@@@0@ABV?$basic_string@DU?$char_traits@D@std@@V?$allocator@D@2@@0@@Z 0043c800 f i CommonPathfindingLib:GraphicsBufferManager.obj
 0002:000188a0       ??$get@$0A@ABH@std@@YAABH$$QAV?$tuple@ABH@0@@Z 0043c8a0 f i CommonPathfindingLib:GraphicsBufferManager.obj
 0002:000188f0       ??$get@$0A@ABV?$basic_string@DU?$char_traits@D@std@@V?$allocator@D@2@@std@@@std@@YAABV?$basic_string@DU?$char_traits@D@std@@V?$allocator@D@2@@0@$$QAV?$tuple@ABV?$basic_string@DU?$char_traits@D@std@@V?$allocator@D@2@@std@@@0@@Z 0043c8f0 f i CommonPathfindingLib:GraphicsBufferManager.obj
 0002:00018940       ??$move@AAD@std@@YA$$QADAAD@Z 0043c940 f i CommonPathfindingLib:GraphicsBufferManager.obj
 0002:00018980       ??$move@AAU?$_Wrap_alloc@V?$allocator@D@std@@@std@@@std@@YA$$QAU?$_Wrap_alloc@V?$allocator@D@std@@@0@AAU10@@Z 0043c980 f i CommonPathfindingLib:GraphicsBufferManager.obj
 0002:000189c0       ??$move@AAV?$tuple@ABH@std@@@std@@YA$$QAV?$tuple@ABH@0@AAV10@@Z 0043c9c0 f i CommonPathfindingLib:GraphicsBufferManager.obj
 0002:00018a00       ??$move@AAV?$tuple@ABV?$basic_string@DU?$char_traits@D@std@@V?$allocator@D@2@@std@@@std@@@std@@YA$$QAV?$tuple@ABV?$basic_string@DU?$char_traits@D@std@@V?$allocator@D@2@@std@@@0@AAV10@@Z 0043ca00 f i CommonPathfindingLib:GraphicsBufferManager.obj
 0002:00018a40       ??$swap@DX@std@@YAXAAD0@Z  0043ca40 f i CommonPathfindingLib:GraphicsBufferManager.obj
 0002:00018b00       ??$try_emplace@$$V@?$map@HPAVGraphicsBuffer@@U?$less@H@std@@V?$allocator@U?$pair@$$CBHPAVGraphicsBuffer@@@std@@@3@@std@@QAE?AU?$pair@V?$_Tree_iterator@V?$_Tree_val@U?$_Tree_simple_types@U?$pair@$$CBHPAVGraphicsBuffer@@@std@@@std@@@std@@@std@@_N@1@ABH@Z 0043cb00 f i CommonPathfindingLib:GraphicsBufferManager.obj
 0002:00018b80       ??$try_emplace@$$V@?$map@V?$basic_string@DU?$char_traits@D@std@@V?$allocator@D@2@@std@@HU?$less@V?$basic_string@DU?$char_traits@D@std@@V?$allocator@D@2@@std@@@2@V?$allocator@U?$pair@$$CBV?$basic_string@DU?$char_traits@D@std@@V?$allocator@D@2@@std@@H@std@@@2@@std@@QAE?AU?$pair@V?$_Tree_iterator@V?$_Tree_val@U?$_Tree_simple_types@U?$pair@$$CBV?$basic_string@DU?$char_traits@D@std@@V?$allocator@D@2@@std@@H@std@@@std@@@std@@@std@@_N@1@ABV?$basic_string@DU?$char_traits@D@std@@V?$allocator@D@2@@1@@Z 0043cb80 f i CommonPathfindingLib:GraphicsBufferManager.obj
 0002:00018c00       ??0?$_Iterator012@Ubidirectional_iterator_tag@std@@U?$pair@$$CBHPAVGraphicsBuffer@@@2@HPBU32@ABU32@U_Iterator_base12@2@@std@@QAE@$$QAU01@@Z 0043cc00 f i CommonPathfindingLib:GraphicsBufferManager.obj
 0002:00018c60       ??0?$_Iterator012@Ubidirectional_iterator_tag@std@@U?$pair@$$CBHPAVGraphicsBuffer@@@2@HPBU32@ABU32@U_Iterator_base12@2@@std@@QAE@ABU01@@Z 0043cc60 f i CommonPathfindingLib:GraphicsBufferManager.obj
 0002:00018cc0       ??0?$_Iterator012@Ubidirectional_iterator_tag@std@@U?$pair@$$CBHPAVGraphicsBuffer@@@2@HPBU32@ABU32@U_Iterator_base12@2@@std@@QAE@XZ 0043ccc0 f i CommonPathfindingLib:GraphicsBufferManager.obj
 0002:00018d20       ??0?$_Iterator012@Ubidirectional_iterator_tag@std@@U?$pair@$$CBV?$basic_string@DU?$char_traits@D@std@@V?$allocator@D@2@@std@@H@2@HPBU32@ABU32@U_Iterator_base12@2@@std@@QAE@$$QAU01@@Z 0043cd20 f i CommonPathfindingLib:GraphicsBufferManager.obj
 0002:00018d80       ??0?$_Iterator012@Ubidirectional_iterator_tag@std@@U?$pair@$$CBV?$basic_string@DU?$char_traits@D@std@@V?$allocator@D@2@@std@@H@2@HPBU32@ABU32@U_Iterator_base12@2@@std@@QAE@ABU01@@Z 0043cd80 f i CommonPathfindingLib:GraphicsBufferManager.obj
 0002:00018de0       ??0?$_Iterator012@Ubidirectional_iterator_tag@std@@U?$pair@$$CBV?$basic_string@DU?$char_traits@D@std@@V?$allocator@D@2@@std@@H@2@HPBU32@ABU32@U_Iterator_base12@2@@std@@QAE@XZ 0043cde0 f i CommonPathfindingLib:GraphicsBufferManager.obj
 0002:00018e40       ??0?$_Tree@V?$_Tmap_traits@HPAVGraphicsBuffer@@U?$less@H@std@@V?$allocator@U?$pair@$$CBHPAVGraphicsBuffer@@@std@@@3@$0A@@std@@@std@@QAE@ABU?$less@H@1@@Z 0043ce40 f i CommonPathfindingLib:GraphicsBufferManager.obj
 0002:00018ea0       ??0?$_Tree@V?$_Tmap_traits@V?$basic_string@DU?$char_traits@D@std@@V?$allocator@D@2@@std@@HU?$less@V?$basic_string@DU?$char_traits@D@std@@V?$allocator@D@2@@std@@@2@V?$allocator@U?$pair@$$CBV?$basic_string@DU?$char_traits@D@std@@V?$allocator@D@2@@std@@H@std@@@2@$0A@@std@@@std@@QAE@ABU?$less@V?$basic_string@DU?$char_traits@D@std@@V?$allocator@D@2@@std@@@1@@Z 0043cea0 f i CommonPathfindingLib:GraphicsBufferManager.obj
 0002:00018f00       ??0?$_Tree_comp_alloc@V?$_Tmap_traits@HPAVGraphicsBuffer@@U?$less@H@std@@V?$allocator@U?$pair@$$CBHPAVGraphicsBuffer@@@std@@@3@$0A@@std@@@std@@QAE@ABU?$less@H@1@@Z 0043cf00 f i CommonPathfindingLib:GraphicsBufferManager.obj
 0002:00018fc0       ??0?$_Tree_comp_alloc@V?$_Tmap_traits@V?$basic_string@DU?$char_traits@D@std@@V?$allocator@D@2@@std@@HU?$less@V?$basic_string@DU?$char_traits@D@std@@V?$allocator@D@2@@std@@@2@V?$allocator@U?$pair@$$CBV?$basic_string@DU?$char_traits@D@std@@V?$allocator@D@2@@std@@H@std@@@2@$0A@@std@@@std@@QAE@ABU?$less@V?$basic_string@DU?$char_traits@D@std@@V?$allocator@D@2@@std@@@1@@Z 0043cfc0 f i CommonPathfindingLib:GraphicsBufferManager.obj
 0002:00019080       ??0?$_Tree_const_iterator@V?$_Tree_val@U?$_Tree_simple_types@U?$pair@$$CBHPAVGraphicsBuffer@@@std@@@std@@@std@@@std@@QAE@$$QAV01@@Z 0043d080 f i CommonPathfindingLib:GraphicsBufferManager.obj
 0002:000190e0       ??0?$_Tree_const_iterator@V?$_Tree_val@U?$_Tree_simple_types@U?$pair@$$CBHPAVGraphicsBuffer@@@std@@@std@@@std@@@std@@QAE@ABV01@@Z 0043d0e0 f i CommonPathfindingLib:GraphicsBufferManager.obj
 0002:00019140       ??0?$_Tree_const_iterator@V?$_Tree_val@U?$_Tree_simple_types@U?$pair@$$CBHPAVGraphicsBuffer@@@std@@@std@@@std@@@std@@QAE@PAU?$_Tree_node@U?$pair@$$CBHPAVGraphicsBuffer@@@std@@PAX@1@PBV?$_Tree_val@U?$_Tree_simple_types@U?$pair@$$CBHPAVGraphicsBuffer@@@std@@@std@@@1@@Z 0043d140 f i CommonPathfindingLib:GraphicsBufferManager.obj
 0002:000191a0       ??0?$_Tree_const_iterator@V?$_Tree_val@U?$_Tree_simple_types@U?$pair@$$CBHPAVGraphicsBuffer@@@std@@@std@@@std@@@std@@QAE@XZ 0043d1a0 f i CommonPathfindingLib:GraphicsBufferManager.obj
 0002:00019200       ??0?$_Tree_const_iterator@V?$_Tree_val@U?$_Tree_simple_types@U?$pair@$$CBV?$basic_string@DU?$char_traits@D@std@@V?$allocator@D@2@@std@@H@std@@@std@@@std@@@std@@QAE@$$QAV01@@Z 0043d200 f i CommonPathfindingLib:GraphicsBufferManager.obj
 0002:00019260       ??0?$_Tree_const_iterator@V?$_Tree_val@U?$_Tree_simple_types@U?$pair@$$CBV?$basic_string@DU?$char_traits@D@std@@V?$allocator@D@2@@std@@H@std@@@std@@@std@@@std@@QAE@ABV01@@Z 0043d260 f i CommonPathfindingLib:GraphicsBufferManager.obj
 0002:000192c0       ??0?$_Tree_const_iterator@V?$_Tree_val@U?$_Tree_simple_types@U?$pair@$$CBV?$basic_string@DU?$char_traits@D@std@@V?$allocator@D@2@@std@@H@std@@@std@@@std@@@std@@QAE@PAU?$_Tree_node@U?$pair@$$CBV?$basic_string@DU?$char_traits@D@std@@V?$allocator@D@2@@std@@H@std@@PAX@1@PBV?$_Tree_val@U?$_Tree_simple_types@U?$pair@$$CBV?$basic_string@DU?$char_traits@D@std@@V?$allocator@D@2@@std@@H@std@@@std@@@1@@Z 0043d2c0 f i CommonPathfindingLib:GraphicsBufferManager.obj
 0002:00019320       ??0?$_Tree_const_iterator@V?$_Tree_val@U?$_Tree_simple_types@U?$pair@$$CBV?$basic_string@DU?$char_traits@D@std@@V?$allocator@D@2@@std@@H@std@@@std@@@std@@@std@@QAE@XZ 0043d320 f i CommonPathfindingLib:GraphicsBufferManager.obj
 0002:00019380       ??0?$_Tree_iterator@V?$_Tree_val@U?$_Tree_simple_types@U?$pair@$$CBHPAVGraphicsBuffer@@@std@@@std@@@std@@@std@@QAE@$$QAV01@@Z 0043d380 f i CommonPathfindingLib:GraphicsBufferManager.obj
 0002:000193e0       ??0?$_Tree_iterator@V?$_Tree_val@U?$_Tree_simple_types@U?$pair@$$CBHPAVGraphicsBuffer@@@std@@@std@@@std@@@std@@QAE@ABV01@@Z 0043d3e0 f i CommonPathfindingLib:GraphicsBufferManager.obj
 0002:00019440       ??0?$_Tree_iterator@V?$_Tree_val@U?$_Tree_simple_types@U?$pair@$$CBHPAVGraphicsBuffer@@@std@@@std@@@std@@@std@@QAE@PAU?$_Tree_node@U?$pair@$$CBHPAVGraphicsBuffer@@@std@@PAX@1@PBV?$_Tree_val@U?$_Tree_simple_types@U?$pair@$$CBHPAVGraphicsBuffer@@@std@@@std@@@1@@Z 0043d440 f i CommonPathfindingLib:GraphicsBufferManager.obj
 0002:000194a0       ??0?$_Tree_iterator@V?$_Tree_val@U?$_Tree_simple_types@U?$pair@$$CBHPAVGraphicsBuffer@@@std@@@std@@@std@@@std@@QAE@XZ 0043d4a0 f i CommonPathfindingLib:GraphicsBufferManager.obj
 0002:00019500       ??0?$_Tree_iterator@V?$_Tree_val@U?$_Tree_simple_types@U?$pair@$$CBV?$basic_string@DU?$char_traits@D@std@@V?$allocator@D@2@@std@@H@std@@@std@@@std@@@std@@QAE@$$QAV01@@Z 0043d500 f i CommonPathfindingLib:GraphicsBufferManager.obj
 0002:00019560       ??0?$_Tree_iterator@V?$_Tree_val@U?$_Tree_simple_types@U?$pair@$$CBV?$basic_string@DU?$char_traits@D@std@@V?$allocator@D@2@@std@@H@std@@@std@@@std@@@std@@QAE@ABV01@@Z 0043d560 f i CommonPathfindingLib:GraphicsBufferManager.obj
 0002:000195c0       ??0?$_Tree_iterator@V?$_Tree_val@U?$_Tree_simple_types@U?$pair@$$CBV?$basic_string@DU?$char_traits@D@std@@V?$allocator@D@2@@std@@H@std@@@std@@@std@@@std@@QAE@PAU?$_Tree_node@U?$pair@$$CBV?$basic_string@DU?$char_traits@D@std@@V?$allocator@D@2@@std@@H@std@@PAX@1@PBV?$_Tree_val@U?$_Tree_simple_types@U?$pair@$$CBV?$basic_string@DU?$char_traits@D@std@@V?$allocator@D@2@@std@@H@std@@@std@@@1@@Z 0043d5c0 f i CommonPathfindingLib:GraphicsBufferManager.obj
 0002:00019620       ??0?$_Tree_iterator@V?$_Tree_val@U?$_Tree_simple_types@U?$pair@$$CBV?$basic_string@DU?$char_traits@D@std@@V?$allocator@D@2@@std@@H@std@@@std@@@std@@@std@@QAE@XZ 0043d620 f i CommonPathfindingLib:GraphicsBufferManager.obj
 0002:00019680       ??0?$_Tree_unchecked_const_iterator@V?$_Tree_val@U?$_Tree_simple_types@U?$pair@$$CBHPAVGraphicsBuffer@@@std@@@std@@@std@@U_Iterator_base12@2@@std@@QAE@$$QAV01@@Z 0043d680 f i CommonPathfindingLib:GraphicsBufferManager.obj
 0002:000196f0       ??0?$_Tree_unchecked_const_iterator@V?$_Tree_val@U?$_Tree_simple_types@U?$pair@$$CBHPAVGraphicsBuffer@@@std@@@std@@@std@@U_Iterator_base12@2@@std@@QAE@ABV01@@Z 0043d6f0 f i CommonPathfindingLib:GraphicsBufferManager.obj
 0002:00019760       ??0?$_Tree_unchecked_const_iterator@V?$_Tree_val@U?$_Tree_simple_types@U?$pair@$$CBHPAVGraphicsBuffer@@@std@@@std@@@std@@U_Iterator_base12@2@@std@@QAE@PAU?$_Tree_node@U?$pair@$$CBHPAVGraphicsBuffer@@@std@@PAX@1@PBV?$_Tree_val@U?$_Tree_simple_types@U?$pair@$$CBHPAVGraphicsBuffer@@@std@@@std@@@1@@Z 0043d760 f i CommonPathfindingLib:GraphicsBufferManager.obj
 0002:00019820       ??0?$_Tree_unchecked_const_iterator@V?$_Tree_val@U?$_Tree_simple_types@U?$pair@$$CBHPAVGraphicsBuffer@@@std@@@std@@@std@@U_Iterator_base12@2@@std@@QAE@XZ 0043d820 f i CommonPathfindingLib:GraphicsBufferManager.obj
 0002:00019880       ??0?$_Tree_unchecked_const_iterator@V?$_Tree_val@U?$_Tree_simple_types@U?$pair@$$CBV?$basic_string@DU?$char_traits@D@std@@V?$allocator@D@2@@std@@H@std@@@std@@@std@@U_Iterator_base12@2@@std@@QAE@$$QAV01@@Z 0043d880 f i CommonPathfindingLib:GraphicsBufferManager.obj
 0002:000198f0       ??0?$_Tree_unchecked_const_iterator@V?$_Tree_val@U?$_Tree_simple_types@U?$pair@$$CBV?$basic_string@DU?$char_traits@D@std@@V?$allocator@D@2@@std@@H@std@@@std@@@std@@U_Iterator_base12@2@@std@@QAE@ABV01@@Z 0043d8f0 f i CommonPathfindingLib:GraphicsBufferManager.obj
 0002:00019960       ??0?$_Tree_unchecked_const_iterator@V?$_Tree_val@U?$_Tree_simple_types@U?$pair@$$CBV?$basic_string@DU?$char_traits@D@std@@V?$allocator@D@2@@std@@H@std@@@std@@@std@@U_Iterator_base12@2@@std@@QAE@PAU?$_Tree_node@U?$pair@$$CBV?$basic_string@DU?$char_traits@D@std@@V?$allocator@D@2@@std@@H@std@@PAX@1@PBV?$_Tree_val@U?$_Tree_simple_types@U?$pair@$$CBV?$basic_string@DU?$char_traits@D@std@@V?$allocator@D@2@@std@@H@std@@@std@@@1@@Z 0043d960 f i CommonPathfindingLib:GraphicsBufferManager.obj
 0002:00019a20       ??0?$_Tree_unchecked_const_iterator@V?$_Tree_val@U?$_Tree_simple_types@U?$pair@$$CBV?$basic_string@DU?$char_traits@D@std@@V?$allocator@D@2@@std@@H@std@@@std@@@std@@U_Iterator_base12@2@@std@@QAE@XZ 0043da20 f i CommonPathfindingLib:GraphicsBufferManager.obj
 0002:00019a80       ??0?$_Tree_val@U?$_Tree_simple_types@U?$pair@$$CBHPAVGraphicsBuffer@@@std@@@std@@@std@@QAE@XZ 0043da80 f i CommonPathfindingLib:GraphicsBufferManager.obj
 0002:00019af0       ??0?$_Tree_val@U?$_Tree_simple_types@U?$pair@$$CBV?$basic_string@DU?$char_traits@D@std@@V?$allocator@D@2@@std@@H@std@@@std@@@std@@QAE@XZ 0043daf0 f i CommonPathfindingLib:GraphicsBufferManager.obj
 0002:00019b60       ??0?$_Wrap_alloc@V?$allocator@D@std@@@std@@QAE@$$QAU01@@Z 0043db60 f i CommonPathfindingLib:GraphicsBufferManager.obj
 0002:00019bd0       ??0?$_Wrap_alloc@V?$allocator@U?$_Tree_node@U?$pair@$$CBHPAVGraphicsBuffer@@@std@@PAX@std@@@std@@@std@@QAE@XZ 0043dbd0 f i CommonPathfindingLib:GraphicsBufferManager.obj
 0002:00019c30       ??0?$_Wrap_alloc@V?$allocator@U?$_Tree_node@U?$pair@$$CBV?$basic_string@DU?$char_traits@D@std@@V?$allocator@D@2@@std@@H@std@@PAX@std@@@std@@@std@@QAE@XZ 0043dc30 f i CommonPathfindingLib:GraphicsBufferManager.obj
 0002:00019c90       ??0?$allocator@D@std@@QAE@ABV01@@Z 0043dc90 f i CommonPathfindingLib:GraphicsBufferManager.obj
 0002:00019cd0       ??0?$allocator@U?$_Tree_node@U?$pair@$$CBHPAVGraphicsBuffer@@@std@@PAX@std@@@std@@QAE@XZ 0043dcd0 f i CommonPathfindingLib:GraphicsBufferManager.obj
 0002:00019d10       ??0?$allocator@U?$_Tree_node@U?$pair@$$CBV?$basic_string@DU?$char_traits@D@std@@V?$allocator@D@2@@std@@H@std@@PAX@std@@@std@@QAE@XZ 0043dd10 f i CommonPathfindingLib:GraphicsBufferManager.obj
 0002:00019d50       ??0?$basic_string@DU?$char_traits@D@std@@V?$allocator@D@2@@std@@QAE@ABV01@@Z 0043dd50 f i CommonPathfindingLib:GraphicsBufferManager.obj
 0002:00019e30       ??0?$map@HPAVGraphicsBuffer@@U?$less@H@std@@V?$allocator@U?$pair@$$CBHPAVGraphicsBuffer@@@std@@@3@@std@@QAE@XZ 0043de30 f i CommonPathfindingLib:GraphicsBufferManager.obj
 0002:00019e90       ??0?$map@V?$basic_string@DU?$char_traits@D@std@@V?$allocator@D@2@@std@@HU?$less@V?$basic_string@DU?$char_traits@D@std@@V?$allocator@D@2@@std@@@2@V?$allocator@U?$pair@$$CBV?$basic_string@DU?$char_traits@D@std@@V?$allocator@D@2@@std@@H@std@@@2@@std@@QAE@XZ 0043de90 f i CommonPathfindingLib:GraphicsBufferManager.obj
 0002:00019ef0       ??0?$tuple@$$V@std@@QAE@ABV01@@Z 0043def0 f i CommonPathfindingLib:GraphicsBufferManager.obj
 0002:00019f30       ??0?$tuple@$$V@std@@QAE@XZ 0043df30 f i CommonPathfindingLib:GraphicsBufferManager.obj
 0002:00019f70       ??0?$tuple@ABH@std@@QAE@$$QAV01@@Z 0043df70 f i CommonPathfindingLib:GraphicsBufferManager.obj
 0002:00019fe0       ??0?$tuple@ABV?$basic_string@DU?$char_traits@D@std@@V?$allocator@D@2@@std@@@std@@QAE@$$QAV01@@Z 0043dfe0 f i CommonPathfindingLib:GraphicsBufferManager.obj
 0002:0001a050       ??0GraphicsBufferManager@@QAE@XZ 0043e050 f   CommonPathfindingLib:GraphicsBufferManager.obj
 0002:0001a100       ??0_Iterator_base12@std@@QAE@ABU01@@Z 0043e100 f i CommonPathfindingLib:GraphicsBufferManager.obj
 0002:0001a180       ??1?$_Compressed_pair@U?$_Wrap_alloc@V?$allocator@U?$_Tree_node@U?$pair@$$CBHPAVGraphicsBuffer@@@std@@PAX@std@@@std@@@std@@V?$_Tree_val@U?$_Tree_simple_types@U?$pair@$$CBHPAVGraphicsBuffer@@@std@@@std@@@2@$00@std@@QAE@XZ 0043e180 f i CommonPathfindingLib:GraphicsBufferManager.obj
 0002:0001a1d0       ??1?$_Compressed_pair@U?$_Wrap_alloc@V?$allocator@U?$_Tree_node@U?$pair@$$CBV?$basic_string@DU?$char_traits@D@std@@V?$allocator@D@2@@std@@H@std@@PAX@std@@@std@@@std@@V?$_Tree_val@U?$_Tree_simple_types@U?$pair@$$CBV?$basic_string@DU?$char_traits@D@std@@V?$allocator@D@2@@std@@H@std@@@std@@@2@$00@std@@QAE@XZ 0043e1d0 f i CommonPathfindingLib:GraphicsBufferManager.obj
 0002:0001a220       ??1?$_Compressed_pair@U?$less@H@std@@V?$_Compressed_pair@U?$_Wrap_alloc@V?$allocator@U?$_Tree_node@U?$pair@$$CBHPAVGraphicsBuffer@@@std@@PAX@std@@@std@@@std@@V?$_Tree_val@U?$_Tree_simple_types@U?$pair@$$CBHPAVGraphicsBuffer@@@std@@@std@@@2@$00@2@$00@std@@QAE@XZ 0043e220 f i CommonPathfindingLib:GraphicsBufferManager.obj
 0002:0001a270       ??1?$_Compressed_pair@U?$less@V?$basic_string@DU?$char_traits@D@std@@V?$allocator@D@2@@std@@@std@@V?$_Compressed_pair@U?$_Wrap_alloc@V?$allocator@U?$_Tree_node@U?$pair@$$CBV?$basic_string@DU?$char_traits@D@std@@V?$allocator@D@2@@std@@H@std@@PAX@std@@@std@@@std@@V?$_Tree_val@U?$_Tree_simple_types@U?$pair@$$CBV?$basic_string@DU?$char_traits@D@std@@V?$allocator@D@2@@std@@H@std@@@std@@@2@$00@2@$00@std@@QAE@XZ 0043e270 f i CommonPathfindingLib:GraphicsBufferManager.obj
 0002:0001a2c0       ??1?$_Iterator012@Ubidirectional_iterator_tag@std@@U?$pair@$$CBHPAVGraphicsBuffer@@@2@HPBU32@ABU32@U_Iterator_base12@2@@std@@QAE@XZ 0043e2c0 f i CommonPathfindingLib:GraphicsBufferManager.obj
 0002:0001a310       ??1?$_Iterator012@Ubidirectional_iterator_tag@std@@U?$pair@$$CBV?$basic_string@DU?$char_traits@D@std@@V?$allocator@D@2@@std@@H@2@HPBU32@ABU32@U_Iterator_base12@2@@std@@QAE@XZ 0043e310 f i CommonPathfindingLib:GraphicsBufferManager.obj
 0002:0001a360       ??1?$_Tree@V?$_Tmap_traits@HPAVGraphicsBuffer@@U?$less@H@std@@V?$allocator@U?$pair@$$CBHPAVGraphicsBuffer@@@std@@@3@$0A@@std@@@std@@QAE@XZ 0043e360 f i CommonPathfindingLib:GraphicsBufferManager.obj
 0002:0001a3f0       ??1?$_Tree@V?$_Tmap_traits@V?$basic_string@DU?$char_traits@D@std@@V?$allocator@D@2@@std@@HU?$less@V?$basic_string@DU?$char_traits@D@std@@V?$allocator@D@2@@std@@@2@V?$allocator@U?$pair@$$CBV?$basic_string@DU?$char_traits@D@std@@V?$allocator@D@2@@std@@H@std@@@2@$0A@@std@@@std@@QAE@XZ 0043e3f0 f i CommonPathfindingLib:GraphicsBufferManager.obj
 0002:0001a480       ??1?$_Tree_comp_alloc@V?$_Tmap_traits@HPAVGraphicsBuffer@@U?$less@H@std@@V?$allocator@U?$pair@$$CBHPAVGraphicsBuffer@@@std@@@3@$0A@@std@@@std@@QAE@XZ 0043e480 f i CommonPathfindingLib:GraphicsBufferManager.obj
 0002:0001a530       ??1?$_Tree_comp_alloc@V?$_Tmap_traits@V?$basic_string@DU?$char_traits@D@std@@V?$allocator@D@2@@std@@HU?$less@V?$basic_string@DU?$char_traits@D@std@@V?$allocator@D@2@@std@@@2@V?$allocator@U?$pair@$$CBV?$basic_string@DU?$char_traits@D@std@@V?$allocator@D@2@@std@@H@std@@@2@$0A@@std@@@std@@QAE@XZ 0043e530 f i CommonPathfindingLib:GraphicsBufferManager.obj
 0002:0001a5e0       ??1?$_Tree_const_iterator@V?$_Tree_val@U?$_Tree_simple_types@U?$pair@$$CBHPAVGraphicsBuffer@@@std@@@std@@@std@@@std@@QAE@XZ 0043e5e0 f i CommonPathfindingLib:GraphicsBufferManager.obj
 0002:0001a630       ??1?$_Tree_const_iterator@V?$_Tree_val@U?$_Tree_simple_types@U?$pair@$$CBV?$basic_string@DU?$char_traits@D@std@@V?$allocator@D@2@@std@@H@std@@@std@@@std@@@std@@QAE@XZ 0043e630 f i CommonPathfindingLib:GraphicsBufferManager.obj
 0002:0001a680       ??1?$_Tree_iterator@V?$_Tree_val@U?$_Tree_simple_types@U?$pair@$$CBHPAVGraphicsBuffer@@@std@@@std@@@std@@@std@@QAE@XZ 0043e680 f i CommonPathfindingLib:GraphicsBufferManager.obj
 0002:0001a6d0       ??1?$_Tree_iterator@V?$_Tree_val@U?$_Tree_simple_types@U?$pair@$$CBV?$basic_string@DU?$char_traits@D@std@@V?$allocator@D@2@@std@@H@std@@@std@@@std@@@std@@QAE@XZ 0043e6d0 f i CommonPathfindingLib:GraphicsBufferManager.obj
 0002:0001a720       ??1?$_Tree_unchecked_const_iterator@V?$_Tree_val@U?$_Tree_simple_types@U?$pair@$$CBHPAVGraphicsBuffer@@@std@@@std@@@std@@U_Iterator_base12@2@@std@@QAE@XZ 0043e720 f i CommonPathfindingLib:GraphicsBufferManager.obj
 0002:0001a770       ??1?$_Tree_unchecked_const_iterator@V?$_Tree_val@U?$_Tree_simple_types@U?$pair@$$CBV?$basic_string@DU?$char_traits@D@std@@V?$allocator@D@2@@std@@H@std@@@std@@@std@@U_Iterator_base12@2@@std@@QAE@XZ 0043e770 f i CommonPathfindingLib:GraphicsBufferManager.obj
 0002:0001a7c0       ??1?$_Tree_val@U?$_Tree_simple_types@U?$pair@$$CBHPAVGraphicsBuffer@@@std@@@std@@@std@@QAE@XZ 0043e7c0 f i CommonPathfindingLib:GraphicsBufferManager.obj
 0002:0001a810       ??1?$_Tree_val@U?$_Tree_simple_types@U?$pair@$$CBV?$basic_string@DU?$char_traits@D@std@@V?$allocator@D@2@@std@@H@std@@@std@@@std@@QAE@XZ 0043e810 f i CommonPathfindingLib:GraphicsBufferManager.obj
 0002:0001a860       ??1?$map@HPAVGraphicsBuffer@@U?$less@H@std@@V?$allocator@U?$pair@$$CBHPAVGraphicsBuffer@@@std@@@3@@std@@QAE@XZ 0043e860 f i CommonPathfindingLib:GraphicsBufferManager.obj
 0002:0001a8b0       ??1?$map@V?$basic_string@DU?$char_traits@D@std@@V?$allocator@D@2@@std@@HU?$less@V?$basic_string@DU?$char_traits@D@std@@V?$allocator@D@2@@std@@@2@V?$allocator@U?$pair@$$CBV?$basic_string@DU?$char_traits@D@std@@V?$allocator@D@2@@std@@H@std@@@2@@std@@QAE@XZ 0043e8b0 f i CommonPathfindingLib:GraphicsBufferManager.obj
 0002:0001a900       ??1?$pair@$$CBV?$basic_string@DU?$char_traits@D@std@@V?$allocator@D@2@@std@@H@std@@QAE@XZ 0043e900 f i CommonPathfindingLib:GraphicsBufferManager.obj
 0002:0001a950       ??1?$pair@V?$_Tree_iterator@V?$_Tree_val@U?$_Tree_simple_types@U?$pair@$$CBHPAVGraphicsBuffer@@@std@@@std@@@std@@@std@@_N@std@@QAE@XZ 0043e950 f i CommonPathfindingLib:GraphicsBufferManager.obj
 0002:0001a9a0       ??1?$pair@V?$_Tree_iterator@V?$_Tree_val@U?$_Tree_simple_types@U?$pair@$$CBV?$basic_string@DU?$char_traits@D@std@@V?$allocator@D@2@@std@@H@std@@@std@@@std@@@std@@_N@std@@QAE@XZ 0043e9a0 f i CommonPathfindingLib:GraphicsBufferManager.obj
 0002:0001a9f0       ??1GraphicsBufferManager@@QAE@XZ 0043e9f0 f   CommonPathfindingLib:GraphicsBufferManager.obj
 0002:0001aa90       ??3@YAXPAX0@Z              0043ea90 f i CommonPathfindingLib:GraphicsBufferManager.obj
 0002:0001aac0       ??4?$_Iterator012@Ubidirectional_iterator_tag@std@@U?$pair@$$CBHPAVGraphicsBuffer@@@2@HPBU32@ABU32@U_Iterator_base12@2@@std@@QAEAAU01@$$QAU01@@Z 0043eac0 f i CommonPathfindingLib:GraphicsBufferManager.obj
 0002:0001ab20       ??4?$_Iterator012@Ubidirectional_iterator_tag@std@@U?$pair@$$CBHPAVGraphicsBuffer@@@2@HPBU32@ABU32@U_Iterator_base12@2@@std@@QAEAAU01@ABU01@@Z 0043eb20 f i CommonPathfindingLib:GraphicsBufferManager.obj
 0002:0001ab80       ??4?$_Iterator012@Ubidirectional_iterator_tag@std@@U?$pair@$$CBV?$basic_string@DU?$char_traits@D@std@@V?$allocator@D@2@@std@@H@2@HPBU32@ABU32@U_Iterator_base12@2@@std@@QAEAAU01@$$QAU01@@Z 0043eb80 f i CommonPathfindingLib:GraphicsBufferManager.obj
 0002:0001abe0       ??4?$_Iterator012@Ubidirectional_iterator_tag@std@@U?$pair@$$CBV?$basic_string@DU?$char_traits@D@std@@V?$allocator@D@2@@std@@H@2@HPBU32@ABU32@U_Iterator_base12@2@@std@@QAEAAU01@ABU01@@Z 0043ebe0 f i CommonPathfindingLib:GraphicsBufferManager.obj
 0002:0001ac40       ??4?$_Tree_const_iterator@V?$_Tree_val@U?$_Tree_simple_types@U?$pair@$$CBHPAVGraphicsBuffer@@@std@@@std@@@std@@@std@@QAEAAV01@$$QAV01@@Z 0043ec40 f i CommonPathfindingLib:GraphicsBufferManager.obj
 0002:0001aca0       ??4?$_Tree_const_iterator@V?$_Tree_val@U?$_Tree_simple_types@U?$pair@$$CBHPAVGraphicsBuffer@@@std@@@std@@@std@@@std@@QAEAAV01@ABV01@@Z 0043eca0 f i CommonPathfindingLib:GraphicsBufferManager.obj
 0002:0001ad00       ??4?$_Tree_const_iterator@V?$_Tree_val@U?$_Tree_simple_types@U?$pair@$$CBV?$basic_string@DU?$char_traits@D@std@@V?$allocator@D@2@@std@@H@std@@@std@@@std@@@std@@QAEAAV01@$$QAV01@@Z 0043ed00 f i CommonPathfindingLib:GraphicsBufferManager.obj
 0002:0001ad60       ??4?$_Tree_const_iterator@V?$_Tree_val@U?$_Tree_simple_types@U?$pair@$$CBV?$basic_string@DU?$char_traits@D@std@@V?$allocator@D@2@@std@@H@std@@@std@@@std@@@std@@QAEAAV01@ABV01@@Z 0043ed60 f i CommonPathfindingLib:GraphicsBufferManager.obj
 0002:0001adc0       ??4?$_Tree_iterator@V?$_Tree_val@U?$_Tree_simple_types@U?$pair@$$CBHPAVGraphicsBuffer@@@std@@@std@@@std@@@std@@QAEAAV01@$$QAV01@@Z 0043edc0 f i CommonPathfindingLib:GraphicsBufferManager.obj
 0002:0001ae20       ??4?$_Tree_iterator@V?$_Tree_val@U?$_Tree_simple_types@U?$pair@$$CBV?$basic_string@DU?$char_traits@D@std@@V?$allocator@D@2@@std@@H@std@@@std@@@std@@@std@@QAEAAV01@$$QAV01@@Z 0043ee20 f i CommonPathfindingLib:GraphicsBufferManager.obj
 0002:0001ae80       ??4?$_Tree_unchecked_const_iterator@V?$_Tree_val@U?$_Tree_simple_types@U?$pair@$$CBHPAVGraphicsBuffer@@@std@@@std@@@std@@U_Iterator_base12@2@@std@@QAEAAV01@$$QAV01@@Z 0043ee80 f i CommonPathfindingLib:GraphicsBufferManager.obj
 0002:0001aef0       ??4?$_Tree_unchecked_const_iterator@V?$_Tree_val@U?$_Tree_simple_types@U?$pair@$$CBHPAVGraphicsBuffer@@@std@@@std@@@std@@U_Iterator_base12@2@@std@@QAEAAV01@ABV01@@Z 0043eef0 f i CommonPathfindingLib:GraphicsBufferManager.obj
 0002:0001af60       ??4?$_Tree_unchecked_const_iterator@V?$_Tree_val@U?$_Tree_simple_types@U?$pair@$$CBV?$basic_string@DU?$char_traits@D@std@@V?$allocator@D@2@@std@@H@std@@@std@@@std@@U_Iterator_base12@2@@std@@QAEAAV01@$$QAV01@@Z 0043ef60 f i CommonPathfindingLib:GraphicsBufferManager.obj
 0002:0001afd0       ??4?$_Tree_unchecked_const_iterator@V?$_Tree_val@U?$_Tree_simple_types@U?$pair@$$CBV?$basic_string@DU?$char_traits@D@std@@V?$allocator@D@2@@std@@H@std@@@std@@@std@@U_Iterator_base12@2@@std@@QAEAAV01@ABV01@@Z 0043efd0 f i CommonPathfindingLib:GraphicsBufferManager.obj
 0002:0001b040       ??4_Iterator_base12@std@@QAEAAU01@ABU01@@Z 0043f040 f i CommonPathfindingLib:GraphicsBufferManager.obj
 0002:0001b180       ??8?$_Tree_const_iterator@V?$_Tree_val@U?$_Tree_simple_types@U?$pair@$$CBHPAVGraphicsBuffer@@@std@@@std@@@std@@@std@@QBE_NABV01@@Z 0043f180 f i CommonPathfindingLib:GraphicsBufferManager.obj
 0002:0001b280       ??8?$_Tree_const_iterator@V?$_Tree_val@U?$_Tree_simple_types@U?$pair@$$CBV?$basic_string@DU?$char_traits@D@std@@V?$allocator@D@2@@std@@H@std@@@std@@@std@@@std@@QBE_NABV01@@Z 0043f280 f i CommonPathfindingLib:GraphicsBufferManager.obj
 0002:0001b380       ??9?$_Tree_const_iterator@V?$_Tree_val@U?$_Tree_simple_types@U?$pair@$$CBHPAVGraphicsBuffer@@@std@@@std@@@std@@@std@@QBE_NABV01@@Z 0043f380 f i CommonPathfindingLib:GraphicsBufferManager.obj
 0002:0001b410       ??9?$_Tree_const_iterator@V?$_Tree_val@U?$_Tree_simple_types@U?$pair@$$CBV?$basic_string@DU?$char_traits@D@std@@V?$allocator@D@2@@std@@H@std@@@std@@@std@@@std@@QBE_NABV01@@Z 0043f410 f i CommonPathfindingLib:GraphicsBufferManager.obj
 0002:0001b4a0       ??A?$map@HPAVGraphicsBuffer@@U?$less@H@std@@V?$allocator@U?$pair@$$CBHPAVGraphicsBuffer@@@std@@@3@@std@@QAEAAPAVGraphicsBuffer@@ABH@Z 0043f4a0 f i CommonPathfindingLib:GraphicsBufferManager.obj
 0002:0001b590       ??A?$map@V?$basic_string@DU?$char_traits@D@std@@V?$allocator@D@2@@std@@HU?$less@V?$basic_string@DU?$char_traits@D@std@@V?$allocator@D@2@@std@@@2@V?$allocator@U?$pair@$$CBV?$basic_string@DU?$char_traits@D@std@@V?$allocator@D@2@@std@@H@std@@@2@@std@@QAEAAHABV?$basic_string@DU?$char_traits@D@std@@V?$allocator@D@2@@1@@Z 0043f590 f i CommonPathfindingLib:GraphicsBufferManager.obj
 0002:0001b680       ??C?$_Tree_iterator@V?$_Tree_val@U?$_Tree_simple_types@U?$pair@$$CBHPAVGraphicsBuffer@@@std@@@std@@@std@@@std@@QBEPAU?$pair@$$CBHPAVGraphicsBuffer@@@1@XZ 0043f680 f i CommonPathfindingLib:GraphicsBufferManager.obj
 0002:0001b6e0       ??C?$_Tree_iterator@V?$_Tree_val@U?$_Tree_simple_types@U?$pair@$$CBV?$basic_string@DU?$char_traits@D@std@@V?$allocator@D@2@@std@@H@std@@@std@@@std@@@std@@QBEPAU?$pair@$$CBV?$basic_string@DU?$char_traits@D@std@@V?$allocator@D@2@@std@@H@1@XZ 0043f6e0 f i CommonPathfindingLib:GraphicsBufferManager.obj
 0002:0001b740       ??D?$_Tree_const_iterator@V?$_Tree_val@U?$_Tree_simple_types@U?$pair@$$CBHPAVGraphicsBuffer@@@std@@@std@@@std@@@std@@QBEABU?$pair@$$CBHPAVGraphicsBuffer@@@1@XZ 0043f740 f i CommonPathfindingLib:GraphicsBufferManager.obj
 0002:0001b830       ??D?$_Tree_const_iterator@V?$_Tree_val@U?$_Tree_simple_types@U?$pair@$$CBV?$basic_string@DU?$char_traits@D@std@@V?$allocator@D@2@@std@@H@std@@@std@@@std@@@std@@QBEABU?$pair@$$CBV?$basic_string@DU?$char_traits@D@std@@V?$allocator@D@2@@std@@H@1@XZ 0043f830 f i CommonPathfindingLib:GraphicsBufferManager.obj
 0002:0001b920       ??D?$_Tree_iterator@V?$_Tree_val@U?$_Tree_simple_types@U?$pair@$$CBHPAVGraphicsBuffer@@@std@@@std@@@std@@@std@@QBEAAU?$pair@$$CBHPAVGraphicsBuffer@@@1@XZ 0043f920 f i CommonPathfindingLib:GraphicsBufferManager.obj
 0002:0001b970       ??D?$_Tree_iterator@V?$_Tree_val@U?$_Tree_simple_types@U?$pair@$$CBV?$basic_string@DU?$char_traits@D@std@@V?$allocator@D@2@@std@@H@std@@@std@@@std@@@std@@QBEAAU?$pair@$$CBV?$basic_string@DU?$char_traits@D@std@@V?$allocator@D@2@@std@@H@1@XZ 0043f970 f i CommonPathfindingLib:GraphicsBufferManager.obj
 0002:0001b9c0       ??E?$_Tree_const_iterator@V?$_Tree_val@U?$_Tree_simple_types@U?$pair@$$CBHPAVGraphicsBuffer@@@std@@@std@@@std@@@std@@QAE?AV01@H@Z 0043f9c0 f i CommonPathfindingLib:GraphicsBufferManager.obj
 0002:0001bae0       ??E?$_Tree_const_iterator@V?$_Tree_val@U?$_Tree_simple_types@U?$pair@$$CBHPAVGraphicsBuffer@@@std@@@std@@@std@@@std@@QAEAAV01@XZ 0043fae0 f i CommonPathfindingLib:GraphicsBufferManager.obj
 0002:0001bbd0       ??E?$_Tree_const_iterator@V?$_Tree_val@U?$_Tree_simple_types@U?$pair@$$CBV?$basic_string@DU?$char_traits@D@std@@V?$allocator@D@2@@std@@H@std@@@std@@@std@@@std@@QAE?AV01@H@Z 0043fbd0 f i CommonPathfindingLib:GraphicsBufferManager.obj
 0002:0001bcf0       ??E?$_Tree_const_iterator@V?$_Tree_val@U?$_Tree_simple_types@U?$pair@$$CBV?$basic_string@DU?$char_traits@D@std@@V?$allocator@D@2@@std@@H@std@@@std@@@std@@@std@@QAEAAV01@XZ 0043fcf0 f i CommonPathfindingLib:GraphicsBufferManager.obj
 0002:0001bde0       ??E?$_Tree_iterator@V?$_Tree_val@U?$_Tree_simple_types@U?$pair@$$CBHPAVGraphicsBuffer@@@std@@@std@@@std@@@std@@QAEAAV01@XZ 0043fde0 f i CommonPathfindingLib:GraphicsBufferManager.obj
 0002:0001be40       ??E?$_Tree_iterator@V?$_Tree_val@U?$_Tree_simple_types@U?$pair@$$CBV?$basic_string@DU?$char_traits@D@std@@V?$allocator@D@2@@std@@H@std@@@std@@@std@@@std@@QAEAAV01@XZ 0043fe40 f i CommonPathfindingLib:GraphicsBufferManager.obj
 0002:0001bea0       ??E?$_Tree_unchecked_const_iterator@V?$_Tree_val@U?$_Tree_simple_types@U?$pair@$$CBHPAVGraphicsBuffer@@@std@@@std@@@std@@U_Iterator_base12@2@@std@@QAEAAV01@XZ 0043fea0 f i CommonPathfindingLib:GraphicsBufferManager.obj
 0002:0001bfd0       ??E?$_Tree_unchecked_const_iterator@V?$_Tree_val@U?$_Tree_simple_types@U?$pair@$$CBV?$basic_string@DU?$char_traits@D@std@@V?$allocator@D@2@@std@@H@std@@@std@@@std@@U_Iterator_base12@2@@std@@QAEAAV01@XZ 0043ffd0 f i CommonPathfindingLib:GraphicsBufferManager.obj
 0002:0001c100       ??F?$_Tree_const_iterator@V?$_Tree_val@U?$_Tree_simple_types@U?$pair@$$CBHPAVGraphicsBuffer@@@std@@@std@@@std@@@std@@QAEAAV01@XZ 00440100 f i CommonPathfindingLib:GraphicsBufferManager.obj
 0002:0001c240       ??F?$_Tree_const_iterator@V?$_Tree_val@U?$_Tree_simple_types@U?$pair@$$CBV?$basic_string@DU?$char_traits@D@std@@V?$allocator@D@2@@std@@H@std@@@std@@@std@@@std@@QAEAAV01@XZ 00440240 f i CommonPathfindingLib:GraphicsBufferManager.obj
 0002:0001c380       ??F?$_Tree_iterator@V?$_Tree_val@U?$_Tree_simple_types@U?$pair@$$CBHPAVGraphicsBuffer@@@std@@@std@@@std@@@std@@QAEAAV01@XZ 00440380 f i CommonPathfindingLib:GraphicsBufferManager.obj
 0002:0001c3e0       ??F?$_Tree_iterator@V?$_Tree_val@U?$_Tree_simple_types@U?$pair@$$CBV?$basic_string@DU?$char_traits@D@std@@V?$allocator@D@2@@std@@H@std@@@std@@@std@@@std@@QAEAAV01@XZ 004403e0 f i CommonPathfindingLib:GraphicsBufferManager.obj
 0002:0001c440       ??F?$_Tree_unchecked_const_iterator@V?$_Tree_val@U?$_Tree_simple_types@U?$pair@$$CBHPAVGraphicsBuffer@@@std@@@std@@@std@@U_Iterator_base12@2@@std@@QAEAAV01@XZ 00440440 f i CommonPathfindingLib:GraphicsBufferManager.obj
 0002:0001c5a0       ??F?$_Tree_unchecked_const_iterator@V?$_Tree_val@U?$_Tree_simple_types@U?$pair@$$CBV?$basic_string@DU?$char_traits@D@std@@V?$allocator@D@2@@std@@H@std@@@std@@@std@@U_Iterator_base12@2@@std@@QAEAAV01@XZ 004405a0 f i CommonPathfindingLib:GraphicsBufferManager.obj
 0002:0001c700       ??R?$less@H@std@@QBE_NABH0@Z 00440700 f i CommonPathfindingLib:GraphicsBufferManager.obj
 0002:0001c770       ??R?$less@V?$basic_string@DU?$char_traits@D@std@@V?$allocator@D@2@@std@@@std@@QBE_NABV?$basic_string@DU?$char_traits@D@std@@V?$allocator@D@2@@1@0@Z 00440770 f i CommonPathfindingLib:GraphicsBufferManager.obj
 0002:0001c7d0       ??_G?$pair@$$CBV?$basic_string@DU?$char_traits@D@std@@V?$allocator@D@2@@std@@H@std@@QAEPAXI@Z 004407d0 f i CommonPathfindingLib:GraphicsBufferManager.obj
 0002:0001c840       ??_GGraphicsBuffer@@QAEPAXI@Z 00440840 f i CommonPathfindingLib:GraphicsBufferManager.obj
 0002:0001c8d0       ?_Alloc_proxy@?$_Tree_comp_alloc@V?$_Tmap_traits@HPAVGraphicsBuffer@@U?$less@H@std@@V?$allocator@U?$pair@$$CBHPAVGraphicsBuffer@@@std@@@3@$0A@@std@@@std@@QAEXXZ 004408d0 f i CommonPathfindingLib:GraphicsBufferManager.obj
 0002:0001c9e0       ?_Alloc_proxy@?$_Tree_comp_alloc@V?$_Tmap_traits@V?$basic_string@DU?$char_traits@D@std@@V?$allocator@D@2@@std@@HU?$less@V?$basic_string@DU?$char_traits@D@std@@V?$allocator@D@2@@std@@@2@V?$allocator@U?$pair@$$CBV?$basic_string@DU?$char_traits@D@std@@V?$allocator@D@2@@std@@H@std@@@2@$0A@@std@@@std@@QAEXXZ 004409e0 f i CommonPathfindingLib:GraphicsBufferManager.obj
 0002:0001caf0       ?_Assign_lv_contents@?$basic_string@DU?$char_traits@D@std@@V?$allocator@D@2@@std@@QAEXABV12@@Z 00440af0 f i CommonPathfindingLib:GraphicsBufferManager.obj
 0002:0001cb50       ?_Buyheadnode@?$_Tree_comp_alloc@V?$_Tmap_traits@HPAVGraphicsBuffer@@U?$less@H@std@@V?$allocator@U?$pair@$$CBHPAVGraphicsBuffer@@@std@@@3@$0A@@std@@@std@@QAEPAU?$_Tree_node@U?$pair@$$CBHPAVGraphicsBuffer@@@std@@PAX@2@XZ 00440b50 f i CommonPathfindingLib:GraphicsBufferManager.obj
 0002:0001cd60       ?_Buyheadnode@?$_Tree_comp_alloc@V?$_Tmap_traits@V?$basic_string@DU?$char_traits@D@std@@V?$allocator@D@2@@std@@HU?$less@V?$basic_string@DU?$char_traits@D@std@@V?$allocator@D@2@@std@@@2@V?$allocator@U?$pair@$$CBV?$basic_string@DU?$char_traits@D@std@@V?$allocator@D@2@@std@@H@std@@@2@$0A@@std@@@std@@QAEPAU?$_Tree_node@U?$pair@$$CBV?$basic_string@DU?$char_traits@D@std@@V?$allocator@D@2@@std@@H@std@@PAX@2@XZ 00440d60 f i CommonPathfindingLib:GraphicsBufferManager.obj
 0002:0001cf70       ?_Buynode0@?$_Tree_comp_alloc@V?$_Tmap_traits@HPAVGraphicsBuffer@@U?$less@H@std@@V?$allocator@U?$pair@$$CBHPAVGraphicsBuffer@@@std@@@3@$0A@@std@@@std@@QAEPAU?$_Tree_node@U?$pair@$$CBHPAVGraphicsBuffer@@@std@@PAX@2@XZ 00440f70 f i CommonPathfindingLib:GraphicsBufferManager.obj
 0002:0001d130       ?_Buynode0@?$_Tree_comp_alloc@V?$_Tmap_traits@V?$basic_string@DU?$char_traits@D@std@@V?$allocator@D@2@@std@@HU?$less@V?$basic_string@DU?$char_traits@D@std@@V?$allocator@D@2@@std@@@2@V?$allocator@U?$pair@$$CBV?$basic_string@DU?$char_traits@D@std@@V?$allocator@D@2@@std@@H@std@@@2@$0A@@std@@@std@@QAEPAU?$_Tree_node@U?$pair@$$CBV?$basic_string@DU?$char_traits@D@std@@V?$allocator@D@2@@std@@H@std@@PAX@2@XZ 00441130 f i CommonPathfindingLib:GraphicsBufferManager.obj
 0002:0001d2f0       ?_Clrcont@_Iterator_base12@std@@QAEXXZ 004412f0 f i CommonPathfindingLib:GraphicsBufferManager.obj
 0002:0001d330       ?_Color@?$_Tree_comp_alloc@V?$_Tmap_traits@HPAVGraphicsBuffer@@U?$less@H@std@@V?$allocator@U?$pair@$$CBHPAVGraphicsBuffer@@@std@@@3@$0A@@std@@@std@@SAAADPAU?$_Tree_node@U?$pair@$$CBHPAVGraphicsBuffer@@@std@@PAX@2@@Z 00441330 f i CommonPathfindingLib:GraphicsBufferManager.obj
 0002:0001d380       ?_Color@?$_Tree_comp_alloc@V?$_Tmap_traits@V?$basic_string@DU?$char_traits@D@std@@V?$allocator@D@2@@std@@HU?$less@V?$basic_string@DU?$char_traits@D@std@@V?$allocator@D@2@@std@@@2@V?$allocator@U?$pair@$$CBV?$basic_string@DU?$char_traits@D@std@@V?$allocator@D@2@@std@@H@std@@@2@$0A@@std@@@std@@SAAADPAU?$_Tree_node@U?$pair@$$CBV?$basic_string@DU?$char_traits@D@std@@V?$allocator@D@2@@std@@H@std@@PAX@2@@Z 00441380 f i CommonPathfindingLib:GraphicsBufferManager.obj
 0002:0001d3d0       ?_Color@?$_Tree_val@U?$_Tree_simple_types@U?$pair@$$CBHPAVGraphicsBuffer@@@std@@@std@@@std@@SAAADPAU?$_Tree_node@U?$pair@$$CBHPAVGraphicsBuffer@@@std@@PAX@2@@Z 004413d0 f i CommonPathfindingLib:GraphicsBufferManager.obj
 0002:0001d410       ?_Color@?$_Tree_val@U?$_Tree_simple_types@U?$pair@$$CBV?$basic_string@DU?$char_traits@D@std@@V?$allocator@D@2@@std@@H@std@@@std@@@std@@SAAADPAU?$_Tree_node@U?$pair@$$CBV?$basic_string@DU?$char_traits@D@std@@V?$allocator@D@2@@std@@H@std@@PAX@2@@Z 00441410 f i CommonPathfindingLib:GraphicsBufferManager.obj
 0002:0001d450       ?_Compare@?$_Tree@V?$_Tmap_traits@HPAVGraphicsBuffer@@U?$less@H@std@@V?$allocator@U?$pair@$$CBHPAVGraphicsBuffer@@@std@@@3@$0A@@std@@@std@@IBE_NABH0@Z 00441450 f i CommonPathfindingLib:GraphicsBufferManager.obj
 0002:0001d4d0       ?_Compare@?$_Tree@V?$_Tmap_traits@V?$basic_string@DU?$char_traits@D@std@@V?$allocator@D@2@@std@@HU?$less@V?$basic_string@DU?$char_traits@D@std@@V?$allocator@D@2@@std@@@2@V?$allocator@U?$pair@$$CBV?$basic_string@DU?$char_traits@D@std@@V?$allocator@D@2@@std@@H@std@@@2@$0A@@std@@@std@@IBE_NABV?$basic_string@DU?$char_traits@D@std@@V?$allocator@D@2@@2@0@Z 004414d0 f i CommonPathfindingLib:GraphicsBufferManager.obj
 0002:0001d550       ?_Construct@?$_Tree_comp_alloc@V?$_Tmap_traits@HPAVGraphicsBuffer@@U?$less@H@std@@V?$allocator@U?$pair@$$CBHPAVGraphicsBuffer@@@std@@@3@$0A@@std@@@std@@QAEXXZ 00441550 f i CommonPathfindingLib:GraphicsBufferManager.obj
 0002:0001d640       ?_Construct@?$_Tree_comp_alloc@V?$_Tmap_traits@V?$basic_string@DU?$char_traits@D@std@@V?$allocator@D@2@@std@@HU?$less@V?$basic_string@DU?$char_traits@D@std@@V?$allocator@D@2@@std@@@2@V?$allocator@U?$pair@$$CBV?$basic_string@DU?$char_traits@D@std@@V?$allocator@D@2@@std@@H@std@@@2@$0A@@std@@@std@@QAEXXZ 00441640 f i CommonPathfindingLib:GraphicsBufferManager.obj
 0002:0001d730       ?_Destroy_if_not_nil@?$_Tree@V?$_Tmap_traits@HPAVGraphicsBuffer@@U?$less@H@std@@V?$allocator@U?$pair@$$CBHPAVGraphicsBuffer@@@std@@@3@$0A@@std@@@std@@IAEXPAU?$_Tree_node@U?$pair@$$CBHPAVGraphicsBuffer@@@std@@PAX@2@@Z 00441730 f i CommonPathfindingLib:GraphicsBufferManager.obj
 0002:0001d7c0       ?_Destroy_if_not_nil@?$_Tree@V?$_Tmap_traits@V?$basic_string@DU?$char_traits@D@std@@V?$allocator@D@2@@std@@HU?$less@V?$basic_string@DU?$char_traits@D@std@@V?$allocator@D@2@@std@@@2@V?$allocator@U?$pair@$$CBV?$basic_string@DU?$char_traits@D@std@@V?$allocator@D@2@@std@@H@std@@@2@$0A@@std@@@std@@IAEXPAU?$_Tree_node@U?$pair@$$CBV?$basic_string@DU?$char_traits@D@std@@V?$allocator@D@2@@std@@H@std@@PAX@2@@Z 004417c0 f i CommonPathfindingLib:GraphicsBufferManager.obj
 0002:0001d850       ?_Erase@?$_Tree@V?$_Tmap_traits@HPAVGraphicsBuffer@@U?$less@H@std@@V?$allocator@U?$pair@$$CBHPAVGraphicsBuffer@@@std@@@3@$0A@@std@@@std@@IAEXPAU?$_Tree_node@U?$pair@$$CBHPAVGraphicsBuffer@@@std@@PAX@2@@Z 00441850 f i CommonPathfindingLib:GraphicsBufferManager.obj
 0002:0001d940       ?_Erase@?$_Tree@V?$_Tmap_traits@V?$basic_string@DU?$char_traits@D@std@@V?$allocator@D@2@@std@@HU?$less@V?$basic_string@DU?$char_traits@D@std@@V?$allocator@D@2@@std@@@2@V?$allocator@U?$pair@$$CBV?$basic_string@DU?$char_traits@D@std@@V?$allocator@D@2@@std@@H@std@@@2@$0A@@std@@@std@@IAEXPAU?$_Tree_node@U?$pair@$$CBV?$basic_string@DU?$char_traits@D@std@@V?$allocator@D@2@@std@@H@std@@PAX@2@@Z 00441940 f i CommonPathfindingLib:GraphicsBufferManager.obj
 0002:0001da30       ?_Free_proxy@?$_Tree_comp_alloc@V?$_Tmap_traits@HPAVGraphicsBuffer@@U?$less@H@std@@V?$allocator@U?$pair@$$CBHPAVGraphicsBuffer@@@std@@@3@$0A@@std@@@std@@QAEXXZ 00441a30 f i CommonPathfindingLib:GraphicsBufferManager.obj
 0002:0001db20       ?_Free_proxy@?$_Tree_comp_alloc@V?$_Tmap_traits@V?$basic_string@DU?$char_traits@D@std@@V?$allocator@D@2@@std@@HU?$less@V?$basic_string@DU?$char_traits@D@std@@V?$allocator@D@2@@std@@@2@V?$allocator@U?$pair@$$CBV?$basic_string@DU?$char_traits@D@std@@V?$allocator@D@2@@std@@H@std@@@2@$0A@@std@@@std@@QAEXXZ 00441b20 f i CommonPathfindingLib:GraphicsBufferManager.obj
 0002:0001dc10       ?_Freeheadnode@?$_Tree_comp_alloc@V?$_Tmap_traits@HPAVGraphicsBuffer@@U?$less@H@std@@V?$allocator@U?$pair@$$CBHPAVGraphicsBuffer@@@std@@@3@$0A@@std@@@std@@QAEXPAU?$_Tree_node@U?$pair@$$CBHPAVGraphicsBuffer@@@std@@PAX@2@@Z 00441c10 f i CommonPathfindingLib:GraphicsBufferManager.obj
 0002:0001dd00       ?_Freeheadnode@?$_Tree_comp_alloc@V?$_Tmap_traits@V?$basic_string@DU?$char_traits@D@std@@V?$allocator@D@2@@std@@HU?$less@V?$basic_string@DU?$char_traits@D@std@@V?$allocator@D@2@@std@@@2@V?$allocator@U?$pair@$$CBV?$basic_string@DU?$char_traits@D@std@@V?$allocator@D@2@@std@@H@std@@@2@$0A@@std@@@std@@QAEXPAU?$_Tree_node@U?$pair@$$CBV?$basic_string@DU?$char_traits@D@std@@V?$allocator@D@2@@std@@H@std@@PAX@2@@Z 00441d00 f i CommonPathfindingLib:GraphicsBufferManager.obj
 0002:0001ddf0       ?_Freenode0@?$_Tree_comp_alloc@V?$_Tmap_traits@HPAVGraphicsBuffer@@U?$less@H@std@@V?$allocator@U?$pair@$$CBHPAVGraphicsBuffer@@@std@@@3@$0A@@std@@@std@@QAEXPAU?$_Tree_node@U?$pair@$$CBHPAVGraphicsBuffer@@@std@@PAX@2@@Z 00441df0 f i CommonPathfindingLib:GraphicsBufferManager.obj
 0002:0001dee0       ?_Freenode0@?$_Tree_comp_alloc@V?$_Tmap_traits@V?$basic_string@DU?$char_traits@D@std@@V?$allocator@D@2@@std@@HU?$less@V?$basic_string@DU?$char_traits@D@std@@V?$allocator@D@2@@std@@@2@V?$allocator@U?$pair@$$CBV?$basic_string@DU?$char_traits@D@std@@V?$allocator@D@2@@std@@H@std@@@2@$0A@@std@@@std@@QAEXPAU?$_Tree_node@U?$pair@$$CBV?$basic_string@DU?$char_traits@D@std@@V?$allocator@D@2@@std@@H@std@@PAX@2@@Z 00441ee0 f i CommonPathfindingLib:GraphicsBufferManager.obj
 0002:0001dfd0       ?_Get_data@?$_Tree_comp_alloc@V?$_Tmap_traits@HPAVGraphicsBuffer@@U?$less@H@std@@V?$allocator@U?$pair@$$CBHPAVGraphicsBuffer@@@std@@@3@$0A@@std@@@std@@QAEAAV?$_Tree_val@U?$_Tree_simple_types@U?$pair@$$CBHPAVGraphicsBuffer@@@std@@@std@@@2@XZ 00441fd0 f i CommonPathfindingLib:GraphicsBufferManager.obj
 0002:0001e030       ?_Get_data@?$_Tree_comp_alloc@V?$_Tmap_traits@HPAVGraphicsBuffer@@U?$less@H@std@@V?$allocator@U?$pair@$$CBHPAVGraphicsBuffer@@@std@@@3@$0A@@std@@@std@@QBEABV?$_Tree_val@U?$_Tree_simple_types@U?$pair@$$CBHPAVGraphicsBuffer@@@std@@@std@@@2@XZ 00442030 f i CommonPathfindingLib:GraphicsBufferManager.obj
 0002:0001e090       ?_Get_data@?$_Tree_comp_alloc@V?$_Tmap_traits@V?$basic_string@DU?$char_traits@D@std@@V?$allocator@D@2@@std@@HU?$less@V?$basic_string@DU?$char_traits@D@std@@V?$allocator@D@2@@std@@@2@V?$allocator@U?$pair@$$CBV?$basic_string@DU?$char_traits@D@std@@V?$allocator@D@2@@std@@H@std@@@2@$0A@@std@@@std@@QAEAAV?$_Tree_val@U?$_Tree_simple_types@U?$pair@$$CBV?$basic_string@DU?$char_traits@D@std@@V?$allocator@D@2@@std@@H@std@@@std@@@2@XZ 00442090 f i CommonPathfindingLib:GraphicsBufferManager.obj
 0002:0001e0f0       ?_Get_data@?$_Tree_comp_alloc@V?$_Tmap_traits@V?$basic_string@DU?$char_traits@D@std@@V?$allocator@D@2@@std@@HU?$less@V?$basic_string@DU?$char_traits@D@std@@V?$allocator@D@2@@std@@@2@V?$allocator@U?$pair@$$CBV?$basic_string@DU?$char_traits@D@std@@V?$allocator@D@2@@std@@H@std@@@2@$0A@@std@@@std@@QBEABV?$_Tree_val@U?$_Tree_simple_types@U?$pair@$$CBV?$basic_string@DU?$char_traits@D@std@@V?$allocator@D@2@@std@@H@std@@@std@@@2@XZ 004420f0 f i CommonPathfindingLib:GraphicsBufferManager.obj
 0002:0001e150       ?_Get_first@?$_Compressed_pair@U?$_Wrap_alloc@V?$allocator@U?$_Tree_node@U?$pair@$$CBHPAVGraphicsBuffer@@@std@@PAX@std@@@std@@@std@@V?$_Tree_val@U?$_Tree_simple_types@U?$pair@$$CBHPAVGraphicsBuffer@@@std@@@std@@@2@$00@std@@QAEAAU?$_Wrap_alloc@V?$allocator@U?$_Tree_node@U?$pair@$$CBHPAVGraphicsBuffer@@@std@@PAX@std@@@std@@@2@XZ 00442150 f i CommonPathfindingLib:GraphicsBufferManager.obj
 0002:0001e190       ?_Get_first@?$_Compressed_pair@U?$_Wrap_alloc@V?$allocator@U?$_Tree_node@U?$pair@$$CBHPAVGraphicsBuffer@@@std@@PAX@std@@@std@@@std@@V?$_Tree_val@U?$_Tree_simple_types@U?$pair@$$CBHPAVGraphicsBuffer@@@std@@@std@@@2@$00@std@@QBEABU?$_Wrap_alloc@V?$allocator@U?$_Tree_node@U?$pair@$$CBHPAVGraphicsBuffer@@@std@@PAX@std@@@std@@@2@XZ 00442190 f i CommonPathfindingLib:GraphicsBufferManager.obj
 0002:0001e1d0       ?_Get_first@?$_Compressed_pair@U?$_Wrap_alloc@V?$allocator@U?$_Tree_node@U?$pair@$$CBV?$basic_string@DU?$char_traits@D@std@@V?$allocator@D@2@@std@@H@std@@PAX@std@@@std@@@std@@V?$_Tree_val@U?$_Tree_simple_types@U?$pair@$$CBV?$basic_string@DU?$char_traits@D@std@@V?$allocator@D@2@@std@@H@std@@@std@@@2@$00@std@@QAEAAU?$_Wrap_alloc@V?$allocator@U?$_Tree_node@U?$pair@$$CBV?$basic_string@DU?$char_traits@D@std@@V?$allocator@D@2@@std@@H@std@@PAX@std@@@std@@@2@XZ 004421d0 f i CommonPathfindingLib:GraphicsBufferManager.obj
 0002:0001e210       ?_Get_first@?$_Compressed_pair@U?$_Wrap_alloc@V?$allocator@U?$_Tree_node@U?$pair@$$CBV?$basic_string@DU?$char_traits@D@std@@V?$allocator@D@2@@std@@H@std@@PAX@std@@@std@@@std@@V?$_Tree_val@U?$_Tree_simple_types@U?$pair@$$CBV?$basic_string@DU?$char_traits@D@std@@V?$allocator@D@2@@std@@H@std@@@std@@@2@$00@std@@QBEABU?$_Wrap_alloc@V?$allocator@U?$_Tree_node@U?$pair@$$CBV?$basic_string@DU?$char_traits@D@std@@V?$allocator@D@2@@std@@H@std@@PAX@std@@@std@@@2@XZ 00442210 f i CommonPathfindingLib:GraphicsBufferManager.obj
 0002:0001e250       ?_Get_first@?$_Compressed_pair@U?$less@H@std@@V?$_Compressed_pair@U?$_Wrap_alloc@V?$allocator@U?$_Tree_node@U?$pair@$$CBHPAVGraphicsBuffer@@@std@@PAX@std@@@std@@@std@@V?$_Tree_val@U?$_Tree_simple_types@U?$pair@$$CBHPAVGraphicsBuffer@@@std@@@std@@@2@$00@2@$00@std@@QAEAAU?$less@H@2@XZ 00442250 f i CommonPathfindingLib:GraphicsBufferManager.obj
 0002:0001e290       ?_Get_first@?$_Compressed_pair@U?$less@H@std@@V?$_Compressed_pair@U?$_Wrap_alloc@V?$allocator@U?$_Tree_node@U?$pair@$$CBHPAVGraphicsBuffer@@@std@@PAX@std@@@std@@@std@@V?$_Tree_val@U?$_Tree_simple_types@U?$pair@$$CBHPAVGraphicsBuffer@@@std@@@std@@@2@$00@2@$00@std@@QBEABU?$less@H@2@XZ 00442290 f i CommonPathfindingLib:GraphicsBufferManager.obj
 0002:0001e2d0       ?_Get_first@?$_Compressed_pair@U?$less@V?$basic_string@DU?$char_traits@D@std@@V?$allocator@D@2@@std@@@std@@V?$_Compressed_pair@U?$_Wrap_alloc@V?$allocator@U?$_Tree_node@U?$pair@$$CBV?$basic_string@DU?$char_traits@D@std@@V?$allocator@D@2@@std@@H@std@@PAX@std@@@std@@@std@@V?$_Tree_val@U?$_Tree_simple_types@U?$pair@$$CBV?$basic_string@DU?$char_traits@D@std@@V?$allocator@D@2@@std@@H@std@@@std@@@2@$00@2@$00@std@@QAEAAU?$less@V?$basic_string@DU?$char_traits@D@std@@V?$allocator@D@2@@std@@@2@XZ 004422d0 f i CommonPathfindingLib:GraphicsBufferManager.obj
 0002:0001e310       ?_Get_first@?$_Compressed_pair@U?$less@V?$basic_string@DU?$char_traits@D@std@@V?$allocator@D@2@@std@@@std@@V?$_Compressed_pair@U?$_Wrap_alloc@V?$allocator@U?$_Tree_node@U?$pair@$$CBV?$basic_string@DU?$char_traits@D@std@@V?$allocator@D@2@@std@@H@std@@PAX@std@@@std@@@std@@V?$_Tree_val@U?$_Tree_simple_types@U?$pair@$$CBV?$basic_string@DU?$char_traits@D@std@@V?$allocator@D@2@@std@@H@std@@@std@@@2@$00@2@$00@std@@QBEABU?$less@V?$basic_string@DU?$char_traits@D@std@@V?$allocator@D@2@@std@@@2@XZ 00442310 f i CommonPathfindingLib:GraphicsBufferManager.obj
 0002:0001e350       ?_Get_second@?$_Compressed_pair@U?$_Wrap_alloc@V?$allocator@U?$_Tree_node@U?$pair@$$CBHPAVGraphicsBuffer@@@std@@PAX@std@@@std@@@std@@V?$_Tree_val@U?$_Tree_simple_types@U?$pair@$$CBHPAVGraphicsBuffer@@@std@@@std@@@2@$00@std@@QAEAAV?$_Tree_val@U?$_Tree_simple_types@U?$pair@$$CBHPAVGraphicsBuffer@@@std@@@std@@@2@XZ 00442350 f i CommonPathfindingLib:GraphicsBufferManager.obj
 0002:0001e390       ?_Get_second@?$_Compressed_pair@U?$_Wrap_alloc@V?$allocator@U?$_Tree_node@U?$pair@$$CBHPAVGraphicsBuffer@@@std@@PAX@std@@@std@@@std@@V?$_Tree_val@U?$_Tree_simple_types@U?$pair@$$CBHPAVGraphicsBuffer@@@std@@@std@@@2@$00@std@@QBEABV?$_Tree_val@U?$_Tree_simple_types@U?$pair@$$CBHPAVGraphicsBuffer@@@std@@@std@@@2@XZ 00442390 f i CommonPathfindingLib:GraphicsBufferManager.obj
 0002:0001e3d0       ?_Get_second@?$_Compressed_pair@U?$_Wrap_alloc@V?$allocator@U?$_Tree_node@U?$pair@$$CBV?$basic_string@DU?$char_traits@D@std@@V?$allocator@D@2@@std@@H@std@@PAX@std@@@std@@@std@@V?$_Tree_val@U?$_Tree_simple_types@U?$pair@$$CBV?$basic_string@DU?$char_traits@D@std@@V?$allocator@D@2@@std@@H@std@@@std@@@2@$00@std@@QAEAAV?$_Tree_val@U?$_Tree_simple_types@U?$pair@$$CBV?$basic_string@DU?$char_traits@D@std@@V?$allocator@D@2@@std@@H@std@@@std@@@2@XZ 004423d0 f i CommonPathfindingLib:GraphicsBufferManager.obj
 0002:0001e410       ?_Get_second@?$_Compressed_pair@U?$_Wrap_alloc@V?$allocator@U?$_Tree_node@U?$pair@$$CBV?$basic_string@DU?$char_traits@D@std@@V?$allocator@D@2@@std@@H@std@@PAX@std@@@std@@@std@@V?$_Tree_val@U?$_Tree_simple_types@U?$pair@$$CBV?$basic_string@DU?$char_traits@D@std@@V?$allocator@D@2@@std@@H@std@@@std@@@2@$00@std@@QBEABV?$_Tree_val@U?$_Tree_simple_types@U?$pair@$$CBV?$basic_string@DU?$char_traits@D@std@@V?$allocator@D@2@@std@@H@std@@@std@@@2@XZ 00442410 f i CommonPathfindingLib:GraphicsBufferManager.obj
 0002:0001e450       ?_Get_second@?$_Compressed_pair@U?$less@H@std@@V?$_Compressed_pair@U?$_Wrap_alloc@V?$allocator@U?$_Tree_node@U?$pair@$$CBHPAVGraphicsBuffer@@@std@@PAX@std@@@std@@@std@@V?$_Tree_val@U?$_Tree_simple_types@U?$pair@$$CBHPAVGraphicsBuffer@@@std@@@std@@@2@$00@2@$00@std@@QAEAAV?$_Compressed_pair@U?$_Wrap_alloc@V?$allocator@U?$_Tree_node@U?$pair@$$CBHPAVGraphicsBuffer@@@std@@PAX@std@@@std@@@std@@V?$_Tree_val@U?$_Tree_simple_types@U?$pair@$$CBHPAVGraphicsBuffer@@@std@@@std@@@2@$00@2@XZ 00442450 f i CommonPathfindingLib:GraphicsBufferManager.obj
 0002:0001e490       ?_Get_second@?$_Compressed_pair@U?$less@H@std@@V?$_Compressed_pair@U?$_Wrap_alloc@V?$allocator@U?$_Tree_node@U?$pair@$$CBHPAVGraphicsBuffer@@@std@@PAX@std@@@std@@@std@@V?$_Tree_val@U?$_Tree_simple_types@U?$pair@$$CBHPAVGraphicsBuffer@@@std@@@std@@@2@$00@2@$00@std@@QBEABV?$_Compressed_pair@U?$_Wrap_alloc@V?$allocator@U?$_Tree_node@U?$pair@$$CBHPAVGraphicsBuffer@@@std@@PAX@std@@@std@@@std@@V?$_Tree_val@U?$_Tree_simple_types@U?$pair@$$CBHPAVGraphicsBuffer@@@std@@@std@@@2@$00@2@XZ 00442490 f i CommonPathfindingLib:GraphicsBufferManager.obj
 0002:0001e4d0       ?_Get_second@?$_Compressed_pair@U?$less@V?$basic_string@DU?$char_traits@D@std@@V?$allocator@D@2@@std@@@std@@V?$_Compressed_pair@U?$_Wrap_alloc@V?$allocator@U?$_Tree_node@U?$pair@$$CBV?$basic_string@DU?$char_traits@D@std@@V?$allocator@D@2@@std@@H@std@@PAX@std@@@std@@@std@@V?$_Tree_val@U?$_Tree_simple_types@U?$pair@$$CBV?$basic_string@DU?$char_traits@D@std@@V?$allocator@D@2@@std@@H@std@@@std@@@2@$00@2@$00@std@@QAEAAV?$_Compressed_pair@U?$_Wrap_alloc@V?$allocator@U?$_Tree_node@U?$pair@$$CBV?$basic_string@DU?$char_traits@D@std@@V?$allocator@D@2@@std@@H@std@@PAX@std@@@std@@@std@@V?$_Tree_val@U?$_Tree_simple_types@U?$pair@$$CBV?$basic_string@DU?$char_traits@D@std@@V?$allocator@D@2@@std@@H@std@@@std@@@2@$00@2@XZ 004424d0 f i CommonPathfindingLib:GraphicsBufferManager.obj
 0002:0001e510       ?_Get_second@?$_Compressed_pair@U?$less@V?$basic_string@DU?$char_traits@D@std@@V?$allocator@D@2@@std@@@std@@V?$_Compressed_pair@U?$_Wrap_alloc@V?$allocator@U?$_Tree_node@U?$pair@$$CBV?$basic_string@DU?$char_traits@D@std@@V?$allocator@D@2@@std@@H@std@@PAX@std@@@std@@@std@@V?$_Tree_val@U?$_Tree_simple_types@U?$pair@$$CBV?$basic_string@DU?$char_traits@D@std@@V?$allocator@D@2@@std@@H@std@@@std@@@2@$00@2@$00@std@@QBEABV?$_Compressed_pair@U?$_Wrap_alloc@V?$allocator@U?$_Tree_node@U?$pair@$$CBV?$basic_string@DU?$char_traits@D@std@@V?$allocator@D@2@@std@@H@std@@PAX@std@@@std@@@std@@V?$_Tree_val@U?$_Tree_simple_types@U?$pair@$$CBV?$basic_string@DU?$char_traits@D@std@@V?$allocator@D@2@@std@@H@std@@@std@@@2@$00@2@XZ 00442510 f i CommonPathfindingLib:GraphicsBufferManager.obj
 0002:0001e550       ?_Getal@?$_Tree_comp_alloc@V?$_Tmap_traits@HPAVGraphicsBuffer@@U?$less@H@std@@V?$allocator@U?$pair@$$CBHPAVGraphicsBuffer@@@std@@@3@$0A@@std@@@std@@QAEAAU?$_Wrap_alloc@V?$allocator@U?$_Tree_node@U?$pair@$$CBHPAVGraphicsBuffer@@@std@@PAX@std@@@std@@@2@XZ 00442550 f i CommonPathfindingLib:GraphicsBufferManager.obj
 0002:0001e5b0       ?_Getal@?$_Tree_comp_alloc@V?$_Tmap_traits@HPAVGraphicsBuffer@@U?$less@H@std@@V?$allocator@U?$pair@$$CBHPAVGraphicsBuffer@@@std@@@3@$0A@@std@@@std@@QBEABU?$_Wrap_alloc@V?$allocator@U?$_Tree_node@U?$pair@$$CBHPAVGraphicsBuffer@@@std@@PAX@std@@@std@@@2@XZ 004425b0 f i CommonPathfindingLib:GraphicsBufferManager.obj
 0002:0001e610       ?_Getal@?$_Tree_comp_alloc@V?$_Tmap_traits@V?$basic_string@DU?$char_traits@D@std@@V?$allocator@D@2@@std@@HU?$less@V?$basic_string@DU?$char_traits@D@std@@V?$allocator@D@2@@std@@@2@V?$allocator@U?$pair@$$CBV?$basic_string@DU?$char_traits@D@std@@V?$allocator@D@2@@std@@H@std@@@2@$0A@@std@@@std@@QAEAAU?$_Wrap_alloc@V?$allocator@U?$_Tree_node@U?$pair@$$CBV?$basic_string@DU?$char_traits@D@std@@V?$allocator@D@2@@std@@H@std@@PAX@std@@@std@@@2@XZ 00442610 f i CommonPathfindingLib:GraphicsBufferManager.obj
 0002:0001e670       ?_Getal@?$_Tree_comp_alloc@V?$_Tmap_traits@V?$basic_string@DU?$char_traits@D@std@@V?$allocator@D@2@@std@@HU?$less@V?$basic_string@DU?$char_traits@D@std@@V?$allocator@D@2@@std@@@2@V?$allocator@U?$pair@$$CBV?$basic_string@DU?$char_traits@D@std@@V?$allocator@D@2@@std@@H@std@@@2@$0A@@std@@@std@@QBEABU?$_Wrap_alloc@V?$allocator@U?$_Tree_node@U?$pair@$$CBV?$basic_string@DU?$char_traits@D@std@@V?$allocator@D@2@@std@@H@std@@PAX@std@@@std@@@2@XZ 00442670 f i CommonPathfindingLib:GraphicsBufferManager.obj
 0002:0001e6d0       ?_Getcomp@?$_Tree_comp_alloc@V?$_Tmap_traits@HPAVGraphicsBuffer@@U?$less@H@std@@V?$allocator@U?$pair@$$CBHPAVGraphicsBuffer@@@std@@@3@$0A@@std@@@std@@QAEAAU?$less@H@2@XZ 004426d0 f i CommonPathfindingLib:GraphicsBufferManager.obj
 0002:0001e720       ?_Getcomp@?$_Tree_comp_alloc@V?$_Tmap_traits@HPAVGraphicsBuffer@@U?$less@H@std@@V?$allocator@U?$pair@$$CBHPAVGraphicsBuffer@@@std@@@3@$0A@@std@@@std@@QBEABU?$less@H@2@XZ 00442720 f i CommonPathfindingLib:GraphicsBufferManager.obj
 0002:0001e770       ?_Getcomp@?$_Tree_comp_alloc@V?$_Tmap_traits@V?$basic_string@DU?$char_traits@D@std@@V?$allocator@D@2@@std@@HU?$less@V?$basic_string@DU?$char_traits@D@std@@V?$allocator@D@2@@std@@@2@V?$allocator@U?$pair@$$CBV?$basic_string@DU?$char_traits@D@std@@V?$allocator@D@2@@std@@H@std@@@2@$0A@@std@@@std@@QAEAAU?$less@V?$basic_string@DU?$char_traits@D@std@@V?$allocator@D@2@@std@@@2@XZ 00442770 f i CommonPathfindingLib:GraphicsBufferManager.obj
 0002:0001e7c0       ?_Getcomp@?$_Tree_comp_alloc@V?$_Tmap_traits@V?$basic_string@DU?$char_traits@D@std@@V?$allocator@D@2@@std@@HU?$less@V?$basic_string@DU?$char_traits@D@std@@V?$allocator@D@2@@std@@@2@V?$allocator@U?$pair@$$CBV?$basic_string@DU?$char_traits@D@std@@V?$allocator@D@2@@std@@H@std@@@2@$0A@@std@@@std@@QBEABU?$less@V?$basic_string@DU?$char_traits@D@std@@V?$allocator@D@2@@std@@@2@XZ 004427c0 f i CommonPathfindingLib:GraphicsBufferManager.obj
 0002:0001e810       ?_Getpfirst@?$_Tree_comp_alloc@V?$_Tmap_traits@HPAVGraphicsBuffer@@U?$less@H@std@@V?$allocator@U?$pair@$$CBHPAVGraphicsBuffer@@@std@@@3@$0A@@std@@@std@@QBEPAPAU_Iterator_base12@2@XZ 00442810 f i CommonPathfindingLib:GraphicsBufferManager.obj
 0002:0001e870       ?_Getpfirst@?$_Tree_comp_alloc@V?$_Tmap_traits@V?$basic_string@DU?$char_traits@D@std@@V?$allocator@D@2@@std@@HU?$less@V?$basic_string@DU?$char_traits@D@std@@V?$allocator@D@2@@std@@@2@V?$allocator@U?$pair@$$CBV?$basic_string@DU?$char_traits@D@std@@V?$allocator@D@2@@std@@H@std@@@2@$0A@@std@@@std@@QBEPAPAU_Iterator_base12@2@XZ 00442870 f i CommonPathfindingLib:GraphicsBufferManager.obj
 0002:0001e8d0       ?_Getpfirst@_Container_base12@std@@QBEPAPAU_Iterator_base12@2@XZ 004428d0 f i CommonPathfindingLib:GraphicsBufferManager.obj
 0002:0001e940       ?_Getpnext@_Iterator_base12@std@@QAEPAPAU12@XZ 00442940 f i CommonPathfindingLib:GraphicsBufferManager.obj
 0002:0001e980       ?_Isnil@?$_Tree_comp_alloc@V?$_Tmap_traits@HPAVGraphicsBuffer@@U?$less@H@std@@V?$allocator@U?$pair@$$CBHPAVGraphicsBuffer@@@std@@@3@$0A@@std@@@std@@SAAADPAU?$_Tree_node@U?$pair@$$CBHPAVGraphicsBuffer@@@std@@PAX@2@@Z 00442980 f i CommonPathfindingLib:GraphicsBufferManager.obj
 0002:0001e9d0       ?_Isnil@?$_Tree_comp_alloc@V?$_Tmap_traits@V?$basic_string@DU?$char_traits@D@std@@V?$allocator@D@2@@std@@HU?$less@V?$basic_string@DU?$char_traits@D@std@@V?$allocator@D@2@@std@@@2@V?$allocator@U?$pair@$$CBV?$basic_string@DU?$char_traits@D@std@@V?$allocator@D@2@@std@@H@std@@@2@$0A@@std@@@std@@SAAADPAU?$_Tree_node@U?$pair@$$CBV?$basic_string@DU?$char_traits@D@std@@V?$allocator@D@2@@std@@H@std@@PAX@2@@Z 004429d0 f i CommonPathfindingLib:GraphicsBufferManager.obj
 0002:0001ea20       ?_Isnil@?$_Tree_val@U?$_Tree_simple_types@U?$pair@$$CBHPAVGraphicsBuffer@@@std@@@std@@@std@@SAAADPAU?$_Tree_node@U?$pair@$$CBHPAVGraphicsBuffer@@@std@@PAX@2@@Z 00442a20 f i CommonPathfindingLib:GraphicsBufferManager.obj
 0002:0001ea60       ?_Isnil@?$_Tree_val@U?$_Tree_simple_types@U?$pair@$$CBV?$basic_string@DU?$char_traits@D@std@@V?$allocator@D@2@@std@@H@std@@@std@@@std@@SAAADPAU?$_Tree_node@U?$pair@$$CBV?$basic_string@DU?$char_traits@D@std@@V?$allocator@D@2@@std@@H@std@@PAX@2@@Z 00442a60 f i CommonPathfindingLib:GraphicsBufferManager.obj
 0002:0001eaa0       ?_Key@?$_Tree@V?$_Tmap_traits@HPAVGraphicsBuffer@@U?$less@H@std@@V?$allocator@U?$pair@$$CBHPAVGraphicsBuffer@@@std@@@3@$0A@@std@@@std@@IBEABHPAU?$_Tree_node@U?$pair@$$CBHPAVGraphicsBuffer@@@std@@PAX@2@@Z 00442aa0 f i CommonPathfindingLib:GraphicsBufferManager.obj
 0002:0001eb10       ?_Key@?$_Tree@V?$_Tmap_traits@V?$basic_string@DU?$char_traits@D@std@@V?$allocator@D@2@@std@@HU?$less@V?$basic_string@DU?$char_traits@D@std@@V?$allocator@D@2@@std@@@2@V?$allocator@U?$pair@$$CBV?$basic_string@DU?$char_traits@D@std@@V?$allocator@D@2@@std@@H@std@@@2@$0A@@std@@@std@@IBEABV?$basic_string@DU?$char_traits@D@std@@V?$allocator@D@2@@2@PAU?$_Tree_node@U?$pair@$$CBV?$basic_string@DU?$char_traits@D@std@@V?$allocator@D@2@@std@@H@std@@PAX@2@@Z 00442b10 f i CommonPathfindingLib:GraphicsBufferManager.obj
 0002:0001eb80       ?_Kfn@?$_Tree@V?$_Tmap_traits@HPAVGraphicsBuffer@@U?$less@H@std@@V?$allocator@U?$pair@$$CBHPAVGraphicsBuffer@@@std@@@3@$0A@@std@@@std@@IBEABHABU?$pair@$$CBHPAVGraphicsBuffer@@@2@@Z 00442b80 f i CommonPathfindingLib:GraphicsBufferManager.obj
 0002:0001ebe0       ?_Kfn@?$_Tree@V?$_Tmap_traits@V?$basic_string@DU?$char_traits@D@std@@V?$allocator@D@2@@std@@HU?$less@V?$basic_string@DU?$char_traits@D@std@@V?$allocator@D@2@@std@@@2@V?$allocator@U?$pair@$$CBV?$basic_string@DU?$char_traits@D@std@@V?$allocator@D@2@@std@@H@std@@@2@$0A@@std@@@std@@IBEABV?$basic_string@DU?$char_traits@D@std@@V?$allocator@D@2@@2@ABU?$pair@$$CBV?$basic_string@DU?$char_traits@D@std@@V?$allocator@D@2@@std@@H@2@@Z 00442be0 f i CommonPathfindingLib:GraphicsBufferManager.obj
 0002:0001ec40       ?_Left@?$_Tree_comp_alloc@V?$_Tmap_traits@HPAVGraphicsBuffer@@U?$less@H@std@@V?$allocator@U?$pair@$$CBHPAVGraphicsBuffer@@@std@@@3@$0A@@std@@@std@@SAAAPAU?$_Tree_node@U?$pair@$$CBHPAVGraphicsBuffer@@@std@@PAX@2@PAU32@@Z 00442c40 f i CommonPathfindingLib:GraphicsBufferManager.obj
 0002:0001ec90       ?_Left@?$_Tree_comp_alloc@V?$_Tmap_traits@V?$basic_string@DU?$char_traits@D@std@@V?$allocator@D@2@@std@@HU?$less@V?$basic_string@DU?$char_traits@D@std@@V?$allocator@D@2@@std@@@2@V?$allocator@U?$pair@$$CBV?$basic_string@DU?$char_traits@D@std@@V?$allocator@D@2@@std@@H@std@@@2@$0A@@std@@@std@@SAAAPAU?$_Tree_node@U?$pair@$$CBV?$basic_string@DU?$char_traits@D@std@@V?$allocator@D@2@@std@@H@std@@PAX@2@PAU32@@Z 00442c90 f i CommonPathfindingLib:GraphicsBufferManager.obj
 0002:0001ece0       ?_Left@?$_Tree_val@U?$_Tree_simple_types@U?$pair@$$CBHPAVGraphicsBuffer@@@std@@@std@@@std@@SAAAPAU?$_Tree_node@U?$pair@$$CBHPAVGraphicsBuffer@@@std@@PAX@2@PAU32@@Z 00442ce0 f i CommonPathfindingLib:GraphicsBufferManager.obj
 0002:0001ed20       ?_Left@?$_Tree_val@U?$_Tree_simple_types@U?$pair@$$CBV?$basic_string@DU?$char_traits@D@std@@V?$allocator@D@2@@std@@H@std@@@std@@@std@@SAAAPAU?$_Tree_node@U?$pair@$$CBV?$basic_string@DU?$char_traits@D@std@@V?$allocator@D@2@@std@@H@std@@PAX@2@PAU32@@Z 00442d20 f i CommonPathfindingLib:GraphicsBufferManager.obj
 0002:0001ed60       ?_Lmost@?$_Tree@V?$_Tmap_traits@HPAVGraphicsBuffer@@U?$less@H@std@@V?$allocator@U?$pair@$$CBHPAVGraphicsBuffer@@@std@@@3@$0A@@std@@@std@@IBEAAPAU?$_Tree_node@U?$pair@$$CBHPAVGraphicsBuffer@@@std@@PAX@2@XZ 00442d60 f i CommonPathfindingLib:GraphicsBufferManager.obj
 0002:0001edc0       ?_Lmost@?$_Tree@V?$_Tmap_traits@V?$basic_string@DU?$char_traits@D@std@@V?$allocator@D@2@@std@@HU?$less@V?$basic_string@DU?$char_traits@D@std@@V?$allocator@D@2@@std@@@2@V?$allocator@U?$pair@$$CBV?$basic_string@DU?$char_traits@D@std@@V?$allocator@D@2@@std@@H@std@@@2@$0A@@std@@@std@@IBEAAPAU?$_Tree_node@U?$pair@$$CBV?$basic_string@DU?$char_traits@D@std@@V?$allocator@D@2@@std@@H@std@@PAX@2@XZ 00442dc0 f i CommonPathfindingLib:GraphicsBufferManager.obj
 0002:0001ee20       ?_Lrotate@?$_Tree@V?$_Tmap_traits@HPAVGraphicsBuffer@@U?$less@H@std@@V?$allocator@U?$pair@$$CBHPAVGraphicsBuffer@@@std@@@3@$0A@@std@@@std@@IAEXPAU?$_Tree_node@U?$pair@$$CBHPAVGraphicsBuffer@@@std@@PAX@2@@Z 00442e20 f i CommonPathfindingLib:GraphicsBufferManager.obj
 0002:0001efd0       ?_Lrotate@?$_Tree@V?$_Tmap_traits@V?$basic_string@DU?$char_traits@D@std@@V?$allocator@D@2@@std@@HU?$less@V?$basic_string@DU?$char_traits@D@std@@V?$allocator@D@2@@std@@@2@V?$allocator@U?$pair@$$CBV?$basic_string@DU?$char_traits@D@std@@V?$allocator@D@2@@std@@H@std@@@2@$0A@@std@@@std@@IAEXPAU?$_Tree_node@U?$pair@$$CBV?$basic_string@DU?$char_traits@D@std@@V?$allocator@D@2@@std@@H@std@@PAX@2@@Z 00442fd0 f i CommonPathfindingLib:GraphicsBufferManager.obj
 0002:0001f180       ?_Max@?$_Tree_comp_alloc@V?$_Tmap_traits@HPAVGraphicsBuffer@@U?$less@H@std@@V?$allocator@U?$pair@$$CBHPAVGraphicsBuffer@@@std@@@3@$0A@@std@@@std@@SAPAU?$_Tree_node@U?$pair@$$CBHPAVGraphicsBuffer@@@std@@PAX@2@PAU32@@Z 00443180 f i CommonPathfindingLib:GraphicsBufferManager.obj
 0002:0001f1d0       ?_Max@?$_Tree_comp_alloc@V?$_Tmap_traits@V?$basic_string@DU?$char_traits@D@std@@V?$allocator@D@2@@std@@HU?$less@V?$basic_string@DU?$char_traits@D@std@@V?$allocator@D@2@@std@@@2@V?$allocator@U?$pair@$$CBV?$basic_string@DU?$char_traits@D@std@@V?$allocator@D@2@@std@@H@std@@@2@$0A@@std@@@std@@SAPAU?$_Tree_node@U?$pair@$$CBV?$basic_string@DU?$char_traits@D@std@@V?$allocator@D@2@@std@@H@std@@PAX@2@PAU32@@Z 004431d0 f i CommonPathfindingLib:GraphicsBufferManager.obj
 0002:0001f220       ?_Max@?$_Tree_val@U?$_Tree_simple_types@U?$pair@$$CBHPAVGraphicsBuffer@@@std@@@std@@@std@@SAPAU?$_Tree_node@U?$pair@$$CBHPAVGraphicsBuffer@@@std@@PAX@2@PAU32@@Z 00443220 f i CommonPathfindingLib:GraphicsBufferManager.obj
 0002:0001f2a0       ?_Max@?$_Tree_val@U?$_Tree_simple_types@U?$pair@$$CBV?$basic_string@DU?$char_traits@D@std@@V?$allocator@D@2@@std@@H@std@@@std@@@std@@SAPAU?$_Tree_node@U?$pair@$$CBV?$basic_string@DU?$char_traits@D@std@@V?$allocator@D@2@@std@@H@std@@PAX@2@PAU32@@Z 004432a0 f i CommonPathfindingLib:GraphicsBufferManager.obj
 0002:0001f320       ?_Min@?$_Tree_comp_alloc@V?$_Tmap_traits@HPAVGraphicsBuffer@@U?$less@H@std@@V?$allocator@U?$pair@$$CBHPAVGraphicsBuffer@@@std@@@3@$0A@@std@@@std@@SAPAU?$_Tree_node@U?$pair@$$CBHPAVGraphicsBuffer@@@std@@PAX@2@PAU32@@Z 00443320 f i CommonPathfindingLib:GraphicsBufferManager.obj
 0002:0001f370       ?_Min@?$_Tree_comp_alloc@V?$_Tmap_traits@V?$basic_string@DU?$char_traits@D@std@@V?$allocator@D@2@@std@@HU?$less@V?$basic_string@DU?$char_traits@D@std@@V?$allocator@D@2@@std@@@2@V?$allocator@U?$pair@$$CBV?$basic_string@DU?$char_traits@D@std@@V?$allocator@D@2@@std@@H@std@@@2@$0A@@std@@@std@@SAPAU?$_Tree_node@U?$pair@$$CBV?$basic_string@DU?$char_traits@D@std@@V?$allocator@D@2@@std@@H@std@@PAX@2@PAU32@@Z 00443370 f i CommonPathfindingLib:GraphicsBufferManager.obj
 0002:0001f3c0       ?_Min@?$_Tree_val@U?$_Tree_simple_types@U?$pair@$$CBHPAVGraphicsBuffer@@@std@@@std@@@std@@SAPAU?$_Tree_node@U?$pair@$$CBHPAVGraphicsBuffer@@@std@@PAX@2@PAU32@@Z 004433c0 f i CommonPathfindingLib:GraphicsBufferManager.obj
 0002:0001f440       ?_Min@?$_Tree_val@U?$_Tree_simple_types@U?$pair@$$CBV?$basic_string@DU?$char_traits@D@std@@V?$allocator@D@2@@std@@H@std@@@std@@@std@@SAPAU?$_Tree_node@U?$pair@$$CBV?$basic_string@DU?$char_traits@D@std@@V?$allocator@D@2@@std@@H@std@@PAX@2@PAU32@@Z 00443440 f i CommonPathfindingLib:GraphicsBufferManager.obj
 0002:0001f4c0       ?_Myhead@?$_Tree_comp_alloc@V?$_Tmap_traits@HPAVGraphicsBuffer@@U?$less@H@std@@V?$allocator@U?$pair@$$CBHPAVGraphicsBuffer@@@std@@@3@$0A@@std@@@std@@QAEAAPAU?$_Tree_node@U?$pair@$$CBHPAVGraphicsBuffer@@@std@@PAX@2@XZ 004434c0 f i CommonPathfindingLib:GraphicsBufferManager.obj
 0002:0001f520       ?_Myhead@?$_Tree_comp_alloc@V?$_Tmap_traits@HPAVGraphicsBuffer@@U?$less@H@std@@V?$allocator@U?$pair@$$CBHPAVGraphicsBuffer@@@std@@@3@$0A@@std@@@std@@QBEABQAU?$_Tree_node@U?$pair@$$CBHPAVGraphicsBuffer@@@std@@PAX@2@XZ 00443520 f i CommonPathfindingLib:GraphicsBufferManager.obj
 0002:0001f580       ?_Myhead@?$_Tree_comp_alloc@V?$_Tmap_traits@V?$basic_string@DU?$char_traits@D@std@@V?$allocator@D@2@@std@@HU?$less@V?$basic_string@DU?$char_traits@D@std@@V?$allocator@D@2@@std@@@2@V?$allocator@U?$pair@$$CBV?$basic_string@DU?$char_traits@D@std@@V?$allocator@D@2@@std@@H@std@@@2@$0A@@std@@@std@@QAEAAPAU?$_Tree_node@U?$pair@$$CBV?$basic_string@DU?$char_traits@D@std@@V?$allocator@D@2@@std@@H@std@@PAX@2@XZ 00443580 f i CommonPathfindingLib:GraphicsBufferManager.obj
 0002:0001f5e0       ?_Myhead@?$_Tree_comp_alloc@V?$_Tmap_traits@V?$basic_string@DU?$char_traits@D@std@@V?$allocator@D@2@@std@@HU?$less@V?$basic_string@DU?$char_traits@D@std@@V?$allocator@D@2@@std@@@2@V?$allocator@U?$pair@$$CBV?$basic_string@DU?$char_traits@D@std@@V?$allocator@D@2@@std@@H@std@@@2@$0A@@std@@@std@@QBEABQAU?$_Tree_node@U?$pair@$$CBV?$basic_string@DU?$char_traits@D@std@@V?$allocator@D@2@@std@@H@std@@PAX@2@XZ 004435e0 f i CommonPathfindingLib:GraphicsBufferManager.obj
 0002:0001f640       ?_Mynode@?$_Tree_unchecked_const_iterator@V?$_Tree_val@U?$_Tree_simple_types@U?$pair@$$CBHPAVGraphicsBuffer@@@std@@@std@@@std@@U_Iterator_base12@2@@std@@QBEPAU?$_Tree_node@U?$pair@$$CBHPAVGraphicsBuffer@@@std@@PAX@2@XZ 00443640 f i CommonPathfindingLib:GraphicsBufferManager.obj
 0002:0001f680       ?_Mynode@?$_Tree_unchecked_const_iterator@V?$_Tree_val@U?$_Tree_simple_types@U?$pair@$$CBV?$basic_string@DU?$char_traits@D@std@@V?$allocator@D@2@@std@@H@std@@@std@@@std@@U_Iterator_base12@2@@std@@QBEPAU?$_Tree_node@U?$pair@$$CBV?$basic_string@DU?$char_traits@D@std@@V?$allocator@D@2@@std@@H@std@@PAX@2@XZ 00443680 f i CommonPathfindingLib:GraphicsBufferManager.obj
 0002:0001f6c0       ?_Myproxy@?$_Tree_comp_alloc@V?$_Tmap_traits@HPAVGraphicsBuffer@@U?$less@H@std@@V?$allocator@U?$pair@$$CBHPAVGraphicsBuffer@@@std@@@3@$0A@@std@@@std@@QAEAAPAU_Container_proxy@2@XZ 004436c0 f i CommonPathfindingLib:GraphicsBufferManager.obj
 0002:0001f710       ?_Myproxy@?$_Tree_comp_alloc@V?$_Tmap_traits@V?$basic_string@DU?$char_traits@D@std@@V?$allocator@D@2@@std@@HU?$less@V?$basic_string@DU?$char_traits@D@std@@V?$allocator@D@2@@std@@@2@V?$allocator@U?$pair@$$CBV?$basic_string@DU?$char_traits@D@std@@V?$allocator@D@2@@std@@H@std@@@2@$0A@@std@@@std@@QAEAAPAU_Container_proxy@2@XZ 00443710 f i CommonPathfindingLib:GraphicsBufferManager.obj
 0002:0001f760       ?_Mysize@?$_Tree_comp_alloc@V?$_Tmap_traits@HPAVGraphicsBuffer@@U?$less@H@std@@V?$allocator@U?$pair@$$CBHPAVGraphicsBuffer@@@std@@@3@$0A@@std@@@std@@QAEAAIXZ 00443760 f i CommonPathfindingLib:GraphicsBufferManager.obj
 0002:0001f7c0       ?_Mysize@?$_Tree_comp_alloc@V?$_Tmap_traits@HPAVGraphicsBuffer@@U?$less@H@std@@V?$allocator@U?$pair@$$CBHPAVGraphicsBuffer@@@std@@@3@$0A@@std@@@std@@QBEABIXZ 004437c0 f i CommonPathfindingLib:GraphicsBufferManager.obj
 0002:0001f820       ?_Mysize@?$_Tree_comp_alloc@V?$_Tmap_traits@V?$basic_string@DU?$char_traits@D@std@@V?$allocator@D@2@@std@@HU?$less@V?$basic_string@DU?$char_traits@D@std@@V?$allocator@D@2@@std@@@2@V?$allocator@U?$pair@$$CBV?$basic_string@DU?$char_traits@D@std@@V?$allocator@D@2@@std@@H@std@@@2@$0A@@std@@@std@@QAEAAIXZ 00443820 f i CommonPathfindingLib:GraphicsBufferManager.obj
 0002:0001f880       ?_Mysize@?$_Tree_comp_alloc@V?$_Tmap_traits@V?$basic_string@DU?$char_traits@D@std@@V?$allocator@D@2@@std@@HU?$less@V?$basic_string@DU?$char_traits@D@std@@V?$allocator@D@2@@std@@@2@V?$allocator@U?$pair@$$CBV?$basic_string@DU?$char_traits@D@std@@V?$allocator@D@2@@std@@H@std@@@2@$0A@@std@@@std@@QBEABIXZ 00443880 f i CommonPathfindingLib:GraphicsBufferManager.obj
 0002:0001f8e0       ?_Myval@?$_Tree_comp_alloc@V?$_Tmap_traits@HPAVGraphicsBuffer@@U?$less@H@std@@V?$allocator@U?$pair@$$CBHPAVGraphicsBuffer@@@std@@@3@$0A@@std@@@std@@SAAAU?$pair@$$CBHPAVGraphicsBuffer@@@2@PAU?$_Tree_node@U?$pair@$$CBHPAVGraphicsBuffer@@@std@@PAX@2@@Z 004438e0 f i CommonPathfindingLib:GraphicsBufferManager.obj
 0002:0001f930       ?_Myval@?$_Tree_comp_alloc@V?$_Tmap_traits@V?$basic_string@DU?$char_traits@D@std@@V?$allocator@D@2@@std@@HU?$less@V?$basic_string@DU?$char_traits@D@std@@V?$allocator@D@2@@std@@@2@V?$allocator@U?$pair@$$CBV?$basic_string@DU?$char_traits@D@std@@V?$allocator@D@2@@std@@H@std@@@2@$0A@@std@@@std@@SAAAU?$pair@$$CBV?$basic_string@DU?$char_traits@D@std@@V?$allocator@D@2@@std@@H@2@PAU?$_Tree_node@U?$pair@$$CBV?$basic_string@DU?$char_traits@D@std@@V?$allocator@D@2@@std@@H@std@@PAX@2@@Z 00443930 f i CommonPathfindingLib:GraphicsBufferManager.obj
 0002:0001f980       ?_Myval@?$_Tree_val@U?$_Tree_simple_types@U?$pair@$$CBHPAVGraphicsBuffer@@@std@@@std@@@std@@SAAAU?$pair@$$CBHPAVGraphicsBuffer@@@2@PAU?$_Tree_node@U?$pair@$$CBHPAVGraphicsBuffer@@@std@@PAX@2@@Z 00443980 f i CommonPathfindingLib:GraphicsBufferManager.obj
 0002:0001f9c0       ?_Myval@?$_Tree_val@U?$_Tree_simple_types@U?$pair@$$CBV?$basic_string@DU?$char_traits@D@std@@V?$allocator@D@2@@std@@H@std@@@std@@@std@@SAAAU?$pair@$$CBV?$basic_string@DU?$char_traits@D@std@@V?$allocator@D@2@@std@@H@2@PAU?$_Tree_node@U?$pair@$$CBV?$basic_string@DU?$char_traits@D@std@@V?$allocator@D@2@@std@@H@std@@PAX@2@@Z 004439c0 f i CommonPathfindingLib:GraphicsBufferManager.obj
 0002:0001fa00       ?_Orphan_all@?$_Tree_comp_alloc@V?$_Tmap_traits@HPAVGraphicsBuffer@@U?$less@H@std@@V?$allocator@U?$pair@$$CBHPAVGraphicsBuffer@@@std@@@3@$0A@@std@@@std@@QAEXXZ 00443a00 f i CommonPathfindingLib:GraphicsBufferManager.obj
 0002:0001fa60       ?_Orphan_all@?$_Tree_comp_alloc@V?$_Tmap_traits@V?$basic_string@DU?$char_traits@D@std@@V?$allocator@D@2@@std@@HU?$less@V?$basic_string@DU?$char_traits@D@std@@V?$allocator@D@2@@std@@@2@V?$allocator@U?$pair@$$CBV?$basic_string@DU?$char_traits@D@std@@V?$allocator@D@2@@std@@H@std@@@2@$0A@@std@@@std@@QAEXXZ 00443a60 f i CommonPathfindingLib:GraphicsBufferManager.obj
 0002:0001fac0       ?_Orphan_ptr@?$_Tree@V?$_Tmap_traits@HPAVGraphicsBuffer@@U?$less@H@std@@V?$allocator@U?$pair@$$CBHPAVGraphicsBuffer@@@std@@@3@$0A@@std@@@std@@IAEXPAU?$_Tree_node@U?$pair@$$CBHPAVGraphicsBuffer@@@std@@PAX@2@@Z 00443ac0 f i CommonPathfindingLib:GraphicsBufferManager.obj
 0002:0001fc40       ?_Orphan_ptr@?$_Tree@V?$_Tmap_traits@V?$basic_string@DU?$char_traits@D@std@@V?$allocator@D@2@@std@@HU?$less@V?$basic_string@DU?$char_traits@D@std@@V?$allocator@D@2@@std@@@2@V?$allocator@U?$pair@$$CBV?$basic_string@DU?$char_traits@D@std@@V?$allocator@D@2@@std@@H@std@@@2@$0A@@std@@@std@@IAEXPAU?$_Tree_node@U?$pair@$$CBV?$basic_string@DU?$char_traits@D@std@@V?$allocator@D@2@@std@@H@std@@PAX@2@@Z 00443c40 f i CommonPathfindingLib:GraphicsBufferManager.obj
 0002:0001fdc0       ?_Parent@?$_Tree_comp_alloc@V?$_Tmap_traits@HPAVGraphicsBuffer@@U?$less@H@std@@V?$allocator@U?$pair@$$CBHPAVGraphicsBuffer@@@std@@@3@$0A@@std@@@std@@SAAAPAU?$_Tree_node@U?$pair@$$CBHPAVGraphicsBuffer@@@std@@PAX@2@PAU32@@Z 00443dc0 f i CommonPathfindingLib:GraphicsBufferManager.obj
 0002:0001fe10       ?_Parent@?$_Tree_comp_alloc@V?$_Tmap_traits@V?$basic_string@DU?$char_traits@D@std@@V?$allocator@D@2@@std@@HU?$less@V?$basic_string@DU?$char_traits@D@std@@V?$allocator@D@2@@std@@@2@V?$allocator@U?$pair@$$CBV?$basic_string@DU?$char_traits@D@std@@V?$allocator@D@2@@std@@H@std@@@2@$0A@@std@@@std@@SAAAPAU?$_Tree_node@U?$pair@$$CBV?$basic_string@DU?$char_traits@D@std@@V?$allocator@D@2@@std@@H@std@@PAX@2@PAU32@@Z 00443e10 f i CommonPathfindingLib:GraphicsBufferManager.obj
 0002:0001fe60       ?_Parent@?$_Tree_val@U?$_Tree_simple_types@U?$pair@$$CBHPAVGraphicsBuffer@@@std@@@std@@@std@@SAAAPAU?$_Tree_node@U?$pair@$$CBHPAVGraphicsBuffer@@@std@@PAX@2@PAU32@@Z 00443e60 f i CommonPathfindingLib:GraphicsBufferManager.obj
 0002:0001fea0       ?_Parent@?$_Tree_val@U?$_Tree_simple_types@U?$pair@$$CBV?$basic_string@DU?$char_traits@D@std@@V?$allocator@D@2@@std@@H@std@@@std@@@std@@SAAAPAU?$_Tree_node@U?$pair@$$CBV?$basic_string@DU?$char_traits@D@std@@V?$allocator@D@2@@std@@H@std@@PAX@2@PAU32@@Z 00443ea0 f i CommonPathfindingLib:GraphicsBufferManager.obj
 0002:0001fee0       ?_Right@?$_Tree_comp_alloc@V?$_Tmap_traits@HPAVGraphicsBuffer@@U?$less@H@std@@V?$allocator@U?$pair@$$CBHPAVGraphicsBuffer@@@std@@@3@$0A@@std@@@std@@SAAAPAU?$_Tree_node@U?$pair@$$CBHPAVGraphicsBuffer@@@std@@PAX@2@PAU32@@Z 00443ee0 f i CommonPathfindingLib:GraphicsBufferManager.obj
 0002:0001ff30       ?_Right@?$_Tree_comp_alloc@V?$_Tmap_traits@V?$basic_string@DU?$char_traits@D@std@@V?$allocator@D@2@@std@@HU?$less@V?$basic_string@DU?$char_traits@D@std@@V?$allocator@D@2@@std@@@2@V?$allocator@U?$pair@$$CBV?$basic_string@DU?$char_traits@D@std@@V?$allocator@D@2@@std@@H@std@@@2@$0A@@std@@@std@@SAAAPAU?$_Tree_node@U?$pair@$$CBV?$basic_string@DU?$char_traits@D@std@@V?$allocator@D@2@@std@@H@std@@PAX@2@PAU32@@Z 00443f30 f i CommonPathfindingLib:GraphicsBufferManager.obj
 0002:0001ff80       ?_Right@?$_Tree_val@U?$_Tree_simple_types@U?$pair@$$CBHPAVGraphicsBuffer@@@std@@@std@@@std@@SAAAPAU?$_Tree_node@U?$pair@$$CBHPAVGraphicsBuffer@@@std@@PAX@2@PAU32@@Z 00443f80 f i CommonPathfindingLib:GraphicsBufferManager.obj
 0002:0001ffc0       ?_Right@?$_Tree_val@U?$_Tree_simple_types@U?$pair@$$CBV?$basic_string@DU?$char_traits@D@std@@V?$allocator@D@2@@std@@H@std@@@std@@@std@@SAAAPAU?$_Tree_node@U?$pair@$$CBV?$basic_string@DU?$char_traits@D@std@@V?$allocator@D@2@@std@@H@std@@PAX@2@PAU32@@Z 00443fc0 f i CommonPathfindingLib:GraphicsBufferManager.obj
 0002:00020000       ?_Rmost@?$_Tree@V?$_Tmap_traits@HPAVGraphicsBuffer@@U?$less@H@std@@V?$allocator@U?$pair@$$CBHPAVGraphicsBuffer@@@std@@@3@$0A@@std@@@std@@IBEAAPAU?$_Tree_node@U?$pair@$$CBHPAVGraphicsBuffer@@@std@@PAX@2@XZ 00444000 f i CommonPathfindingLib:GraphicsBufferManager.obj
 0002:00020060       ?_Rmost@?$_Tree@V?$_Tmap_traits@V?$basic_string@DU?$char_traits@D@std@@V?$allocator@D@2@@std@@HU?$less@V?$basic_string@DU?$char_traits@D@std@@V?$allocator@D@2@@std@@@2@V?$allocator@U?$pair@$$CBV?$basic_string@DU?$char_traits@D@std@@V?$allocator@D@2@@std@@H@std@@@2@$0A@@std@@@std@@IBEAAPAU?$_Tree_node@U?$pair@$$CBV?$basic_string@DU?$char_traits@D@std@@V?$allocator@D@2@@std@@H@std@@PAX@2@XZ 00444060 f i CommonPathfindingLib:GraphicsBufferManager.obj
 0002:000200c0       ?_Root@?$_Tree@V?$_Tmap_traits@HPAVGraphicsBuffer@@U?$less@H@std@@V?$allocator@U?$pair@$$CBHPAVGraphicsBuffer@@@std@@@3@$0A@@std@@@std@@IBEAAPAU?$_Tree_node@U?$pair@$$CBHPAVGraphicsBuffer@@@std@@PAX@2@XZ 004440c0 f i CommonPathfindingLib:GraphicsBufferManager.obj
 0002:00020120       ?_Root@?$_Tree@V?$_Tmap_traits@V?$basic_string@DU?$char_traits@D@std@@V?$allocator@D@2@@std@@HU?$less@V?$basic_string@DU?$char_traits@D@std@@V?$allocator@D@2@@std@@@2@V?$allocator@U?$pair@$$CBV?$basic_string@DU?$char_traits@D@std@@V?$allocator@D@2@@std@@H@std@@@2@$0A@@std@@@std@@IBEAAPAU?$_Tree_node@U?$pair@$$CBV?$basic_string@DU?$char_traits@D@std@@V?$allocator@D@2@@std@@H@std@@PAX@2@XZ 00444120 f i CommonPathfindingLib:GraphicsBufferManager.obj
 0002:00020180       ?_Rrotate@?$_Tree@V?$_Tmap_traits@HPAVGraphicsBuffer@@U?$less@H@std@@V?$allocator@U?$pair@$$CBHPAVGraphicsBuffer@@@std@@@3@$0A@@std@@@std@@IAEXPAU?$_Tree_node@U?$pair@$$CBHPAVGraphicsBuffer@@@std@@PAX@2@@Z 00444180 f i CommonPathfindingLib:GraphicsBufferManager.obj
 0002:00020330       ?_Rrotate@?$_Tree@V?$_Tmap_traits@V?$basic_string@DU?$char_traits@D@std@@V?$allocator@D@2@@std@@HU?$less@V?$basic_string@DU?$char_traits@D@std@@V?$allocator@D@2@@std@@@2@V?$allocator@U?$pair@$$CBV?$basic_string@DU?$char_traits@D@std@@V?$allocator@D@2@@std@@H@std@@@2@$0A@@std@@@std@@IAEXPAU?$_Tree_node@U?$pair@$$CBV?$basic_string@DU?$char_traits@D@std@@V?$allocator@D@2@@std@@H@std@@PAX@2@@Z 00444330 f i CommonPathfindingLib:GraphicsBufferManager.obj
 0002:000204e0       ?_Tidy@?$_Tree@V?$_Tmap_traits@HPAVGraphicsBuffer@@U?$less@H@std@@V?$allocator@U?$pair@$$CBHPAVGraphicsBuffer@@@std@@@3@$0A@@std@@@std@@IAEXXZ 004444e0 f i CommonPathfindingLib:GraphicsBufferManager.obj
 0002:00020660       ?_Tidy@?$_Tree@V?$_Tmap_traits@V?$basic_string@DU?$char_traits@D@std@@V?$allocator@D@2@@std@@HU?$less@V?$basic_string@DU?$char_traits@D@std@@V?$allocator@D@2@@std@@@2@V?$allocator@U?$pair@$$CBV?$basic_string@DU?$char_traits@D@std@@V?$allocator@D@2@@std@@H@std@@@2@$0A@@std@@@std@@IAEXXZ 00444660 f i CommonPathfindingLib:GraphicsBufferManager.obj
 0002:000207e0       ?allocate@?$_Wrap_alloc@V?$allocator@U?$_Tree_node@U?$pair@$$CBHPAVGraphicsBuffer@@@std@@PAX@std@@@std@@@std@@QAEPAU?$_Tree_node@U?$pair@$$CBHPAVGraphicsBuffer@@@std@@PAX@2@I@Z 004447e0 f i CommonPathfindingLib:GraphicsBufferManager.obj
 0002:00020840       ?allocate@?$_Wrap_alloc@V?$allocator@U?$_Tree_node@U?$pair@$$CBV?$basic_string@DU?$char_traits@D@std@@V?$allocator@D@2@@std@@H@std@@PAX@std@@@std@@@std@@QAEPAU?$_Tree_node@U?$pair@$$CBV?$basic_string@DU?$char_traits@D@std@@V?$allocator@D@2@@std@@H@std@@PAX@2@I@Z 00444840 f i CommonPathfindingLib:GraphicsBufferManager.obj
 0002:000208a0       ?allocate@?$allocator@U?$_Tree_node@U?$pair@$$CBHPAVGraphicsBuffer@@@std@@PAX@std@@@std@@QAEPAU?$_Tree_node@U?$pair@$$CBHPAVGraphicsBuffer@@@std@@PAX@2@I@Z 004448a0 f i CommonPathfindingLib:GraphicsBufferManager.obj
 0002:00020900       ?allocate@?$allocator@U?$_Tree_node@U?$pair@$$CBV?$basic_string@DU?$char_traits@D@std@@V?$allocator@D@2@@std@@H@std@@PAX@std@@@std@@QAEPAU?$_Tree_node@U?$pair@$$CBV?$basic_string@DU?$char_traits@D@std@@V?$allocator@D@2@@std@@H@std@@PAX@2@I@Z 00444900 f i CommonPathfindingLib:GraphicsBufferManager.obj
 0002:00020960       ?begin@?$_Tree@V?$_Tmap_traits@HPAVGraphicsBuffer@@U?$less@H@std@@V?$allocator@U?$pair@$$CBHPAVGraphicsBuffer@@@std@@@3@$0A@@std@@@std@@QAE?AV?$_Tree_iterator@V?$_Tree_val@U?$_Tree_simple_types@U?$pair@$$CBHPAVGraphicsBuffer@@@std@@@std@@@std@@@2@XZ 00444960 f i CommonPathfindingLib:GraphicsBufferManager.obj
 0002:00020a10       ?begin@?$_Tree@V?$_Tmap_traits@V?$basic_string@DU?$char_traits@D@std@@V?$allocator@D@2@@std@@HU?$less@V?$basic_string@DU?$char_traits@D@std@@V?$allocator@D@2@@std@@@2@V?$allocator@U?$pair@$$CBV?$basic_string@DU?$char_traits@D@std@@V?$allocator@D@2@@std@@H@std@@@2@$0A@@std@@@std@@QAE?AV?$_Tree_iterator@V?$_Tree_val@U?$_Tree_simple_types@U?$pair@$$CBV?$basic_string@DU?$char_traits@D@std@@V?$allocator@D@2@@std@@H@std@@@std@@@std@@@2@XZ 00444a10 f i CommonPathfindingLib:GraphicsBufferManager.obj
 0002:00020ac0       ?clear@?$_Tree@V?$_Tmap_traits@HPAVGraphicsBuffer@@U?$less@H@std@@V?$allocator@U?$pair@$$CBHPAVGraphicsBuffer@@@std@@@3@$0A@@std@@@std@@QAEXXZ 00444ac0 f i CommonPathfindingLib:GraphicsBufferManager.obj
 0002:00020bd0       ?clear@?$_Tree@V?$_Tmap_traits@V?$basic_string@DU?$char_traits@D@std@@V?$allocator@D@2@@std@@HU?$less@V?$basic_string@DU?$char_traits@D@std@@V?$allocator@D@2@@std@@@2@V?$allocator@U?$pair@$$CBV?$basic_string@DU?$char_traits@D@std@@V?$allocator@D@2@@std@@H@std@@@2@$0A@@std@@@std@@QAEXXZ 00444bd0 f i CommonPathfindingLib:GraphicsBufferManager.obj
 0002:00020ce0       ?clear@GraphicsBufferManager@@QAEXXZ 00444ce0 f   CommonPathfindingLib:GraphicsBufferManager.obj
 0002:00020f00       ?compare@?$basic_string@DU?$char_traits@D@std@@V?$allocator@D@2@@std@@QBEHABV12@@Z 00444f00 f i CommonPathfindingLib:GraphicsBufferManager.obj
 0002:00020fc0       ?compare@?$char_traits@D@std@@SAHQBD0I@Z 00444fc0 f i CommonPathfindingLib:GraphicsBufferManager.obj
 0002:00021020       ?deallocate@?$_Wrap_alloc@V?$allocator@U?$_Tree_node@U?$pair@$$CBHPAVGraphicsBuffer@@@std@@PAX@std@@@std@@@std@@QAEXPAU?$_Tree_node@U?$pair@$$CBHPAVGraphicsBuffer@@@std@@PAX@2@I@Z 00445020 f i CommonPathfindingLib:GraphicsBufferManager.obj
 0002:00021080       ?deallocate@?$_Wrap_alloc@V?$allocator@U?$_Tree_node@U?$pair@$$CBV?$basic_string@DU?$char_traits@D@std@@V?$allocator@D@2@@std@@H@std@@PAX@std@@@std@@@std@@QAEXPAU?$_Tree_node@U?$pair@$$CBV?$basic_string@DU?$char_traits@D@std@@V?$allocator@D@2@@std@@H@std@@PAX@2@I@Z 00445080 f i CommonPathfindingLib:GraphicsBufferManager.obj
 0002:000210e0       ?deallocate@?$allocator@U?$_Tree_node@U?$pair@$$CBHPAVGraphicsBuffer@@@std@@PAX@std@@@std@@QAEXPAU?$_Tree_node@U?$pair@$$CBHPAVGraphicsBuffer@@@std@@PAX@2@I@Z 004450e0 f i CommonPathfindingLib:GraphicsBufferManager.obj
 0002:00021140       ?deallocate@?$allocator@U?$_Tree_node@U?$pair@$$CBV?$basic_string@DU?$char_traits@D@std@@V?$allocator@D@2@@std@@H@std@@PAX@std@@@std@@QAEXPAU?$_Tree_node@U?$pair@$$CBV?$basic_string@DU?$char_traits@D@std@@V?$allocator@D@2@@std@@H@std@@PAX@2@I@Z 00445140 f i CommonPathfindingLib:GraphicsBufferManager.obj
 0002:000211a0       ?deleteBuffer@GraphicsBufferManager@@QAEXABH@Z 004451a0 f   CommonPathfindingLib:GraphicsBufferManager.obj
 0002:00021510       ?deleteBufferByDescriptor@GraphicsBufferManager@@QAEXABV?$basic_string@DU?$char_traits@D@std@@V?$allocator@D@2@@std@@@Z 00445510 f   CommonPathfindingLib:GraphicsBufferManager.obj
 0002:00021680       ?end@?$_Tree@V?$_Tmap_traits@HPAVGraphicsBuffer@@U?$less@H@std@@V?$allocator@U?$pair@$$CBHPAVGraphicsBuffer@@@std@@@3@$0A@@std@@@std@@QAE?AV?$_Tree_iterator@V?$_Tree_val@U?$_Tree_simple_types@U?$pair@$$CBHPAVGraphicsBuffer@@@std@@@std@@@std@@@2@XZ 00445680 f i CommonPathfindingLib:GraphicsBufferManager.obj
 0002:00021730       ?end@?$_Tree@V?$_Tmap_traits@V?$basic_string@DU?$char_traits@D@std@@V?$allocator@D@2@@std@@HU?$less@V?$basic_string@DU?$char_traits@D@std@@V?$allocator@D@2@@std@@@2@V?$allocator@U?$pair@$$CBV?$basic_string@DU?$char_traits@D@std@@V?$allocator@D@2@@std@@H@std@@@2@$0A@@std@@@std@@QAE?AV?$_Tree_iterator@V?$_Tree_val@U?$_Tree_simple_types@U?$pair@$$CBV?$basic_string@DU?$char_traits@D@std@@V?$allocator@D@2@@std@@H@std@@@std@@@std@@@2@XZ 00445730 f i CommonPathfindingLib:GraphicsBufferManager.obj
 0002:000217e0       ?erase@?$_Tree@V?$_Tmap_traits@HPAVGraphicsBuffer@@U?$less@H@std@@V?$allocator@U?$pair@$$CBHPAVGraphicsBuffer@@@std@@@3@$0A@@std@@@std@@QAE?AV?$_Tree_iterator@V?$_Tree_val@U?$_Tree_simple_types@U?$pair@$$CBHPAVGraphicsBuffer@@@std@@@std@@@std@@@2@V?$_Tree_const_iterator@V?$_Tree_val@U?$_Tree_simple_types@U?$pair@$$CBHPAVGraphicsBuffer@@@std@@@std@@@std@@@2@0@Z 004457e0 f i CommonPathfindingLib:GraphicsBufferManager.obj
 0002:00021b00       ?erase@?$_Tree@V?$_Tmap_traits@HPAVGraphicsBuffer@@U?$less@H@std@@V?$allocator@U?$pair@$$CBHPAVGraphicsBuffer@@@std@@@3@$0A@@std@@@std@@QAE?AV?$_Tree_iterator@V?$_Tree_val@U?$_Tree_simple_types@U?$pair@$$CBHPAVGraphicsBuffer@@@std@@@std@@@std@@@2@V?$_Tree_const_iterator@V?$_Tree_val@U?$_Tree_simple_types@U?$pair@$$CBHPAVGraphicsBuffer@@@std@@@std@@@std@@@2@@Z 00445b00 f i CommonPathfindingLib:GraphicsBufferManager.obj
 0002:000225e0       ?erase@?$_Tree@V?$_Tmap_traits@V?$basic_string@DU?$char_traits@D@std@@V?$allocator@D@2@@std@@HU?$less@V?$basic_string@DU?$char_traits@D@std@@V?$allocator@D@2@@std@@@2@V?$allocator@U?$pair@$$CBV?$basic_string@DU?$char_traits@D@std@@V?$allocator@D@2@@std@@H@std@@@2@$0A@@std@@@std@@QAE?AV?$_Tree_iterator@V?$_Tree_val@U?$_Tree_simple_types@U?$pair@$$CBV?$basic_string@DU?$char_traits@D@std@@V?$allocator@D@2@@std@@H@std@@@std@@@std@@@2@V?$_Tree_const_iterator@V?$_Tree_val@U?$_Tree_simple_types@U?$pair@$$CBV?$basic_string@DU?$char_traits@D@std@@V?$allocator@D@2@@std@@H@std@@@std@@@std@@@2@0@Z 004465e0 f i CommonPathfindingLib:GraphicsBufferManager.obj
 0002:00022900       ?erase@?$_Tree@V?$_Tmap_traits@V?$basic_string@DU?$char_traits@D@std@@V?$allocator@D@2@@std@@HU?$less@V?$basic_string@DU?$char_traits@D@std@@V?$allocator@D@2@@std@@@2@V?$allocator@U?$pair@$$CBV?$basic_string@DU?$char_traits@D@std@@V?$allocator@D@2@@std@@H@std@@@2@$0A@@std@@@std@@QAE?AV?$_Tree_iterator@V?$_Tree_val@U?$_Tree_simple_types@U?$pair@$$CBV?$basic_string@DU?$char_traits@D@std@@V?$allocator@D@2@@std@@H@std@@@std@@@std@@@2@V?$_Tree_const_iterator@V?$_Tree_val@U?$_Tree_simple_types@U?$pair@$$CBV?$basic_string@DU?$char_traits@D@std@@V?$allocator@D@2@@std@@H@std@@@std@@@std@@@2@@Z 00446900 f i CommonPathfindingLib:GraphicsBufferManager.obj
 0002:000233e0       ?find@?$_Tree@V?$_Tmap_traits@HPAVGraphicsBuffer@@U?$less@H@std@@V?$allocator@U?$pair@$$CBHPAVGraphicsBuffer@@@std@@@3@$0A@@std@@@std@@QAE?AV?$_Tree_iterator@V?$_Tree_val@U?$_Tree_simple_types@U?$pair@$$CBHPAVGraphicsBuffer@@@std@@@std@@@std@@@2@ABH@Z 004473e0 f i CommonPathfindingLib:GraphicsBufferManager.obj
 0002:000236e0       ?find@?$_Tree@V?$_Tmap_traits@V?$basic_string@DU?$char_traits@D@std@@V?$allocator@D@2@@std@@HU?$less@V?$basic_string@DU?$char_traits@D@std@@V?$allocator@D@2@@std@@@2@V?$allocator@U?$pair@$$CBV?$basic_string@DU?$char_traits@D@std@@V?$allocator@D@2@@std@@H@std@@@2@$0A@@std@@@std@@QAE?AV?$_Tree_iterator@V?$_Tree_val@U?$_Tree_simple_types@U?$pair@$$CBV?$basic_string@DU?$char_traits@D@std@@V?$allocator@D@2@@std@@H@std@@@std@@@std@@@2@ABV?$basic_string@DU?$char_traits@D@std@@V?$allocator@D@2@@2@@Z 004476e0 f i CommonPathfindingLib:GraphicsBufferManager.obj
 0002:000239e0       ?getBuffer@GraphicsBufferManager@@QAEPAVGraphicsBuffer@@ABH@Z 004479e0 f   CommonPathfindingLib:GraphicsBufferManager.obj
 0002:00023b60       ?getBufferByDescriptor@GraphicsBufferManager@@QAEPAVGraphicsBuffer@@ABV?$basic_string@DU?$char_traits@D@std@@V?$allocator@D@2@@std@@@Z 00447b60 f   CommonPathfindingLib:GraphicsBufferManager.obj
 0002:00023d10       ?getNextID@GraphicsBufferManager@@AAEHXZ 00447d10 f   CommonPathfindingLib:GraphicsBufferManager.obj
 0002:00023ed0       ?init@GraphicsBufferManager@@QAEXXZ 00447ed0 f   CommonPathfindingLib:GraphicsBufferManager.obj
 0002:00023f10       ?isValid@GraphicsBuffer@@QBE_NXZ 00447f10 f i CommonPathfindingLib:GraphicsBufferManager.obj
 0002:00023f80       ?loadBuffer@GraphicsBufferManager@@QAEHABHABV?$basic_string@DU?$char_traits@D@std@@V?$allocator@D@2@@std@@@Z 00447f80 f   CommonPathfindingLib:GraphicsBufferManager.obj
 0002:000241f0       ?loadBuffer@GraphicsBufferManager@@QAEHABV?$basic_string@DU?$char_traits@D@std@@V?$allocator@D@2@@std@@@Z 004481f0 f   CommonPathfindingLib:GraphicsBufferManager.obj
 0002:000242a0       ?lower_bound@?$_Tree@V?$_Tmap_traits@HPAVGraphicsBuffer@@U?$less@H@std@@V?$allocator@U?$pair@$$CBHPAVGraphicsBuffer@@@std@@@3@$0A@@std@@@std@@QAE?AV?$_Tree_iterator@V?$_Tree_val@U?$_Tree_simple_types@U?$pair@$$CBHPAVGraphicsBuffer@@@std@@@std@@@std@@@2@ABH@Z 004482a0 f i CommonPathfindingLib:GraphicsBufferManager.obj
 0002:00024340       ?lower_bound@?$_Tree@V?$_Tmap_traits@V?$basic_string@DU?$char_traits@D@std@@V?$allocator@D@2@@std@@HU?$less@V?$basic_string@DU?$char_traits@D@std@@V?$allocator@D@2@@std@@@2@V?$allocator@U?$pair@$$CBV?$basic_string@DU?$char_traits@D@std@@V?$allocator@D@2@@std@@H@std@@@2@$0A@@std@@@std@@QAE?AV?$_Tree_iterator@V?$_Tree_val@U?$_Tree_simple_types@U?$pair@$$CBV?$basic_string@DU?$char_traits@D@std@@V?$allocator@D@2@@std@@H@std@@@std@@@std@@@2@ABV?$basic_string@DU?$char_traits@D@std@@V?$allocator@D@2@@2@@Z 00448340 f i CommonPathfindingLib:GraphicsBufferManager.obj
 0002:000243e0       ?manageBuffer@GraphicsBufferManager@@QAEHPAVGraphicsBuffer@@ABV?$basic_string@DU?$char_traits@D@std@@V?$allocator@D@2@@std@@@Z 004483e0 f   CommonPathfindingLib:GraphicsBufferManager.obj
 0002:000245a0       ?max_size@?$_Tree@V?$_Tmap_traits@HPAVGraphicsBuffer@@U?$less@H@std@@V?$allocator@U?$pair@$$CBHPAVGraphicsBuffer@@@std@@@3@$0A@@std@@@std@@QBEIXZ 004485a0 f i CommonPathfindingLib:GraphicsBufferManager.obj
 0002:00024610       ?max_size@?$_Tree@V?$_Tmap_traits@V?$basic_string@DU?$char_traits@D@std@@V?$allocator@D@2@@std@@HU?$less@V?$basic_string@DU?$char_traits@D@std@@V?$allocator@D@2@@std@@@2@V?$allocator@U?$pair@$$CBV?$basic_string@DU?$char_traits@D@std@@V?$allocator@D@2@@std@@H@std@@@2@$0A@@std@@@std@@QBEIXZ 00448610 f i CommonPathfindingLib:GraphicsBufferManager.obj
 0002:00024680       ?max_size@?$_Wrap_alloc@V?$allocator@U?$_Tree_node@U?$pair@$$CBHPAVGraphicsBuffer@@@std@@PAX@std@@@std@@@std@@QBEIU_Nil@2@@Z 00448680 f i CommonPathfindingLib:GraphicsBufferManager.obj
 0002:000246e0       ?max_size@?$_Wrap_alloc@V?$allocator@U?$_Tree_node@U?$pair@$$CBV?$basic_string@DU?$char_traits@D@std@@V?$allocator@D@2@@std@@H@std@@PAX@std@@@std@@@std@@QBEIU_Nil@2@@Z 004486e0 f i CommonPathfindingLib:GraphicsBufferManager.obj
 0002:00024740       ?max_size@?$allocator@U?$_Tree_node@U?$pair@$$CBHPAVGraphicsBuffer@@@std@@PAX@std@@@std@@QBEIXZ 00448740 f i CommonPathfindingLib:GraphicsBufferManager.obj
 0002:00024780       ?max_size@?$allocator@U?$_Tree_node@U?$pair@$$CBV?$basic_string@DU?$char_traits@D@std@@V?$allocator@D@2@@std@@H@std@@PAX@std@@@std@@QBEIXZ 00448780 f i CommonPathfindingLib:GraphicsBufferManager.obj
 0002:000247c0       ?max_size@?$allocator_traits@V?$allocator@U?$_Tree_node@U?$pair@$$CBHPAVGraphicsBuffer@@@std@@PAX@std@@@std@@@std@@SAIABV?$allocator@U?$_Tree_node@U?$pair@$$CBHPAVGraphicsBuffer@@@std@@PAX@std@@@2@@Z 004487c0 f i CommonPathfindingLib:GraphicsBufferManager.obj
 0002:00024810       ?max_size@?$allocator_traits@V?$allocator@U?$_Tree_node@U?$pair@$$CBV?$basic_string@DU?$char_traits@D@std@@V?$allocator@D@2@@std@@H@std@@PAX@std@@@std@@@std@@SAIABV?$allocator@U?$_Tree_node@U?$pair@$$CBV?$basic_string@DU?$char_traits@D@std@@V?$allocator@D@2@@std@@H@std@@PAX@std@@@2@@Z 00448810 f i CommonPathfindingLib:GraphicsBufferManager.obj
 0002:00024860       ?pointer_to@?$pointer_traits@PAU?$pair@$$CBHPAVGraphicsBuffer@@@std@@@std@@SAPAU?$pair@$$CBHPAVGraphicsBuffer@@@2@AAU32@@Z 00448860 f i CommonPathfindingLib:GraphicsBufferManager.obj
 0002:000248b0       ?pointer_to@?$pointer_traits@PAU?$pair@$$CBV?$basic_string@DU?$char_traits@D@std@@V?$allocator@D@2@@std@@H@std@@@std@@SAPAU?$pair@$$CBV?$basic_string@DU?$char_traits@D@std@@V?$allocator@D@2@@std@@H@2@AAU32@@Z 004488b0 f i CommonPathfindingLib:GraphicsBufferManager.obj
 0002:00024900       ?select_on_container_copy_construction@?$_Wrap_alloc@V?$allocator@D@std@@@std@@QBE?AU12@U_Nil@2@@Z 00448900 f i CommonPathfindingLib:GraphicsBufferManager.obj
 0002:00024970       ?select_on_container_copy_construction@?$allocator_traits@V?$allocator@D@std@@@std@@SA?AV?$allocator@D@2@ABV32@@Z 00448970 f i CommonPathfindingLib:GraphicsBufferManager.obj
 0002:000249d0       ?size@?$_Tree@V?$_Tmap_traits@HPAVGraphicsBuffer@@U?$less@H@std@@V?$allocator@U?$pair@$$CBHPAVGraphicsBuffer@@@std@@@3@$0A@@std@@@std@@QBEIXZ 004489d0 f i CommonPathfindingLib:GraphicsBufferManager.obj
 0002:00024a30       ?size@?$_Tree@V?$_Tmap_traits@V?$basic_string@DU?$char_traits@D@std@@V?$allocator@D@2@@std@@HU?$less@V?$basic_string@DU?$char_traits@D@std@@V?$allocator@D@2@@std@@@2@V?$allocator@U?$pair@$$CBV?$basic_string@DU?$char_traits@D@std@@V?$allocator@D@2@@std@@H@std@@@2@$0A@@std@@@std@@QBEIXZ 00448a30 f i CommonPathfindingLib:GraphicsBufferManager.obj
 0002:00024a90       ??$?0$$V@?$_Compressed_pair@U?$_Wrap_alloc@V?$allocator@H@std@@@std@@V?$_Vector_val@U?$_Simple_types@H@std@@@2@$00@std@@QAE@U_Zero_then_variadic_args_t@1@@Z 00448a90 f i CommonPathfindingLib:Grid.obj
 0002:00024af0       ??$?0AAU?$_Wrap_alloc@V?$allocator@H@std@@@std@@@?$_Wrap_alloc@V?$allocator@U_Container_proxy@std@@@std@@@std@@QAE@AAU?$_Wrap_alloc@V?$allocator@H@std@@@1@@Z 00448af0 f i CommonPathfindingLib:Grid.obj
 0002:00024b60       ??$?0H@?$allocator@U_Container_proxy@std@@@std@@QAE@ABV?$allocator@H@1@@Z 00448b60 f i CommonPathfindingLib:Grid.obj
 0002:00024ba0       ??$?0U?$_Wrap_alloc@V?$allocator@H@std@@@std@@$$V@?$_Compressed_pair@U?$_Wrap_alloc@V?$allocator@H@std@@@std@@V?$_Vector_val@U?$_Simple_types@H@std@@@2@$00@std@@QAE@U_One_then_variadic_args_t@1@$$QAU?$_Wrap_alloc@V?$allocator@H@std@@@1@@Z 00448ba0 f i CommonPathfindingLib:Grid.obj
 0002:00024c10       ??$?0U?$_Wrap_alloc@V?$allocator@H@std@@@std@@X@?$_Vector_alloc@U?$_Vec_base_types@HV?$allocator@H@std@@@std@@@std@@QAE@$$QAU?$_Wrap_alloc@V?$allocator@H@std@@@1@@Z 00448c10 f i CommonPathfindingLib:Grid.obj
 0002:00024cd0       ??$_Copy_memmove@PAHPAH@std@@YAPAHPAH00@Z 00448cd0 f i CommonPathfindingLib:Grid.obj
 0002:00024d60       ??$_Destroy_range1@V?$allocator@H@std@@PAH@std@@YAXPAH0AAU?$_Wrap_alloc@V?$allocator@H@std@@@0@U?$integral_constant@_N$00@0@@Z 00448d60 f i CommonPathfindingLib:Grid.obj
 0002:00024d90       ??$_Destroy_range@V?$allocator@H@std@@PAH@std@@YAXPAH0AAU?$_Wrap_alloc@V?$allocator@H@std@@@0@@Z 00448d90 f i CommonPathfindingLib:Grid.obj
 0002:00024e00       ??$_Emplace_back_with_unused_capacity@ABH@?$vector@HV?$allocator@H@std@@@std@@AAEXABH@Z 00448e00 f i CommonPathfindingLib:Grid.obj
 0002:00024ee0       ??$_Ptr_move_cat@HH@std@@YA?AU_Really_trivial_ptr_iterator_tag@0@ABQAH0@Z 00448ee0 f i CommonPathfindingLib:Grid.obj
 0002:00024f20       ??$_Rechecked@PAHPAH@std@@YAAAPAHAAPAHPAH@Z 00448f20 f i CommonPathfindingLib:Grid.obj
 0002:00024f60       ??$_Unchecked@PAH@std@@YAPAHPAH@Z 00448f60 f i CommonPathfindingLib:Grid.obj
 0002:00024fa0       ??$_Unfancy@H@std@@YAPAHPAH@Z 00448fa0 f i CommonPathfindingLib:Grid.obj
 0002:00024fe0       ??$_Uninitialized_move@PAHPAHV?$allocator@H@std@@@std@@YAPAHPAH00AAU?$_Wrap_alloc@V?$allocator@H@std@@@0@@Z 00448fe0 f i CommonPathfindingLib:Grid.obj
 0002:00025110       ??$_Uninitialized_move_al_unchecked@HHV?$allocator@H@std@@@std@@YAPAHPAH00AAU?$_Wrap_alloc@V?$allocator@H@std@@@0@U_Really_trivial_ptr_iterator_tag@0@U?$integral_constant@_N$00@0@@Z 00449110 f i CommonPathfindingLib:Grid.obj
 0002:00025170       ??$addressof@V?$_Vector_val@U?$_Simple_types@H@std@@@std@@@std@@YAPAV?$_Vector_val@U?$_Simple_types@H@std@@@0@AAV10@@Z 00449170 f i CommonPathfindingLib:Grid.obj
 0002:000251b0       ??$construct@HABH@?$_Wrap_alloc@V?$allocator@H@std@@@std@@QAEXPAHABH@Z 004491b0 f i CommonPathfindingLib:Grid.obj
 0002:00025220       ??$construct@HABH@?$allocator@H@std@@QAEXPAHABH@Z 00449220 f i CommonPathfindingLib:Grid.obj
 0002:000252d0       ??$construct@HABH@?$allocator_traits@V?$allocator@H@std@@@std@@SAXAAV?$allocator@H@1@PAHABH@Z 004492d0 f i CommonPathfindingLib:Grid.obj
 0002:00025330       ??$destroy@H@?$_Wrap_alloc@V?$allocator@H@std@@@std@@QAEXPAH@Z 00449330 f i CommonPathfindingLib:Grid.obj
 0002:00025390       ??$destroy@H@?$allocator@H@std@@QAEXPAH@Z 00449390 f i CommonPathfindingLib:Grid.obj
 0002:000253d0       ??$destroy@H@?$allocator_traits@V?$allocator@H@std@@@std@@SAXAAV?$allocator@H@1@PAH@Z 004493d0 f i CommonPathfindingLib:Grid.obj
 0002:00025420       ??$emplace_back@ABH@?$vector@HV?$allocator@H@std@@@std@@QAEXABH@Z 00449420 f i CommonPathfindingLib:Grid.obj
 0002:00025650       ??$forward@AAU?$_Wrap_alloc@V?$allocator@H@std@@@std@@@std@@YAAAU?$_Wrap_alloc@V?$allocator@H@std@@@0@AAU10@@Z 00449650 f i CommonPathfindingLib:Grid.obj
 0002:00025690       ??$forward@U?$_Wrap_alloc@V?$allocator@H@std@@@std@@@std@@YA$$QAU?$_Wrap_alloc@V?$allocator@H@std@@@0@AAU10@@Z 00449690 f i CommonPathfindingLib:Grid.obj
 0002:000256d0       ??$move@AAU?$_Wrap_alloc@V?$allocator@H@std@@@std@@@std@@YA$$QAU?$_Wrap_alloc@V?$allocator@H@std@@@0@AAU10@@Z 004496d0 f i CommonPathfindingLib:Grid.obj
 0002:00025710       ??$move@AAV?$vector@HV?$allocator@H@std@@@std@@@std@@YA$$QAV?$vector@HV?$allocator@H@std@@@0@AAV10@@Z 00449710 f i CommonPathfindingLib:Grid.obj
 0002:00025750       ??0?$_Vector_alloc@U?$_Vec_base_types@HV?$allocator@H@std@@@std@@@std@@QAE@XZ 00449750 f i CommonPathfindingLib:Grid.obj
 0002:00025800       ??0?$_Vector_val@U?$_Simple_types@H@std@@@std@@QAE@XZ 00449800 f i CommonPathfindingLib:Grid.obj
 0002:00025880       ??0?$_Wrap_alloc@V?$allocator@H@std@@@std@@QAE@$$QAU01@@Z 00449880 f i CommonPathfindingLib:Grid.obj
 0002:000258f0       ??0?$_Wrap_alloc@V?$allocator@H@std@@@std@@QAE@XZ 004498f0 f i CommonPathfindingLib:Grid.obj
 0002:00025950       ??0?$allocator@H@std@@QAE@ABV01@@Z 00449950 f i CommonPathfindingLib:Grid.obj
 0002:00025990       ??0?$allocator@H@std@@QAE@XZ 00449990 f i CommonPathfindingLib:Grid.obj
 0002:000259d0       ??0?$vector@HV?$allocator@H@std@@@std@@QAE@$$QAV01@@Z 004499d0 f i CommonPathfindingLib:Grid.obj
 0002:00025aa0       ??0?$vector@HV?$allocator@H@std@@@std@@QAE@XZ 00449aa0 f i CommonPathfindingLib:Grid.obj
 0002:00025b30       ??0Grid@@QAE@HHH@Z         00449b30 f   CommonPathfindingLib:Grid.obj
 0002:00025c30       ??1?$_Compressed_pair@U?$_Wrap_alloc@V?$allocator@H@std@@@std@@V?$_Vector_val@U?$_Simple_types@H@std@@@2@$00@std@@QAE@XZ 00449c30 f i CommonPathfindingLib:Grid.obj
 0002:00025c80       ??1?$_Vector_alloc@U?$_Vec_base_types@HV?$allocator@H@std@@@std@@@std@@QAE@XZ 00449c80 f i CommonPathfindingLib:Grid.obj
 0002:00025d10       ??1?$_Vector_val@U?$_Simple_types@H@std@@@std@@QAE@XZ 00449d10 f i CommonPathfindingLib:Grid.obj
 0002:00025d60       ??1?$vector@HV?$allocator@H@std@@@std@@QAE@XZ 00449d60 f i CommonPathfindingLib:Grid.obj
 0002:00025df0       ??1Grid@@QAE@XZ            00449df0 f   CommonPathfindingLib:Grid.obj
 0002:00025e60       ?_Alloc_proxy@?$_Vector_alloc@U?$_Vec_base_types@HV?$allocator@H@std@@@std@@@std@@QAEXXZ 00449e60 f i CommonPathfindingLib:Grid.obj
 0002:00025f70       ?_Calculate_growth@?$vector@HV?$allocator@H@std@@@std@@ABEII@Z 00449f70 f i CommonPathfindingLib:Grid.obj
 0002:00026010       ?_Change_array@?$vector@HV?$allocator@H@std@@@std@@AAEXQAHII@Z 0044a010 f i CommonPathfindingLib:Grid.obj
 0002:00026120       ?_Destroy@?$vector@HV?$allocator@H@std@@@std@@AAEXPAH0@Z 0044a120 f i CommonPathfindingLib:Grid.obj
 0002:00026190       ?_Free_proxy@?$_Vector_alloc@U?$_Vec_base_types@HV?$allocator@H@std@@@std@@@std@@QAEXXZ 0044a190 f i CommonPathfindingLib:Grid.obj
 0002:00026280       ?_Get_data@?$_Vector_alloc@U?$_Vec_base_types@HV?$allocator@H@std@@@std@@@std@@QAEAAV?$_Vector_val@U?$_Simple_types@H@std@@@2@XZ 0044a280 f i CommonPathfindingLib:Grid.obj
 0002:000262d0       ?_Get_data@?$_Vector_alloc@U?$_Vec_base_types@HV?$allocator@H@std@@@std@@@std@@QBEABV?$_Vector_val@U?$_Simple_types@H@std@@@2@XZ 0044a2d0 f i CommonPathfindingLib:Grid.obj
 0002:00026320       ?_Get_first@?$_Compressed_pair@U?$_Wrap_alloc@V?$allocator@H@std@@@std@@V?$_Vector_val@U?$_Simple_types@H@std@@@2@$00@std@@QAEAAU?$_Wrap_alloc@V?$allocator@H@std@@@2@XZ 0044a320 f i CommonPathfindingLib:Grid.obj
 0002:00026360       ?_Get_first@?$_Compressed_pair@U?$_Wrap_alloc@V?$allocator@H@std@@@std@@V?$_Vector_val@U?$_Simple_types@H@std@@@2@$00@std@@QBEABU?$_Wrap_alloc@V?$allocator@H@std@@@2@XZ 0044a360 f i CommonPathfindingLib:Grid.obj
 0002:000263a0       ?_Get_second@?$_Compressed_pair@U?$_Wrap_alloc@V?$allocator@H@std@@@std@@V?$_Vector_val@U?$_Simple_types@H@std@@@2@$00@std@@QAEAAV?$_Vector_val@U?$_Simple_types@H@std@@@2@XZ 0044a3a0 f i CommonPathfindingLib:Grid.obj
 0002:000263e0       ?_Get_second@?$_Compressed_pair@U?$_Wrap_alloc@V?$allocator@H@std@@@std@@V?$_Vector_val@U?$_Simple_types@H@std@@@2@$00@std@@QBEABV?$_Vector_val@U?$_Simple_types@H@std@@@2@XZ 0044a3e0 f i CommonPathfindingLib:Grid.obj
 0002:00026420       ?_Getal@?$_Vector_alloc@U?$_Vec_base_types@HV?$allocator@H@std@@@std@@@std@@QAEAAU?$_Wrap_alloc@V?$allocator@H@std@@@2@XZ 0044a420 f i CommonPathfindingLib:Grid.obj
 0002:00026470       ?_Getal@?$_Vector_alloc@U?$_Vec_base_types@HV?$allocator@H@std@@@std@@@std@@QBEABU?$_Wrap_alloc@V?$allocator@H@std@@@2@XZ 0044a470 f i CommonPathfindingLib:Grid.obj
 0002:000264c0       ?_Getpfirst@?$_Vector_alloc@U?$_Vec_base_types@HV?$allocator@H@std@@@std@@@std@@QBEPAPAU_Iterator_base12@2@XZ 0044a4c0 f i CommonPathfindingLib:Grid.obj
 0002:00026520       ?_Has_unused_capacity@?$vector@HV?$allocator@H@std@@@std@@ABE_NXZ 0044a520 f i CommonPathfindingLib:Grid.obj
 0002:000265b0       ?_Move_from@?$vector@HV?$allocator@H@std@@@std@@AAEX$$QAV12@U?$integral_constant@_N$00@2@@Z 0044a5b0 f i CommonPathfindingLib:Grid.obj
 0002:00026690       ?_Myend@?$_Vector_alloc@U?$_Vec_base_types@HV?$allocator@H@std@@@std@@@std@@QAEAAPAHXZ 0044a690 f i CommonPathfindingLib:Grid.obj
 0002:000266f0       ?_Myend@?$_Vector_alloc@U?$_Vec_base_types@HV?$allocator@H@std@@@std@@@std@@QBEABQAHXZ 0044a6f0 f i CommonPathfindingLib:Grid.obj
 0002:00026750       ?_Myfirst@?$_Vector_alloc@U?$_Vec_base_types@HV?$allocator@H@std@@@std@@@std@@QAEAAPAHXZ 0044a750 f i CommonPathfindingLib:Grid.obj
 0002:000267b0       ?_Myfirst@?$_Vector_alloc@U?$_Vec_base_types@HV?$allocator@H@std@@@std@@@std@@QBEABQAHXZ 0044a7b0 f i CommonPathfindingLib:Grid.obj
 0002:00026810       ?_Mylast@?$_Vector_alloc@U?$_Vec_base_types@HV?$allocator@H@std@@@std@@@std@@QAEAAPAHXZ 0044a810 f i CommonPathfindingLib:Grid.obj
 0002:00026870       ?_Mylast@?$_Vector_alloc@U?$_Vec_base_types@HV?$allocator@H@std@@@std@@@std@@QBEABQAHXZ 0044a870 f i CommonPathfindingLib:Grid.obj
 0002:000268d0       ?_Myproxy@?$_Vector_alloc@U?$_Vec_base_types@HV?$allocator@H@std@@@std@@@std@@QAEAAPAU_Container_proxy@2@XZ 0044a8d0 f i CommonPathfindingLib:Grid.obj
 0002:00026920       ?_Orphan_all@?$_Vector_alloc@U?$_Vec_base_types@HV?$allocator@H@std@@@std@@@std@@QAEXXZ 0044a920 f i CommonPathfindingLib:Grid.obj
 0002:00026980       ?_Orphan_range@?$vector@HV?$allocator@H@std@@@std@@ABEXPAH0@Z 0044a980 f i CommonPathfindingLib:Grid.obj
 0002:00026af0       ?_Swap_all@?$_Vector_alloc@U?$_Vec_base_types@HV?$allocator@H@std@@@std@@@std@@QAEXAAV12@@Z 0044aaf0 f i CommonPathfindingLib:Grid.obj
 0002:00026b60       ?_Swap_all@_Container_base12@std@@QAEXAAU12@@Z 0044ab60 f i CommonPathfindingLib:Grid.obj
 0002:00026c60       ?_Tidy@?$vector@HV?$allocator@H@std@@@std@@AAEXXZ 0044ac60 f i CommonPathfindingLib:Grid.obj
 0002:00026d60       ?_Umove_if_noexcept1@?$vector@HV?$allocator@H@std@@@std@@AAEXPAH00U?$integral_constant@_N$00@2@@Z 0044ad60 f i CommonPathfindingLib:Grid.obj
 0002:00026dd0       ?_Umove_if_noexcept@?$vector@HV?$allocator@H@std@@@std@@AAEXPAH00@Z 0044add0 f i CommonPathfindingLib:Grid.obj
 0002:00026e50       ?_Xlength@?$vector@HV?$allocator@H@std@@@std@@CAXXZ 0044ae50 f i CommonPathfindingLib:Grid.obj
 0002:00026eb0       ?allocate@?$_Wrap_alloc@V?$allocator@H@std@@@std@@QAEPAHI@Z 0044aeb0 f i CommonPathfindingLib:Grid.obj
 0002:00026f10       ?allocate@?$allocator@H@std@@QAEPAHI@Z 0044af10 f i CommonPathfindingLib:Grid.obj
 0002:00026f70       ?capacity@?$vector@HV?$allocator@H@std@@@std@@QBEIXZ 0044af70 f i CommonPathfindingLib:Grid.obj
 0002:00026fe0       ?deallocate@?$_Wrap_alloc@V?$allocator@H@std@@@std@@QAEXPAHI@Z 0044afe0 f i CommonPathfindingLib:Grid.obj
 0002:00027040       ?deallocate@?$allocator@H@std@@QAEXPAHI@Z 0044b040 f i CommonPathfindingLib:Grid.obj
 0002:000270a0       ?getAdjacentIndices@Grid@@QBE?AV?$vector@HV?$allocator@H@std@@@std@@H@Z 0044b0a0 f   CommonPathfindingLib:Grid.obj
 0002:00027280       ?getSquareIndexFromPixelXY@Grid@@QBEHHH@Z 0044b280 f   CommonPathfindingLib:Grid.obj
 0002:000272f0       ?getULCornerOfSquare@Grid@@QBE?AVVector2D@@H@Z 0044b2f0 f   CommonPathfindingLib:Grid.obj
 0002:00027450       ?getValueAtIndex@Grid@@QBEHH@Z 0044b450 f   CommonPathfindingLib:Grid.obj
 0002:000274c0       ?getValueAtPixelXY@Grid@@QBEHHH@Z 0044b4c0 f   CommonPathfindingLib:Grid.obj
 0002:00027530       ?load@Grid@@QAEXAAV?$basic_ifstream@DU?$char_traits@D@std@@@std@@@Z 0044b530 f   CommonPathfindingLib:Grid.obj
 0002:000275e0       ?max_size@?$_Wrap_alloc@V?$allocator@H@std@@@std@@QBEIU_Nil@2@@Z 0044b5e0 f i CommonPathfindingLib:Grid.obj
 0002:00027640       ?max_size@?$allocator@H@std@@QBEIXZ 0044b640 f i CommonPathfindingLib:Grid.obj
 0002:00027680       ?max_size@?$allocator_traits@V?$allocator@H@std@@@std@@SAIABV?$allocator@H@2@@Z 0044b680 f i CommonPathfindingLib:Grid.obj
 0002:000276d0       ?max_size@?$vector@HV?$allocator@H@std@@@std@@QBEIXZ 0044b6d0 f i CommonPathfindingLib:Grid.obj
 0002:00027740       ?push_back@?$vector@HV?$allocator@H@std@@@std@@QAEXABH@Z 0044b740 f i CommonPathfindingLib:Grid.obj
 0002:000277a0       ?save@Grid@@QAEXAAV?$basic_ofstream@DU?$char_traits@D@std@@@std@@@Z 0044b7a0 f   CommonPathfindingLib:Grid.obj
 0002:00027860       ?setValueAtIndex@Grid@@QAEXHH@Z 0044b860 f   CommonPathfindingLib:Grid.obj
 0002:000278d0       ?setValueAtPixelXY@Grid@@QAEXHHH@Z 0044b8d0 f   CommonPathfindingLib:Grid.obj
 0002:00027950       ?size@?$vector@HV?$allocator@H@std@@@std@@QBEIXZ 0044b950 f i CommonPathfindingLib:Grid.obj
 0002:000279c0       ??$?0$$V@?$_Compressed_pair@U?$_Wrap_alloc@V?$allocator@U?$_Tree_node@U?$pair@$$CBUALLEGRO_COLOR@@V?$vector@HV?$allocator@H@std@@@std@@@std@@PAX@std@@@std@@@std@@V?$_Tree_val@U?$_Tree_simple_types@U?$pair@$$CBUALLEGRO_COLOR@@V?$vector@HV?$allocator@H@std@@@std@@@std@@@std@@@2@$00@std@@QAE@U_Zero_then_variadic_args_t@1@@Z 0044b9c0 f i CommonPathfindingLib:GridVisualizer.obj
 0002:00027a20       ??$?0AAU?$_Wrap_alloc@V?$allocator@U?$_Tree_node@U?$pair@$$CBUALLEGRO_COLOR@@V?$vector@HV?$allocator@H@std@@@std@@@std@@PAX@std@@@std@@@std@@@?$_Wrap_alloc@V?$allocator@U_Container_proxy@std@@@std@@@std@@QAE@AAU?$_Wrap_alloc@V?$allocator@U?$_Tree_node@U?$pair@$$CBUALLEGRO_COLOR@@V?$vector@HV?$allocator@H@std@@@std@@@std@@PAX@std@@@std@@@1@@Z 0044ba20 f i CommonPathfindingLib:GridVisualizer.obj
 0002:00027a90       ??$?0AAV?$_Tree_iterator@V?$_Tree_val@U?$_Tree_simple_types@U?$pair@$$CBUALLEGRO_COLOR@@V?$vector@HV?$allocator@H@std@@@std@@@std@@@std@@@std@@@std@@_NX$0A@@?$pair@V?$_Tree_iterator@V?$_Tree_val@U?$_Tree_simple_types@U?$pair@$$CBUALLEGRO_COLOR@@V?$vector@HV?$allocator@H@std@@@std@@@std@@@std@@@std@@@std@@_N@std@@QAE@AAV?$_Tree_iterator@V?$_Tree_val@U?$_Tree_simple_types@U?$pair@$$CBUALLEGRO_COLOR@@V?$vector@HV?$allocator@H@std@@@std@@@std@@@std@@@std@@@1@$$QA_N@Z 0044ba90 f i CommonPathfindingLib:GridVisualizer.obj
 0002:00027b10       ??$?0ABUALLEGRO_COLOR@@$$Z$$V@?$pair@$$CBUALLEGRO_COLOR@@V?$vector@HV?$allocator@H@std@@@std@@@std@@QAE@Upiecewise_construct_t@1@V?$tuple@ABUALLEGRO_COLOR@@@1@V?$tuple@$$V@1@@Z 0044bb10 f i CommonPathfindingLib:GridVisualizer.obj
 0002:00027b90       ??$?0ABUALLEGRO_COLOR@@$0A@@?$tuple@ABUALLEGRO_COLOR@@@std@@QAE@ABUALLEGRO_COLOR@@@Z 0044bb90 f i CommonPathfindingLib:GridVisualizer.obj
 0002:00027c00       ??$?0ABUALLEGRO_COLOR@@@?$_Tuple_val@ABUALLEGRO_COLOR@@@std@@QAE@ABUALLEGRO_COLOR@@@Z 0044bc00 f i CommonPathfindingLib:GridVisualizer.obj
 0002:00027c60       ??$?0ABVAllegroColorCompare@@U_Zero_then_variadic_args_t@std@@@?$_Compressed_pair@VAllegroColorCompare@@V?$_Compressed_pair@U?$_Wrap_alloc@V?$allocator@U?$_Tree_node@U?$pair@$$CBUALLEGRO_COLOR@@V?$vector@HV?$allocator@H@std@@@std@@@std@@PAX@std@@@std@@@std@@V?$_Tree_val@U?$_Tree_simple_types@U?$pair@$$CBUALLEGRO_COLOR@@V?$vector@HV?$allocator@H@std@@@std@@@std@@@std@@@2@$00@std@@$00@std@@QAE@U_One_then_variadic_args_t@1@ABVAllegroColorCompare@@$$QAU_Zero_then_variadic_args_t@1@@Z 0044bc60 f i CommonPathfindingLib:GridVisualizer.obj
 0002:00027ce0       ??$?0U?$_Tree_node@U?$pair@$$CBUALLEGRO_COLOR@@V?$vector@HV?$allocator@H@std@@@std@@@std@@PAX@std@@@?$allocator@U_Container_proxy@std@@@std@@QAE@ABV?$allocator@U?$_Tree_node@U?$pair@$$CBUALLEGRO_COLOR@@V?$vector@HV?$allocator@H@std@@@std@@@std@@PAX@std@@@1@@Z 0044bce0 f i CommonPathfindingLib:GridVisualizer.obj
 0002:00027d20       ??$?0U_Exact_args_t@std@@ABUALLEGRO_COLOR@@$$V$0A@@?$tuple@ABUALLEGRO_COLOR@@@std@@QAE@U_Exact_args_t@1@ABUALLEGRO_COLOR@@@Z 0044bd20 f i CommonPathfindingLib:GridVisualizer.obj
 0002:00027db0       ??$?0V?$_Tree_iterator@V?$_Tree_val@U?$_Tree_simple_types@U?$pair@$$CBUALLEGRO_COLOR@@V?$vector@HV?$allocator@H@std@@@std@@@std@@@std@@@std@@@std@@_NX$0A@@?$pair@V?$_Tree_iterator@V?$_Tree_val@U?$_Tree_simple_types@U?$pair@$$CBUALLEGRO_COLOR@@V?$vector@HV?$allocator@H@std@@@std@@@std@@@std@@@std@@@std@@_N@std@@QAE@$$QAV?$_Tree_iterator@V?$_Tree_val@U?$_Tree_simple_types@U?$pair@$$CBUALLEGRO_COLOR@@V?$vector@HV?$allocator@H@std@@@std@@@std@@@std@@@std@@@1@$$QA_N@Z 0044bdb0 f i CommonPathfindingLib:GridVisualizer.obj
 0002:00027e30       ??$?0V?$allocator@H@std@@@?$_Wrap_alloc@V?$allocator@H@std@@@std@@QAE@$$QAV?$allocator@H@1@@Z 0044be30 f i CommonPathfindingLib:GridVisualizer.obj
 0002:00027ea0       ??$?0V?$tuple@ABUALLEGRO_COLOR@@@std@@V?$tuple@$$V@1@$0A@$$Z$S@?$pair@$$CBUALLEGRO_COLOR@@V?$vector@HV?$allocator@H@std@@@std@@@std@@QAE@AAV?$tuple@ABUALLEGRO_COLOR@@@1@AAV?$tuple@$$V@1@U?$integer_sequence@I$0A@@1@U?$integer_sequence@I$S@1@@Z 0044bea0 f i CommonPathfindingLib:GridVisualizer.obj
 0002:00027f40       ??$_Advance1@PAHH@std@@YAXAAPAHHUrandom_access_iterator_tag@0@@Z 0044bf40 f i CommonPathfindingLib:GridVisualizer.obj
 0002:00027f90       ??$_Assign_range@PAH@?$vector@HV?$allocator@H@std@@@std@@AAEXPAH0Uforward_iterator_tag@1@@Z 0044bf90 f i CommonPathfindingLib:GridVisualizer.obj
 0002:000281d0       ??$_Buynode@ABUpiecewise_construct_t@std@@V?$tuple@ABUALLEGRO_COLOR@@@2@V?$tuple@$$V@2@@?$_Tree_comp_alloc@V?$_Tmap_traits@UALLEGRO_COLOR@@V?$vector@HV?$allocator@H@std@@@std@@VAllegroColorCompare@@V?$allocator@U?$pair@$$CBUALLEGRO_COLOR@@V?$vector@HV?$allocator@H@std@@@std@@@std@@@3@$0A@@std@@@std@@QAEPAU?$_Tree_node@U?$pair@$$CBUALLEGRO_COLOR@@V?$vector@HV?$allocator@H@std@@@std@@@std@@PAX@1@ABUpiecewise_construct_t@1@$$QAV?$tuple@ABUALLEGRO_COLOR@@@1@$$QAV?$tuple@$$V@1@@Z 0044c1d0 f i CommonPathfindingLib:GridVisualizer.obj
 0002:00028340       ??$_Buynode_if_nil@AAU?$pair@$$CBUALLEGRO_COLOR@@V?$vector@HV?$allocator@H@std@@@std@@@std@@@?$_Tree@V?$_Tmap_traits@UALLEGRO_COLOR@@V?$vector@HV?$allocator@H@std@@@std@@VAllegroColorCompare@@V?$allocator@U?$pair@$$CBUALLEGRO_COLOR@@V?$vector@HV?$allocator@H@std@@@std@@@std@@@3@$0A@@std@@@std@@IAEPAU?$_Tree_node@U?$pair@$$CBUALLEGRO_COLOR@@V?$vector@HV?$allocator@H@std@@@std@@@std@@PAX@1@PAU21@AAU?$pair@$$CBUALLEGRO_COLOR@@V?$vector@HV?$allocator@H@std@@@std@@@1@@Z 0044c340 f i CommonPathfindingLib:GridVisualizer.obj
 0002:00028380       ??$_Copy_unchecked1@PAHPAH@std@@YAPAHPAH00U_Trivially_copyable_ptr_iterator_tag@0@@Z 0044c380 f i CommonPathfindingLib:GridVisualizer.obj
 0002:000283e0       ??$_Copy_unchecked@PAHPAH@std@@YAPAHPAH00@Z 0044c3e0 f i CommonPathfindingLib:GridVisualizer.obj
 0002:00028460       ??$_Debug_lt_pred@AAVAllegroColorCompare@@ABUALLEGRO_COLOR@@ABU2@@std@@YA_NAAVAllegroColorCompare@@ABUALLEGRO_COLOR@@1PB_WI@Z 0044c460 f i CommonPathfindingLib:GridVisualizer.obj
 0002:00028570       ??$_Debug_lt_pred@ABVAllegroColorCompare@@ABUALLEGRO_COLOR@@ABU2@@std@@YA_NABVAllegroColorCompare@@ABUALLEGRO_COLOR@@1PB_WI@Z 0044c570 f i CommonPathfindingLib:GridVisualizer.obj
 0002:00028680       ??$_Debug_range2@PAH@std@@YAXPAH0PB_WIUrandom_access_iterator_tag@0@@Z 0044c680 f i CommonPathfindingLib:GridVisualizer.obj
 0002:00028730       ??$_Debug_range@PAH@std@@YAXPAH0PB_WI@Z 0044c730 f i CommonPathfindingLib:GridVisualizer.obj
 0002:000287a0       ??$_Distance1@PAH@std@@YAHPAH0Urandom_access_iterator_tag@0@@Z 0044c7a0 f i CommonPathfindingLib:GridVisualizer.obj
 0002:000287e0       ??$_Insert_at@AAU?$pair@$$CBUALLEGRO_COLOR@@V?$vector@HV?$allocator@H@std@@@std@@@std@@PAU?$_Tree_node@U?$pair@$$CBUALLEGRO_COLOR@@V?$vector@HV?$allocator@H@std@@@std@@@std@@PAX@2@@?$_Tree@V?$_Tmap_traits@UALLEGRO_COLOR@@V?$vector@HV?$allocator@H@std@@@std@@VAllegroColorCompare@@V?$allocator@U?$pair@$$CBUALLEGRO_COLOR@@V?$vector@HV?$allocator@H@std@@@std@@@std@@@3@$0A@@std@@@std@@IAE?AV?$_Tree_iterator@V?$_Tree_val@U?$_Tree_simple_types@U?$pair@$$CBUALLEGRO_COLOR@@V?$vector@HV?$allocator@H@std@@@std@@@std@@@std@@@std@@@1@_NPAU?$_Tree_node@U?$pair@$$CBUALLEGRO_COLOR@@V?$vector@HV?$allocator@H@std@@@std@@@std@@PAX@1@AAU?$pair@$$CBUALLEGRO_COLOR@@V?$vector@HV?$allocator@H@std@@@std@@@1@1@Z 0044c7e0 f i CommonPathfindingLib:GridVisualizer.obj
 0002:00028da0       ??$_Insert_hint@AAU?$pair@$$CBUALLEGRO_COLOR@@V?$vector@HV?$allocator@H@std@@@std@@@std@@PAU?$_Tree_node@U?$pair@$$CBUALLEGRO_COLOR@@V?$vector@HV?$allocator@H@std@@@std@@@std@@PAX@2@@?$_Tree@V?$_Tmap_traits@UALLEGRO_COLOR@@V?$vector@HV?$allocator@H@std@@@std@@VAllegroColorCompare@@V?$allocator@U?$pair@$$CBUALLEGRO_COLOR@@V?$vector@HV?$allocator@H@std@@@std@@@std@@@3@$0A@@std@@@std@@IAE?AV?$_Tree_iterator@V?$_Tree_val@U?$_Tree_simple_types@U?$pair@$$CBUALLEGRO_COLOR@@V?$vector@HV?$allocator@H@std@@@std@@@std@@@std@@@std@@@1@V?$_Tree_const_iterator@V?$_Tree_val@U?$_Tree_simple_types@U?$pair@$$CBUALLEGRO_COLOR@@V?$vector@HV?$allocator@H@std@@@std@@@std@@@std@@@std@@@1@AAU?$pair@$$CBUALLEGRO_COLOR@@V?$vector@HV?$allocator@H@std@@@std@@@1@PAU?$_Tree_node@U?$pair@$$CBUALLEGRO_COLOR@@V?$vector@HV?$allocator@H@std@@@std@@@std@@PAX@1@@Z 0044cda0 f i CommonPathfindingLib:GridVisualizer.obj
 0002:0002a330       ??$_Insert_nohint@AAU?$pair@$$CBUALLEGRO_COLOR@@V?$vector@HV?$allocator@H@std@@@std@@@std@@PAU?$_Tree_node@U?$pair@$$CBUALLEGRO_COLOR@@V?$vector@HV?$allocator@H@std@@@std@@@std@@PAX@2@@?$_Tree@V?$_Tmap_traits@UALLEGRO_COLOR@@V?$vector@HV?$allocator@H@std@@@std@@VAllegroColorCompare@@V?$allocator@U?$pair@$$CBUALLEGRO_COLOR@@V?$vector@HV?$allocator@H@std@@@std@@@std@@@3@$0A@@std@@@std@@IAE?AU?$pair@V?$_Tree_iterator@V?$_Tree_val@U?$_Tree_simple_types@U?$pair@$$CBUALLEGRO_COLOR@@V?$vector@HV?$allocator@H@std@@@std@@@std@@@std@@@std@@@std@@_N@1@_NAAU?$pair@$$CBUALLEGRO_COLOR@@V?$vector@HV?$allocator@H@std@@@std@@@1@PAU?$_Tree_node@U?$pair@$$CBUALLEGRO_COLOR@@V?$vector@HV?$allocator@H@std@@@std@@@std@@PAX@1@@Z 0044e330 f i CommonPathfindingLib:GridVisualizer.obj
 0002:0002aa00       ??$_Kfn@$$CBUALLEGRO_COLOR@@V?$vector@HV?$allocator@H@std@@@std@@@?$_Tmap_traits@UALLEGRO_COLOR@@V?$vector@HV?$allocator@H@std@@@std@@VAllegroColorCompare@@V?$allocator@U?$pair@$$CBUALLEGRO_COLOR@@V?$vector@HV?$allocator@H@std@@@std@@@std@@@3@$0A@@std@@SAABUALLEGRO_COLOR@@ABU?$pair@$$CBUALLEGRO_COLOR@@V?$vector@HV?$allocator@H@std@@@std@@@1@@Z 0044ea00 f i CommonPathfindingLib:GridVisualizer.obj
 0002:0002aa40       ??$_Lbound@UALLEGRO_COLOR@@@?$_Tree@V?$_Tmap_traits@UALLEGRO_COLOR@@V?$vector@HV?$allocator@H@std@@@std@@VAllegroColorCompare@@V?$allocator@U?$pair@$$CBUALLEGRO_COLOR@@V?$vector@HV?$allocator@H@std@@@std@@@std@@@3@$0A@@std@@@std@@IBEPAU?$_Tree_node@U?$pair@$$CBUALLEGRO_COLOR@@V?$vector@HV?$allocator@H@std@@@std@@@std@@PAX@1@ABUALLEGRO_COLOR@@@Z 0044ea40 f i CommonPathfindingLib:GridVisualizer.obj
 0002:0002ab30       ??$_Pocca@U?$_Wrap_alloc@V?$allocator@H@std@@@std@@@std@@YAXAAU?$_Wrap_alloc@V?$allocator@H@std@@@0@ABU10@@Z 0044eb30 f i CommonPathfindingLib:GridVisualizer.obj
 0002:0002abc0       ??$_Pocca@U?$_Wrap_alloc@V?$allocator@H@std@@@std@@@std@@YAXAAU?$_Wrap_alloc@V?$allocator@H@std@@@0@ABU10@U?$integral_constant@_N$0A@@0@@Z 0044ebc0 f i CommonPathfindingLib:GridVisualizer.obj
 0002:0002abf0       ??$_Ptr_copy_cat@HH@std@@YA?AU_Really_trivial_ptr_iterator_tag@0@ABQAH0@Z 0044ebf0 f i CommonPathfindingLib:GridVisualizer.obj
 0002:0002ac30       ??$_Try_emplace@ABUALLEGRO_COLOR@@$$V@?$map@UALLEGRO_COLOR@@V?$vector@HV?$allocator@H@std@@@std@@VAllegroColorCompare@@V?$allocator@U?$pair@$$CBUALLEGRO_COLOR@@V?$vector@HV?$allocator@H@std@@@std@@@std@@@3@@std@@QAE?AU?$pair@V?$_Tree_iterator@V?$_Tree_val@U?$_Tree_simple_types@U?$pair@$$CBUALLEGRO_COLOR@@V?$vector@HV?$allocator@H@std@@@std@@@std@@@std@@@std@@@std@@_N@1@ABUALLEGRO_COLOR@@@Z 0044ec30 f i CommonPathfindingLib:GridVisualizer.obj
 0002:0002af70       ??$_Ucopy@PAH@?$vector@HV?$allocator@H@std@@@std@@AAEPAHPAH00@Z 0044ef70 f i CommonPathfindingLib:GridVisualizer.obj
 0002:0002afe0       ??$_Uninitialized_copy@PAHPAHV?$allocator@H@std@@@std@@YAPAHPAH00AAU?$_Wrap_alloc@V?$allocator@H@std@@@0@@Z 0044efe0 f i CommonPathfindingLib:GridVisualizer.obj
 0002:0002b110       ??$_Uninitialized_copy_al_unchecked@HHV?$allocator@H@std@@@std@@YAPAHPAH00AAU?$_Wrap_alloc@V?$allocator@H@std@@@0@U_Really_trivial_ptr_iterator_tag@0@U?$integral_constant@_N$00@0@@Z 0044f110 f i CommonPathfindingLib:GridVisualizer.obj
 0002:0002b170       ??$addressof@$$CBV?$vector@HV?$allocator@H@std@@@std@@@std@@YAPBV?$vector@HV?$allocator@H@std@@@0@ABV10@@Z 0044f170 f i CommonPathfindingLib:GridVisualizer.obj
 0002:0002b1b0       ??$addressof@PAU?$_Tree_node@U?$pair@$$CBUALLEGRO_COLOR@@V?$vector@HV?$allocator@H@std@@@std@@@std@@PAX@std@@@std@@YAPAPAU?$_Tree_node@U?$pair@$$CBUALLEGRO_COLOR@@V?$vector@HV?$allocator@H@std@@@std@@@std@@PAX@0@AAPAU10@@Z 0044f1b0 f i CommonPathfindingLib:GridVisualizer.obj
 0002:0002b1f0       ??$addressof@U?$pair@$$CBUALLEGRO_COLOR@@V?$vector@HV?$allocator@H@std@@@std@@@std@@@std@@YAPAU?$pair@$$CBUALLEGRO_COLOR@@V?$vector@HV?$allocator@H@std@@@std@@@0@AAU10@@Z 0044f1f0 f i CommonPathfindingLib:GridVisualizer.obj
 0002:0002b230       ??$addressof@V?$_Tree_val@U?$_Tree_simple_types@U?$pair@$$CBUALLEGRO_COLOR@@V?$vector@HV?$allocator@H@std@@@std@@@std@@@std@@@std@@@std@@YAPAV?$_Tree_val@U?$_Tree_simple_types@U?$pair@$$CBUALLEGRO_COLOR@@V?$vector@HV?$allocator@H@std@@@std@@@std@@@std@@@0@AAV10@@Z 0044f230 f i CommonPathfindingLib:GridVisualizer.obj
 0002:0002b270       ??$advance@PAHH@std@@YAXAAPAHH@Z 0044f270 f i CommonPathfindingLib:GridVisualizer.obj
 0002:0002b2e0       ??$assign@PAH@?$vector@HV?$allocator@H@std@@@std@@QAEXPAH0@Z 0044f2e0 f i CommonPathfindingLib:GridVisualizer.obj
 0002:0002b3a0       ??$construct@PAU?$_Tree_node@U?$pair@$$CBUALLEGRO_COLOR@@V?$vector@HV?$allocator@H@std@@@std@@@std@@PAX@std@@AAPAU12@@?$_Wrap_alloc@V?$allocator@U?$_Tree_node@U?$pair@$$CBUALLEGRO_COLOR@@V?$vector@HV?$allocator@H@std@@@std@@@std@@PAX@std@@@std@@@std@@QAEXPAPAU?$_Tree_node@U?$pair@$$CBUALLEGRO_COLOR@@V?$vector@HV?$allocator@H@std@@@std@@@std@@PAX@1@AAPAU21@@Z 0044f3a0 f i CommonPathfindingLib:GridVisualizer.obj
 0002:0002b410       ??$construct@PAU?$_Tree_node@U?$pair@$$CBUALLEGRO_COLOR@@V?$vector@HV?$allocator@H@std@@@std@@@std@@PAX@std@@AAPAU12@@?$allocator@U?$_Tree_node@U?$pair@$$CBUALLEGRO_COLOR@@V?$vector@HV?$allocator@H@std@@@std@@@std@@PAX@std@@@std@@QAEXPAPAU?$_Tree_node@U?$pair@$$CBUALLEGRO_COLOR@@V?$vector@HV?$allocator@H@std@@@std@@@std@@PAX@1@AAPAU21@@Z 0044f410 f i CommonPathfindingLib:GridVisualizer.obj
 0002:0002b4c0       ??$construct@PAU?$_Tree_node@U?$pair@$$CBUALLEGRO_COLOR@@V?$vector@HV?$allocator@H@std@@@std@@@std@@PAX@std@@AAPAU12@@?$allocator_traits@V?$allocator@U?$_Tree_node@U?$pair@$$CBUALLEGRO_COLOR@@V?$vector@HV?$allocator@H@std@@@std@@@std@@PAX@std@@@std@@@std@@SAXAAV?$allocator@U?$_Tree_node@U?$pair@$$CBUALLEGRO_COLOR@@V?$vector@HV?$allocator@H@std@@@std@@@std@@PAX@std@@@1@PAPAU?$_Tree_node@U?$pair@$$CBUALLEGRO_COLOR@@V?$vector@HV?$allocator@H@std@@@std@@@std@@PAX@1@AAPAU31@@Z 0044f4c0 f i CommonPathfindingLib:GridVisualizer.obj
 0002:0002b520       ??$construct@U?$pair@$$CBUALLEGRO_COLOR@@V?$vector@HV?$allocator@H@std@@@std@@@std@@ABUpiecewise_construct_t@2@V?$tuple@ABUALLEGRO_COLOR@@@2@V?$tuple@$$V@2@@?$_Wrap_alloc@V?$allocator@U?$_Tree_node@U?$pair@$$CBUALLEGRO_COLOR@@V?$vector@HV?$allocator@H@std@@@std@@@std@@PAX@std@@@std@@@std@@QAEXPAU?$pair@$$CBUALLEGRO_COLOR@@V?$vector@HV?$allocator@H@std@@@std@@@1@ABUpiecewise_construct_t@1@$$QAV?$tuple@ABUALLEGRO_COLOR@@@1@$$QAV?$tuple@$$V@1@@Z 0044f520 f i CommonPathfindingLib:GridVisualizer.obj
 0002:0002b5b0       ??$construct@U?$pair@$$CBUALLEGRO_COLOR@@V?$vector@HV?$allocator@H@std@@@std@@@std@@ABUpiecewise_construct_t@2@V?$tuple@ABUALLEGRO_COLOR@@@2@V?$tuple@$$V@2@@?$allocator@U?$_Tree_node@U?$pair@$$CBUALLEGRO_COLOR@@V?$vector@HV?$allocator@H@std@@@std@@@std@@PAX@std@@@std@@QAEXPAU?$pair@$$CBUALLEGRO_COLOR@@V?$vector@HV?$allocator@H@std@@@std@@@1@ABUpiecewise_construct_t@1@$$QAV?$tuple@ABUALLEGRO_COLOR@@@1@$$QAV?$tuple@$$V@1@@Z 0044f5b0 f i CommonPathfindingLib:GridVisualizer.obj
 0002:0002b6f0       ??$construct@U?$pair@$$CBUALLEGRO_COLOR@@V?$vector@HV?$allocator@H@std@@@std@@@std@@ABUpiecewise_construct_t@2@V?$tuple@ABUALLEGRO_COLOR@@@2@V?$tuple@$$V@2@@?$allocator_traits@V?$allocator@U?$_Tree_node@U?$pair@$$CBUALLEGRO_COLOR@@V?$vector@HV?$allocator@H@std@@@std@@@std@@PAX@std@@@std@@@std@@SAXAAV?$allocator@U?$_Tree_node@U?$pair@$$CBUALLEGRO_COLOR@@V?$vector@HV?$allocator@H@std@@@std@@@std@@PAX@std@@@1@PAU?$pair@$$CBUALLEGRO_COLOR@@V?$vector@HV?$allocator@H@std@@@std@@@1@ABUpiecewise_construct_t@1@$$QAV?$tuple@ABUALLEGRO_COLOR@@@1@$$QAV?$tuple@$$V@1@@Z 0044f6f0 f i CommonPathfindingLib:GridVisualizer.obj
 0002:0002b770       ??$destroy@PAU?$_Tree_node@U?$pair@$$CBUALLEGRO_COLOR@@V?$vector@HV?$allocator@H@std@@@std@@@std@@PAX@std@@@?$_Wrap_alloc@V?$allocator@U?$_Tree_node@U?$pair@$$CBUALLEGRO_COLOR@@V?$vector@HV?$allocator@H@std@@@std@@@std@@PAX@std@@@std@@@std@@QAEXPAPAU?$_Tree_node@U?$pair@$$CBUALLEGRO_COLOR@@V?$vector@HV?$allocator@H@std@@@std@@@std@@PAX@1@@Z 0044f770 f i CommonPathfindingLib:GridVisualizer.obj
 0002:0002b7d0       ??$destroy@PAU?$_Tree_node@U?$pair@$$CBUALLEGRO_COLOR@@V?$vector@HV?$allocator@H@std@@@std@@@std@@PAX@std@@@?$allocator@U?$_Tree_node@U?$pair@$$CBUALLEGRO_COLOR@@V?$vector@HV?$allocator@H@std@@@std@@@std@@PAX@std@@@std@@QAEXPAPAU?$_Tree_node@U?$pair@$$CBUALLEGRO_COLOR@@V?$vector@HV?$allocator@H@std@@@std@@@std@@PAX@1@@Z 0044f7d0 f i CommonPathfindingLib:GridVisualizer.obj
 0002:0002b810       ??$destroy@PAU?$_Tree_node@U?$pair@$$CBUALLEGRO_COLOR@@V?$vector@HV?$allocator@H@std@@@std@@@std@@PAX@std@@@?$allocator_traits@V?$allocator@U?$_Tree_node@U?$pair@$$CBUALLEGRO_COLOR@@V?$vector@HV?$allocator@H@std@@@std@@@std@@PAX@std@@@std@@@std@@SAXAAV?$allocator@U?$_Tree_node@U?$pair@$$CBUALLEGRO_COLOR@@V?$vector@HV?$allocator@H@std@@@std@@@std@@PAX@std@@@1@PAPAU?$_Tree_node@U?$pair@$$CBUALLEGRO_COLOR@@V?$vector@HV?$allocator@H@std@@@std@@@std@@PAX@1@@Z 0044f810 f i CommonPathfindingLib:GridVisualizer.obj
 0002:0002b860       ??$destroy@U?$pair@$$CBUALLEGRO_COLOR@@V?$vector@HV?$allocator@H@std@@@std@@@std@@@?$_Wrap_alloc@V?$allocator@U?$_Tree_node@U?$pair@$$CBUALLEGRO_COLOR@@V?$vector@HV?$allocator@H@std@@@std@@@std@@PAX@std@@@std@@@std@@QAEXPAU?$pair@$$CBUALLEGRO_COLOR@@V?$vector@HV?$allocator@H@std@@@std@@@1@@Z 0044f860 f i CommonPathfindingLib:GridVisualizer.obj
 0002:0002b8c0       ??$destroy@U?$pair@$$CBUALLEGRO_COLOR@@V?$vector@HV?$allocator@H@std@@@std@@@std@@@?$allocator@U?$_Tree_node@U?$pair@$$CBUALLEGRO_COLOR@@V?$vector@HV?$allocator@H@std@@@std@@@std@@PAX@std@@@std@@QAEXPAU?$pair@$$CBUALLEGRO_COLOR@@V?$vector@HV?$allocator@H@std@@@std@@@1@@Z 0044f8c0 f i CommonPathfindingLib:GridVisualizer.obj
 0002:0002b920       ??$destroy@U?$pair@$$CBUALLEGRO_COLOR@@V?$vector@HV?$allocator@H@std@@@std@@@std@@@?$allocator_traits@V?$allocator@U?$_Tree_node@U?$pair@$$CBUALLEGRO_COLOR@@V?$vector@HV?$allocator@H@std@@@std@@@std@@PAX@std@@@std@@@std@@SAXAAV?$allocator@U?$_Tree_node@U?$pair@$$CBUALLEGRO_COLOR@@V?$vector@HV?$allocator@H@std@@@std@@@std@@PAX@std@@@1@PAU?$pair@$$CBUALLEGRO_COLOR@@V?$vector@HV?$allocator@H@std@@@std@@@1@@Z 0044f920 f i CommonPathfindingLib:GridVisualizer.obj
 0002:0002b970       ??$distance@PAH@std@@YAHPAH0@Z 0044f970 f i CommonPathfindingLib:GridVisualizer.obj
 0002:0002b9e0       ??$emplace_hint@ABUpiecewise_construct_t@std@@V?$tuple@ABUALLEGRO_COLOR@@@2@V?$tuple@$$V@2@@?$_Tree@V?$_Tmap_traits@UALLEGRO_COLOR@@V?$vector@HV?$allocator@H@std@@@std@@VAllegroColorCompare@@V?$allocator@U?$pair@$$CBUALLEGRO_COLOR@@V?$vector@HV?$allocator@H@std@@@std@@@std@@@3@$0A@@std@@@std@@QAE?AV?$_Tree_iterator@V?$_Tree_val@U?$_Tree_simple_types@U?$pair@$$CBUALLEGRO_COLOR@@V?$vector@HV?$allocator@H@std@@@std@@@std@@@std@@@std@@@1@V?$_Tree_const_iterator@V?$_Tree_val@U?$_Tree_simple_types@U?$pair@$$CBUALLEGRO_COLOR@@V?$vector@HV?$allocator@H@std@@@std@@@std@@@std@@@std@@@1@ABUpiecewise_construct_t@1@$$QAV?$tuple@ABUALLEGRO_COLOR@@@1@$$QAV?$tuple@$$V@1@@Z 0044f9e0 f i CommonPathfindingLib:GridVisualizer.obj
 0002:0002bb20       ??$forward@AAPAU?$_Tree_node@U?$pair@$$CBUALLEGRO_COLOR@@V?$vector@HV?$allocator@H@std@@@std@@@std@@PAX@std@@@std@@YAAAPAU?$_Tree_node@U?$pair@$$CBUALLEGRO_COLOR@@V?$vector@HV?$allocator@H@std@@@std@@@std@@PAX@0@AAPAU10@@Z 0044fb20 f i CommonPathfindingLib:GridVisualizer.obj
 0002:0002bb60       ??$forward@AAU?$_Wrap_alloc@V?$allocator@U?$_Tree_node@U?$pair@$$CBUALLEGRO_COLOR@@V?$vector@HV?$allocator@H@std@@@std@@@std@@PAX@std@@@std@@@std@@@std@@YAAAU?$_Wrap_alloc@V?$allocator@U?$_Tree_node@U?$pair@$$CBUALLEGRO_COLOR@@V?$vector@HV?$allocator@H@std@@@std@@@std@@PAX@std@@@std@@@0@AAU10@@Z 0044fb60 f i CommonPathfindingLib:GridVisualizer.obj
 0002:0002bba0       ??$forward@AAU?$pair@$$CBUALLEGRO_COLOR@@V?$vector@HV?$allocator@H@std@@@std@@@std@@@std@@YAAAU?$pair@$$CBUALLEGRO_COLOR@@V?$vector@HV?$allocator@H@std@@@std@@@0@AAU10@@Z 0044fba0 f i CommonPathfindingLib:GridVisualizer.obj
 0002:0002bbe0       ??$forward@AAV?$_Tree_iterator@V?$_Tree_val@U?$_Tree_simple_types@U?$pair@$$CBUALLEGRO_COLOR@@V?$vector@HV?$allocator@H@std@@@std@@@std@@@std@@@std@@@std@@@std@@YAAAV?$_Tree_iterator@V?$_Tree_val@U?$_Tree_simple_types@U?$pair@$$CBUALLEGRO_COLOR@@V?$vector@HV?$allocator@H@std@@@std@@@std@@@std@@@std@@@0@AAV10@@Z 0044fbe0 f i CommonPathfindingLib:GridVisualizer.obj
 0002:0002bc20       ??$forward@ABUALLEGRO_COLOR@@@std@@YAABUALLEGRO_COLOR@@ABU1@@Z 0044fc20 f i CommonPathfindingLib:GridVisualizer.obj
 0002:0002bc60       ??$forward@ABVAllegroColorCompare@@@std@@YAABVAllegroColorCompare@@ABV1@@Z 0044fc60 f i CommonPathfindingLib:GridVisualizer.obj
 0002:0002bca0       ??$forward@V?$_Tree_iterator@V?$_Tree_val@U?$_Tree_simple_types@U?$pair@$$CBUALLEGRO_COLOR@@V?$vector@HV?$allocator@H@std@@@std@@@std@@@std@@@std@@@std@@@std@@YA$$QAV?$_Tree_iterator@V?$_Tree_val@U?$_Tree_simple_types@U?$pair@$$CBUALLEGRO_COLOR@@V?$vector@HV?$allocator@H@std@@@std@@@std@@@std@@@std@@@0@AAV10@@Z 0044fca0 f i CommonPathfindingLib:GridVisualizer.obj
 0002:0002bce0       ??$forward@V?$allocator@H@std@@@std@@YA$$QAV?$allocator@H@0@AAV10@@Z 0044fce0 f i CommonPathfindingLib:GridVisualizer.obj
 0002:0002bd20       ??$forward@V?$tuple@ABUALLEGRO_COLOR@@@std@@@std@@YA$$QAV?$tuple@ABUALLEGRO_COLOR@@@0@AAV10@@Z 0044fd20 f i CommonPathfindingLib:GridVisualizer.obj
 0002:0002bd60       ??$forward_as_tuple@ABUALLEGRO_COLOR@@@std@@YA?AV?$tuple@ABUALLEGRO_COLOR@@@0@ABUALLEGRO_COLOR@@@Z 0044fd60 f i CommonPathfindingLib:GridVisualizer.obj
 0002:0002be00       ??$get@$0A@ABUALLEGRO_COLOR@@@std@@YAABUALLEGRO_COLOR@@$$QAV?$tuple@ABUALLEGRO_COLOR@@@0@@Z 0044fe00 f i CommonPathfindingLib:GridVisualizer.obj
 0002:0002be50       ??$move@AAV?$tuple@ABUALLEGRO_COLOR@@@std@@@std@@YA$$QAV?$tuple@ABUALLEGRO_COLOR@@@0@AAV10@@Z 0044fe50 f i CommonPathfindingLib:GridVisualizer.obj
 0002:0002be90       ??$next@PAH@std@@YAPAHPAHH@Z 0044fe90 f i CommonPathfindingLib:GridVisualizer.obj
 0002:0002bef0       ??$try_emplace@$$V@?$map@UALLEGRO_COLOR@@V?$vector@HV?$allocator@H@std@@@std@@VAllegroColorCompare@@V?$allocator@U?$pair@$$CBUALLEGRO_COLOR@@V?$vector@HV?$allocator@H@std@@@std@@@std@@@3@@std@@QAE?AU?$pair@V?$_Tree_iterator@V?$_Tree_val@U?$_Tree_simple_types@U?$pair@$$CBUALLEGRO_COLOR@@V?$vector@HV?$allocator@H@std@@@std@@@std@@@std@@@std@@@std@@_N@1@ABUALLEGRO_COLOR@@@Z 0044fef0 f i CommonPathfindingLib:GridVisualizer.obj
 0002:0002bf70       ??0?$_Iterator012@Ubidirectional_iterator_tag@std@@U?$pair@$$CBUALLEGRO_COLOR@@V?$vector@HV?$allocator@H@std@@@std@@@2@HPBU32@ABU32@U_Iterator_base12@2@@std@@QAE@$$QAU01@@Z 0044ff70 f i CommonPathfindingLib:GridVisualizer.obj
 0002:0002bfd0       ??0?$_Iterator012@Ubidirectional_iterator_tag@std@@U?$pair@$$CBUALLEGRO_COLOR@@V?$vector@HV?$allocator@H@std@@@std@@@2@HPBU32@ABU32@U_Iterator_base12@2@@std@@QAE@ABU01@@Z 0044ffd0 f i CommonPathfindingLib:GridVisualizer.obj
 0002:0002c030       ??0?$_Iterator012@Ubidirectional_iterator_tag@std@@U?$pair@$$CBUALLEGRO_COLOR@@V?$vector@HV?$allocator@H@std@@@std@@@2@HPBU32@ABU32@U_Iterator_base12@2@@std@@QAE@XZ 00450030 f i CommonPathfindingLib:GridVisualizer.obj
 0002:0002c090       ??0?$_Tree@V?$_Tmap_traits@UALLEGRO_COLOR@@V?$vector@HV?$allocator@H@std@@@std@@VAllegroColorCompare@@V?$allocator@U?$pair@$$CBUALLEGRO_COLOR@@V?$vector@HV?$allocator@H@std@@@std@@@std@@@3@$0A@@std@@@std@@QAE@ABVAllegroColorCompare@@@Z 00450090 f i CommonPathfindingLib:GridVisualizer.obj
 0002:0002c0f0       ??0?$_Tree_comp_alloc@V?$_Tmap_traits@UALLEGRO_COLOR@@V?$vector@HV?$allocator@H@std@@@std@@VAllegroColorCompare@@V?$allocator@U?$pair@$$CBUALLEGRO_COLOR@@V?$vector@HV?$allocator@H@std@@@std@@@std@@@3@$0A@@std@@@std@@QAE@ABVAllegroColorCompare@@@Z 004500f0 f i CommonPathfindingLib:GridVisualizer.obj
 0002:0002c1b0       ??0?$_Tree_const_iterator@V?$_Tree_val@U?$_Tree_simple_types@U?$pair@$$CBUALLEGRO_COLOR@@V?$vector@HV?$allocator@H@std@@@std@@@std@@@std@@@std@@@std@@QAE@$$QAV01@@Z 004501b0 f i CommonPathfindingLib:GridVisualizer.obj
 0002:0002c210       ??0?$_Tree_const_iterator@V?$_Tree_val@U?$_Tree_simple_types@U?$pair@$$CBUALLEGRO_COLOR@@V?$vector@HV?$allocator@H@std@@@std@@@std@@@std@@@std@@@std@@QAE@ABV01@@Z 00450210 f i CommonPathfindingLib:GridVisualizer.obj
 0002:0002c270       ??0?$_Tree_const_iterator@V?$_Tree_val@U?$_Tree_simple_types@U?$pair@$$CBUALLEGRO_COLOR@@V?$vector@HV?$allocator@H@std@@@std@@@std@@@std@@@std@@@std@@QAE@PAU?$_Tree_node@U?$pair@$$CBUALLEGRO_COLOR@@V?$vector@HV?$allocator@H@std@@@std@@@std@@PAX@1@PBV?$_Tree_val@U?$_Tree_simple_types@U?$pair@$$CBUALLEGRO_COLOR@@V?$vector@HV?$allocator@H@std@@@std@@@std@@@std@@@1@@Z 00450270 f i CommonPathfindingLib:GridVisualizer.obj
 0002:0002c2d0       ??0?$_Tree_const_iterator@V?$_Tree_val@U?$_Tree_simple_types@U?$pair@$$CBUALLEGRO_COLOR@@V?$vector@HV?$allocator@H@std@@@std@@@std@@@std@@@std@@@std@@QAE@XZ 004502d0 f i CommonPathfindingLib:GridVisualizer.obj
 0002:0002c330       ??0?$_Tree_iterator@V?$_Tree_val@U?$_Tree_simple_types@U?$pair@$$CBUALLEGRO_COLOR@@V?$vector@HV?$allocator@H@std@@@std@@@std@@@std@@@std@@@std@@QAE@$$QAV01@@Z 00450330 f i CommonPathfindingLib:GridVisualizer.obj
 0002:0002c390       ??0?$_Tree_iterator@V?$_Tree_val@U?$_Tree_simple_types@U?$pair@$$CBUALLEGRO_COLOR@@V?$vector@HV?$allocator@H@std@@@std@@@std@@@std@@@std@@@std@@QAE@ABV01@@Z 00450390 f i CommonPathfindingLib:GridVisualizer.obj
 0002:0002c3f0       ??0?$_Tree_iterator@V?$_Tree_val@U?$_Tree_simple_types@U?$pair@$$CBUALLEGRO_COLOR@@V?$vector@HV?$allocator@H@std@@@std@@@std@@@std@@@std@@@std@@QAE@PAU?$_Tree_node@U?$pair@$$CBUALLEGRO_COLOR@@V?$vector@HV?$allocator@H@std@@@std@@@std@@PAX@1@PBV?$_Tree_val@U?$_Tree_simple_types@U?$pair@$$CBUALLEGRO_COLOR@@V?$vector@HV?$allocator@H@std@@@std@@@std@@@std@@@1@@Z 004503f0 f i CommonPathfindingLib:GridVisualizer.obj
 0002:0002c450       ??0?$_Tree_iterator@V?$_Tree_val@U?$_Tree_simple_types@U?$pair@$$CBUALLEGRO_COLOR@@V?$vector@HV?$allocator@H@std@@@std@@@std@@@std@@@std@@@std@@QAE@XZ 00450450 f i CommonPathfindingLib:GridVisualizer.obj
 0002:0002c4b0       ??0?$_Tree_unchecked_const_iterator@V?$_Tree_val@U?$_Tree_simple_types@U?$pair@$$CBUALLEGRO_COLOR@@V?$vector@HV?$allocator@H@std@@@std@@@std@@@std@@@std@@U_Iterator_base12@2@@std@@QAE@$$QAV01@@Z 004504b0 f i CommonPathfindingLib:GridVisualizer.obj
 0002:0002c520       ??0?$_Tree_unchecked_const_iterator@V?$_Tree_val@U?$_Tree_simple_types@U?$pair@$$CBUALLEGRO_COLOR@@V?$vector@HV?$allocator@H@std@@@std@@@std@@@std@@@std@@U_Iterator_base12@2@@std@@QAE@ABV01@@Z 00450520 f i CommonPathfindingLib:GridVisualizer.obj
 0002:0002c590       ??0?$_Tree_unchecked_const_iterator@V?$_Tree_val@U?$_Tree_simple_types@U?$pair@$$CBUALLEGRO_COLOR@@V?$vector@HV?$allocator@H@std@@@std@@@std@@@std@@@std@@U_Iterator_base12@2@@std@@QAE@PAU?$_Tree_node@U?$pair@$$CBUALLEGRO_COLOR@@V?$vector@HV?$allocator@H@std@@@std@@@std@@PAX@1@PBV?$_Tree_val@U?$_Tree_simple_types@U?$pair@$$CBUALLEGRO_COLOR@@V?$vector@HV?$allocator@H@std@@@std@@@std@@@std@@@1@@Z 00450590 f i CommonPathfindingLib:GridVisualizer.obj
 0002:0002c650       ??0?$_Tree_unchecked_const_iterator@V?$_Tree_val@U?$_Tree_simple_types@U?$pair@$$CBUALLEGRO_COLOR@@V?$vector@HV?$allocator@H@std@@@std@@@std@@@std@@@std@@U_Iterator_base12@2@@std@@QAE@XZ 00450650 f i CommonPathfindingLib:GridVisualizer.obj
 0002:0002c6b0       ??0?$_Tree_val@U?$_Tree_simple_types@U?$pair@$$CBUALLEGRO_COLOR@@V?$vector@HV?$allocator@H@std@@@std@@@std@@@std@@@std@@QAE@XZ 004506b0 f i CommonPathfindingLib:GridVisualizer.obj
 0002:0002c720       ??0?$_Wrap_alloc@V?$allocator@U?$_Tree_node@U?$pair@$$CBUALLEGRO_COLOR@@V?$vector@HV?$allocator@H@std@@@std@@@std@@PAX@std@@@std@@@std@@QAE@XZ 00450720 f i CommonPathfindingLib:GridVisualizer.obj
 0002:0002c780       ??0?$allocator@U?$_Tree_node@U?$pair@$$CBUALLEGRO_COLOR@@V?$vector@HV?$allocator@H@std@@@std@@@std@@PAX@std@@@std@@QAE@XZ 00450780 f i CommonPathfindingLib:GridVisualizer.obj
 0002:0002c7c0       ??0?$map@UALLEGRO_COLOR@@V?$vector@HV?$allocator@H@std@@@std@@VAllegroColorCompare@@V?$allocator@U?$pair@$$CBUALLEGRO_COLOR@@V?$vector@HV?$allocator@H@std@@@std@@@std@@@3@@std@@QAE@XZ 004507c0 f i CommonPathfindingLib:GridVisualizer.obj
 0002:0002c820       ??0?$tuple@ABUALLEGRO_COLOR@@@std@@QAE@$$QAV01@@Z 00450820 f i CommonPathfindingLib:GridVisualizer.obj
 0002:0002c890       ??0?$vector@HV?$allocator@H@std@@@std@@QAE@ABV01@@Z 00450890 f i CommonPathfindingLib:GridVisualizer.obj
 0002:0002ca00       ??0GridVisualizer@@QAE@PAVGrid@@@Z 00450a00 f   CommonPathfindingLib:GridVisualizer.obj
 0002:0002ca70       ??1?$_Compressed_pair@U?$_Wrap_alloc@V?$allocator@U?$_Tree_node@U?$pair@$$CBUALLEGRO_COLOR@@V?$vector@HV?$allocator@H@std@@@std@@@std@@PAX@std@@@std@@@std@@V?$_Tree_val@U?$_Tree_simple_types@U?$pair@$$CBUALLEGRO_COLOR@@V?$vector@HV?$allocator@H@std@@@std@@@std@@@std@@@2@$00@std@@QAE@XZ 00450a70 f i CommonPathfindingLib:GridVisualizer.obj
 0002:0002cac0       ??1?$_Compressed_pair@VAllegroColorCompare@@V?$_Compressed_pair@U?$_Wrap_alloc@V?$allocator@U?$_Tree_node@U?$pair@$$CBUALLEGRO_COLOR@@V?$vector@HV?$allocator@H@std@@@std@@@std@@PAX@std@@@std@@@std@@V?$_Tree_val@U?$_Tree_simple_types@U?$pair@$$CBUALLEGRO_COLOR@@V?$vector@HV?$allocator@H@std@@@std@@@std@@@std@@@2@$00@std@@$00@std@@QAE@XZ 00450ac0 f i CommonPathfindingLib:GridVisualizer.obj
 0002:0002cb10       ??1?$_Iterator012@Ubidirectional_iterator_tag@std@@U?$pair@$$CBUALLEGRO_COLOR@@V?$vector@HV?$allocator@H@std@@@std@@@2@HPBU32@ABU32@U_Iterator_base12@2@@std@@QAE@XZ 00450b10 f i CommonPathfindingLib:GridVisualizer.obj
 0002:0002cb60       ??1?$_Tree@V?$_Tmap_traits@UALLEGRO_COLOR@@V?$vector@HV?$allocator@H@std@@@std@@VAllegroColorCompare@@V?$allocator@U?$pair@$$CBUALLEGRO_COLOR@@V?$vector@HV?$allocator@H@std@@@std@@@std@@@3@$0A@@std@@@std@@QAE@XZ 00450b60 f i CommonPathfindingLib:GridVisualizer.obj
 0002:0002cbf0       ??1?$_Tree_comp_alloc@V?$_Tmap_traits@UALLEGRO_COLOR@@V?$vector@HV?$allocator@H@std@@@std@@VAllegroColorCompare@@V?$allocator@U?$pair@$$CBUALLEGRO_COLOR@@V?$vector@HV?$allocator@H@std@@@std@@@std@@@3@$0A@@std@@@std@@QAE@XZ 00450bf0 f i CommonPathfindingLib:GridVisualizer.obj
 0002:0002cca0       ??1?$_Tree_const_iterator@V?$_Tree_val@U?$_Tree_simple_types@U?$pair@$$CBUALLEGRO_COLOR@@V?$vector@HV?$allocator@H@std@@@std@@@std@@@std@@@std@@@std@@QAE@XZ 00450ca0 f i CommonPathfindingLib:GridVisualizer.obj
 0002:0002ccf0       ??1?$_Tree_iterator@V?$_Tree_val@U?$_Tree_simple_types@U?$pair@$$CBUALLEGRO_COLOR@@V?$vector@HV?$allocator@H@std@@@std@@@std@@@std@@@std@@@std@@QAE@XZ 00450cf0 f i CommonPathfindingLib:GridVisualizer.obj
 0002:0002cd40       ??1?$_Tree_unchecked_const_iterator@V?$_Tree_val@U?$_Tree_simple_types@U?$pair@$$CBUALLEGRO_COLOR@@V?$vector@HV?$allocator@H@std@@@std@@@std@@@std@@@std@@U_Iterator_base12@2@@std@@QAE@XZ 00450d40 f i CommonPathfindingLib:GridVisualizer.obj
 0002:0002cd90       ??1?$_Tree_val@U?$_Tree_simple_types@U?$pair@$$CBUALLEGRO_COLOR@@V?$vector@HV?$allocator@H@std@@@std@@@std@@@std@@@std@@QAE@XZ 00450d90 f i CommonPathfindingLib:GridVisualizer.obj
 0002:0002cde0       ??1?$map@UALLEGRO_COLOR@@V?$vector@HV?$allocator@H@std@@@std@@VAllegroColorCompare@@V?$allocator@U?$pair@$$CBUALLEGRO_COLOR@@V?$vector@HV?$allocator@H@std@@@std@@@std@@@3@@std@@QAE@XZ 00450de0 f i CommonPathfindingLib:GridVisualizer.obj
 0002:0002ce30       ??1?$pair@$$CBUALLEGRO_COLOR@@V?$vector@HV?$allocator@H@std@@@std@@@std@@QAE@XZ 00450e30 f i CommonPathfindingLib:GridVisualizer.obj
 0002:0002ce90       ??1?$pair@V?$_Tree_iterator@V?$_Tree_val@U?$_Tree_simple_types@U?$pair@$$CBUALLEGRO_COLOR@@V?$vector@HV?$allocator@H@std@@@std@@@std@@@std@@@std@@@std@@_N@std@@QAE@XZ 00450e90 f i CommonPathfindingLib:GridVisualizer.obj
 0002:0002cee0       ??1GridVisualizer@@QAE@XZ  00450ee0 f   CommonPathfindingLib:GridVisualizer.obj
 0002:0002cf40       ??4?$_Iterator012@Ubidirectional_iterator_tag@std@@U?$pair@$$CBUALLEGRO_COLOR@@V?$vector@HV?$allocator@H@std@@@std@@@2@HPBU32@ABU32@U_Iterator_base12@2@@std@@QAEAAU01@$$QAU01@@Z 00450f40 f i CommonPathfindingLib:GridVisualizer.obj
 0002:0002cfa0       ??4?$_Iterator012@Ubidirectional_iterator_tag@std@@U?$pair@$$CBUALLEGRO_COLOR@@V?$vector@HV?$allocator@H@std@@@std@@@2@HPBU32@ABU32@U_Iterator_base12@2@@std@@QAEAAU01@ABU01@@Z 00450fa0 f i CommonPathfindingLib:GridVisualizer.obj
 0002:0002d000       ??4?$_Tree_const_iterator@V?$_Tree_val@U?$_Tree_simple_types@U?$pair@$$CBUALLEGRO_COLOR@@V?$vector@HV?$allocator@H@std@@@std@@@std@@@std@@@std@@@std@@QAEAAV01@$$QAV01@@Z 00451000 f i CommonPathfindingLib:GridVisualizer.obj
 0002:0002d060       ??4?$_Tree_const_iterator@V?$_Tree_val@U?$_Tree_simple_types@U?$pair@$$CBUALLEGRO_COLOR@@V?$vector@HV?$allocator@H@std@@@std@@@std@@@std@@@std@@@std@@QAEAAV01@ABV01@@Z 00451060 f i CommonPathfindingLib:GridVisualizer.obj
 0002:0002d0c0       ??4?$_Tree_iterator@V?$_Tree_val@U?$_Tree_simple_types@U?$pair@$$CBUALLEGRO_COLOR@@V?$vector@HV?$allocator@H@std@@@std@@@std@@@std@@@std@@@std@@QAEAAV01@$$QAV01@@Z 004510c0 f i CommonPathfindingLib:GridVisualizer.obj
 0002:0002d120       ??4?$_Tree_unchecked_const_iterator@V?$_Tree_val@U?$_Tree_simple_types@U?$pair@$$CBUALLEGRO_COLOR@@V?$vector@HV?$allocator@H@std@@@std@@@std@@@std@@@std@@U_Iterator_base12@2@@std@@QAEAAV01@$$QAV01@@Z 00451120 f i CommonPathfindingLib:GridVisualizer.obj
 0002:0002d190       ??4?$_Tree_unchecked_const_iterator@V?$_Tree_val@U?$_Tree_simple_types@U?$pair@$$CBUALLEGRO_COLOR@@V?$vector@HV?$allocator@H@std@@@std@@@std@@@std@@@std@@U_Iterator_base12@2@@std@@QAEAAV01@ABV01@@Z 00451190 f i CommonPathfindingLib:GridVisualizer.obj
 0002:0002d200       ??4?$vector@HV?$allocator@H@std@@@std@@QAEAAV01@ABV01@@Z 00451200 f i CommonPathfindingLib:GridVisualizer.obj
 0002:0002d2b0       ??8?$_Tree_const_iterator@V?$_Tree_val@U?$_Tree_simple_types@U?$pair@$$CBUALLEGRO_COLOR@@V?$vector@HV?$allocator@H@std@@@std@@@std@@@std@@@std@@@std@@QBE_NABV01@@Z 004512b0 f i CommonPathfindingLib:GridVisualizer.obj
 0002:0002d3b0       ??9?$_Tree_const_iterator@V?$_Tree_val@U?$_Tree_simple_types@U?$pair@$$CBUALLEGRO_COLOR@@V?$vector@HV?$allocator@H@std@@@std@@@std@@@std@@@std@@@std@@QBE_NABV01@@Z 004513b0 f i CommonPathfindingLib:GridVisualizer.obj
 0002:0002d440       ??A?$map@UALLEGRO_COLOR@@V?$vector@HV?$allocator@H@std@@@std@@VAllegroColorCompare@@V?$allocator@U?$pair@$$CBUALLEGRO_COLOR@@V?$vector@HV?$allocator@H@std@@@std@@@std@@@3@@std@@QAEAAV?$vector@HV?$allocator@H@std@@@1@ABUALLEGRO_COLOR@@@Z 00451440 f i CommonPathfindingLib:GridVisualizer.obj
 0002:0002d530       ??A?$vector@HV?$allocator@H@std@@@std@@QAEAAHI@Z 00451530 f i CommonPathfindingLib:GridVisualizer.obj
 0002:0002d600       ??C?$_Tree_iterator@V?$_Tree_val@U?$_Tree_simple_types@U?$pair@$$CBUALLEGRO_COLOR@@V?$vector@HV?$allocator@H@std@@@std@@@std@@@std@@@std@@@std@@QBEPAU?$pair@$$CBUALLEGRO_COLOR@@V?$vector@HV?$allocator@H@std@@@std@@@1@XZ 00451600 f i CommonPathfindingLib:GridVisualizer.obj
 0002:0002d660       ??D?$_Tree_const_iterator@V?$_Tree_val@U?$_Tree_simple_types@U?$pair@$$CBUALLEGRO_COLOR@@V?$vector@HV?$allocator@H@std@@@std@@@std@@@std@@@std@@@std@@QBEABU?$pair@$$CBUALLEGRO_COLOR@@V?$vector@HV?$allocator@H@std@@@std@@@1@XZ 00451660 f i CommonPathfindingLib:GridVisualizer.obj
 0002:0002d750       ??D?$_Tree_iterator@V?$_Tree_val@U?$_Tree_simple_types@U?$pair@$$CBUALLEGRO_COLOR@@V?$vector@HV?$allocator@H@std@@@std@@@std@@@std@@@std@@@std@@QBEAAU?$pair@$$CBUALLEGRO_COLOR@@V?$vector@HV?$allocator@H@std@@@std@@@1@XZ 00451750 f i CommonPathfindingLib:GridVisualizer.obj
 0002:0002d7a0       ??E?$_Tree_const_iterator@V?$_Tree_val@U?$_Tree_simple_types@U?$pair@$$CBUALLEGRO_COLOR@@V?$vector@HV?$allocator@H@std@@@std@@@std@@@std@@@std@@@std@@QAE?AV01@H@Z 004517a0 f i CommonPathfindingLib:GridVisualizer.obj
 0002:0002d8c0       ??E?$_Tree_const_iterator@V?$_Tree_val@U?$_Tree_simple_types@U?$pair@$$CBUALLEGRO_COLOR@@V?$vector@HV?$allocator@H@std@@@std@@@std@@@std@@@std@@@std@@QAEAAV01@XZ 004518c0 f i CommonPathfindingLib:GridVisualizer.obj
 0002:0002d9b0       ??E?$_Tree_iterator@V?$_Tree_val@U?$_Tree_simple_types@U?$pair@$$CBUALLEGRO_COLOR@@V?$vector@HV?$allocator@H@std@@@std@@@std@@@std@@@std@@@std@@QAEAAV01@XZ 004519b0 f i CommonPathfindingLib:GridVisualizer.obj
 0002:0002da10       ??E?$_Tree_unchecked_const_iterator@V?$_Tree_val@U?$_Tree_simple_types@U?$pair@$$CBUALLEGRO_COLOR@@V?$vector@HV?$allocator@H@std@@@std@@@std@@@std@@@std@@U_Iterator_base12@2@@std@@QAEAAV01@XZ 00451a10 f i CommonPathfindingLib:GridVisualizer.obj
 0002:0002db40       ??F?$_Tree_const_iterator@V?$_Tree_val@U?$_Tree_simple_types@U?$pair@$$CBUALLEGRO_COLOR@@V?$vector@HV?$allocator@H@std@@@std@@@std@@@std@@@std@@@std@@QAEAAV01@XZ 00451b40 f i CommonPathfindingLib:GridVisualizer.obj
 0002:0002dc80       ??F?$_Tree_iterator@V?$_Tree_val@U?$_Tree_simple_types@U?$pair@$$CBUALLEGRO_COLOR@@V?$vector@HV?$allocator@H@std@@@std@@@std@@@std@@@std@@@std@@QAEAAV01@XZ 00451c80 f i CommonPathfindingLib:GridVisualizer.obj
 0002:0002dce0       ??F?$_Tree_unchecked_const_iterator@V?$_Tree_val@U?$_Tree_simple_types@U?$pair@$$CBUALLEGRO_COLOR@@V?$vector@HV?$allocator@H@std@@@std@@@std@@@std@@@std@@U_Iterator_base12@2@@std@@QAEAAV01@XZ 00451ce0 f i CommonPathfindingLib:GridVisualizer.obj
 0002:0002de40       ??_G?$pair@$$CBUALLEGRO_COLOR@@V?$vector@HV?$allocator@H@std@@@std@@@std@@QAEPAXI@Z 00451e40 f i CommonPathfindingLib:GridVisualizer.obj
 0002:0002deb0       ?_Alloc_proxy@?$_Tree_comp_alloc@V?$_Tmap_traits@UALLEGRO_COLOR@@V?$vector@HV?$allocator@H@std@@@std@@VAllegroColorCompare@@V?$allocator@U?$pair@$$CBUALLEGRO_COLOR@@V?$vector@HV?$allocator@H@std@@@std@@@std@@@3@$0A@@std@@@std@@QAEXXZ 00451eb0 f i CommonPathfindingLib:GridVisualizer.obj
 0002:0002dfc0       ?_Buy@?$vector@HV?$allocator@H@std@@@std@@AAE_NI@Z 00451fc0 f i CommonPathfindingLib:GridVisualizer.obj
 0002:0002e0d0       ?_Buyheadnode@?$_Tree_comp_alloc@V?$_Tmap_traits@UALLEGRO_COLOR@@V?$vector@HV?$allocator@H@std@@@std@@VAllegroColorCompare@@V?$allocator@U?$pair@$$CBUALLEGRO_COLOR@@V?$vector@HV?$allocator@H@std@@@std@@@std@@@3@$0A@@std@@@std@@QAEPAU?$_Tree_node@U?$pair@$$CBUALLEGRO_COLOR@@V?$vector@HV?$allocator@H@std@@@std@@@std@@PAX@2@XZ 004520d0 f i CommonPathfindingLib:GridVisualizer.obj
 0002:0002e2e0       ?_Buynode0@?$_Tree_comp_alloc@V?$_Tmap_traits@UALLEGRO_COLOR@@V?$vector@HV?$allocator@H@std@@@std@@VAllegroColorCompare@@V?$allocator@U?$pair@$$CBUALLEGRO_COLOR@@V?$vector@HV?$allocator@H@std@@@std@@@std@@@3@$0A@@std@@@std@@QAEPAU?$_Tree_node@U?$pair@$$CBUALLEGRO_COLOR@@V?$vector@HV?$allocator@H@std@@@std@@@std@@PAX@2@XZ 004522e0 f i CommonPathfindingLib:GridVisualizer.obj
 0002:0002e4a0       ?_Color@?$_Tree_comp_alloc@V?$_Tmap_traits@UALLEGRO_COLOR@@V?$vector@HV?$allocator@H@std@@@std@@VAllegroColorCompare@@V?$allocator@U?$pair@$$CBUALLEGRO_COLOR@@V?$vector@HV?$allocator@H@std@@@std@@@std@@@3@$0A@@std@@@std@@SAAADPAU?$_Tree_node@U?$pair@$$CBUALLEGRO_COLOR@@V?$vector@HV?$allocator@H@std@@@std@@@std@@PAX@2@@Z 004524a0 f i CommonPathfindingLib:GridVisualizer.obj
 0002:0002e4f0       ?_Color@?$_Tree_val@U?$_Tree_simple_types@U?$pair@$$CBUALLEGRO_COLOR@@V?$vector@HV?$allocator@H@std@@@std@@@std@@@std@@@std@@SAAADPAU?$_Tree_node@U?$pair@$$CBUALLEGRO_COLOR@@V?$vector@HV?$allocator@H@std@@@std@@@std@@PAX@2@@Z 004524f0 f i CommonPathfindingLib:GridVisualizer.obj
 0002:0002e530       ?_Compare@?$_Tree@V?$_Tmap_traits@UALLEGRO_COLOR@@V?$vector@HV?$allocator@H@std@@@std@@VAllegroColorCompare@@V?$allocator@U?$pair@$$CBUALLEGRO_COLOR@@V?$vector@HV?$allocator@H@std@@@std@@@std@@@3@$0A@@std@@@std@@IBE_NABUALLEGRO_COLOR@@0@Z 00452530 f i CommonPathfindingLib:GridVisualizer.obj
 0002:0002e5b0       ?_Construct@?$_Tree_comp_alloc@V?$_Tmap_traits@UALLEGRO_COLOR@@V?$vector@HV?$allocator@H@std@@@std@@VAllegroColorCompare@@V?$allocator@U?$pair@$$CBUALLEGRO_COLOR@@V?$vector@HV?$allocator@H@std@@@std@@@std@@@3@$0A@@std@@@std@@QAEXXZ 004525b0 f i CommonPathfindingLib:GridVisualizer.obj
 0002:0002e6a0       ?_Copy_alloc@?$_Vector_alloc@U?$_Vec_base_types@HV?$allocator@H@std@@@std@@@std@@QAEXABU?$_Wrap_alloc@V?$allocator@H@std@@@2@@Z 004526a0 f i CommonPathfindingLib:GridVisualizer.obj
 0002:0002e730       ?_Destroy_if_not_nil@?$_Tree@V?$_Tmap_traits@UALLEGRO_COLOR@@V?$vector@HV?$allocator@H@std@@@std@@VAllegroColorCompare@@V?$allocator@U?$pair@$$CBUALLEGRO_COLOR@@V?$vector@HV?$allocator@H@std@@@std@@@std@@@3@$0A@@std@@@std@@IAEXPAU?$_Tree_node@U?$pair@$$CBUALLEGRO_COLOR@@V?$vector@HV?$allocator@H@std@@@std@@@std@@PAX@2@@Z 00452730 f i CommonPathfindingLib:GridVisualizer.obj
 0002:0002e7c0       ?_Erase@?$_Tree@V?$_Tmap_traits@UALLEGRO_COLOR@@V?$vector@HV?$allocator@H@std@@@std@@VAllegroColorCompare@@V?$allocator@U?$pair@$$CBUALLEGRO_COLOR@@V?$vector@HV?$allocator@H@std@@@std@@@std@@@3@$0A@@std@@@std@@IAEXPAU?$_Tree_node@U?$pair@$$CBUALLEGRO_COLOR@@V?$vector@HV?$allocator@H@std@@@std@@@std@@PAX@2@@Z 004527c0 f i CommonPathfindingLib:GridVisualizer.obj
 0002:0002e8b0       ?_Free_proxy@?$_Tree_comp_alloc@V?$_Tmap_traits@UALLEGRO_COLOR@@V?$vector@HV?$allocator@H@std@@@std@@VAllegroColorCompare@@V?$allocator@U?$pair@$$CBUALLEGRO_COLOR@@V?$vector@HV?$allocator@H@std@@@std@@@std@@@3@$0A@@std@@@std@@QAEXXZ 004528b0 f i CommonPathfindingLib:GridVisualizer.obj
 0002:0002e9a0       ?_Freeheadnode@?$_Tree_comp_alloc@V?$_Tmap_traits@UALLEGRO_COLOR@@V?$vector@HV?$allocator@H@std@@@std@@VAllegroColorCompare@@V?$allocator@U?$pair@$$CBUALLEGRO_COLOR@@V?$vector@HV?$allocator@H@std@@@std@@@std@@@3@$0A@@std@@@std@@QAEXPAU?$_Tree_node@U?$pair@$$CBUALLEGRO_COLOR@@V?$vector@HV?$allocator@H@std@@@std@@@std@@PAX@2@@Z 004529a0 f i CommonPathfindingLib:GridVisualizer.obj
 0002:0002ea90       ?_Freenode0@?$_Tree_comp_alloc@V?$_Tmap_traits@UALLEGRO_COLOR@@V?$vector@HV?$allocator@H@std@@@std@@VAllegroColorCompare@@V?$allocator@U?$pair@$$CBUALLEGRO_COLOR@@V?$vector@HV?$allocator@H@std@@@std@@@std@@@3@$0A@@std@@@std@@QAEXPAU?$_Tree_node@U?$pair@$$CBUALLEGRO_COLOR@@V?$vector@HV?$allocator@H@std@@@std@@@std@@PAX@2@@Z 00452a90 f i CommonPathfindingLib:GridVisualizer.obj
 0002:0002eb80       ?_Get_data@?$_Tree_comp_alloc@V?$_Tmap_traits@UALLEGRO_COLOR@@V?$vector@HV?$allocator@H@std@@@std@@VAllegroColorCompare@@V?$allocator@U?$pair@$$CBUALLEGRO_COLOR@@V?$vector@HV?$allocator@H@std@@@std@@@std@@@3@$0A@@std@@@std@@QAEAAV?$_Tree_val@U?$_Tree_simple_types@U?$pair@$$CBUALLEGRO_COLOR@@V?$vector@HV?$allocator@H@std@@@std@@@std@@@std@@@2@XZ 00452b80 f i CommonPathfindingLib:GridVisualizer.obj
 0002:0002ebe0       ?_Get_data@?$_Tree_comp_alloc@V?$_Tmap_traits@UALLEGRO_COLOR@@V?$vector@HV?$allocator@H@std@@@std@@VAllegroColorCompare@@V?$allocator@U?$pair@$$CBUALLEGRO_COLOR@@V?$vector@HV?$allocator@H@std@@@std@@@std@@@3@$0A@@std@@@std@@QBEABV?$_Tree_val@U?$_Tree_simple_types@U?$pair@$$CBUALLEGRO_COLOR@@V?$vector@HV?$allocator@H@std@@@std@@@std@@@std@@@2@XZ 00452be0 f i CommonPathfindingLib:GridVisualizer.obj
 0002:0002ec40       ?_Get_first@?$_Compressed_pair@U?$_Wrap_alloc@V?$allocator@U?$_Tree_node@U?$pair@$$CBUALLEGRO_COLOR@@V?$vector@HV?$allocator@H@std@@@std@@@std@@PAX@std@@@std@@@std@@V?$_Tree_val@U?$_Tree_simple_types@U?$pair@$$CBUALLEGRO_COLOR@@V?$vector@HV?$allocator@H@std@@@std@@@std@@@std@@@2@$00@std@@QAEAAU?$_Wrap_alloc@V?$allocator@U?$_Tree_node@U?$pair@$$CBUALLEGRO_COLOR@@V?$vector@HV?$allocator@H@std@@@std@@@std@@PAX@std@@@std@@@2@XZ 00452c40 f i CommonPathfindingLib:GridVisualizer.obj
 0002:0002ec80       ?_Get_first@?$_Compressed_pair@U?$_Wrap_alloc@V?$allocator@U?$_Tree_node@U?$pair@$$CBUALLEGRO_COLOR@@V?$vector@HV?$allocator@H@std@@@std@@@std@@PAX@std@@@std@@@std@@V?$_Tree_val@U?$_Tree_simple_types@U?$pair@$$CBUALLEGRO_COLOR@@V?$vector@HV?$allocator@H@std@@@std@@@std@@@std@@@2@$00@std@@QBEABU?$_Wrap_alloc@V?$allocator@U?$_Tree_node@U?$pair@$$CBUALLEGRO_COLOR@@V?$vector@HV?$allocator@H@std@@@std@@@std@@PAX@std@@@std@@@2@XZ 00452c80 f i CommonPathfindingLib:GridVisualizer.obj
 0002:0002ecc0       ?_Get_first@?$_Compressed_pair@VAllegroColorCompare@@V?$_Compressed_pair@U?$_Wrap_alloc@V?$allocator@U?$_Tree_node@U?$pair@$$CBUALLEGRO_COLOR@@V?$vector@HV?$allocator@H@std@@@std@@@std@@PAX@std@@@std@@@std@@V?$_Tree_val@U?$_Tree_simple_types@U?$pair@$$CBUALLEGRO_COLOR@@V?$vector@HV?$allocator@H@std@@@std@@@std@@@std@@@2@$00@std@@$00@std@@QAEAAVAllegroColorCompare@@XZ 00452cc0 f i CommonPathfindingLib:GridVisualizer.obj
 0002:0002ed00       ?_Get_first@?$_Compressed_pair@VAllegroColorCompare@@V?$_Compressed_pair@U?$_Wrap_alloc@V?$allocator@U?$_Tree_node@U?$pair@$$CBUALLEGRO_COLOR@@V?$vector@HV?$allocator@H@std@@@std@@@std@@PAX@std@@@std@@@std@@V?$_Tree_val@U?$_Tree_simple_types@U?$pair@$$CBUALLEGRO_COLOR@@V?$vector@HV?$allocator@H@std@@@std@@@std@@@std@@@2@$00@std@@$00@std@@QBEABVAllegroColorCompare@@XZ 00452d00 f i CommonPathfindingLib:GridVisualizer.obj
 0002:0002ed40       ?_Get_second@?$_Compressed_pair@U?$_Wrap_alloc@V?$allocator@U?$_Tree_node@U?$pair@$$CBUALLEGRO_COLOR@@V?$vector@HV?$allocator@H@std@@@std@@@std@@PAX@std@@@std@@@std@@V?$_Tree_val@U?$_Tree_simple_types@U?$pair@$$CBUALLEGRO_COLOR@@V?$vector@HV?$allocator@H@std@@@std@@@std@@@std@@@2@$00@std@@QAEAAV?$_Tree_val@U?$_Tree_simple_types@U?$pair@$$CBUALLEGRO_COLOR@@V?$vector@HV?$allocator@H@std@@@std@@@std@@@std@@@2@XZ 00452d40 f i CommonPathfindingLib:GridVisualizer.obj
 0002:0002ed80       ?_Get_second@?$_Compressed_pair@U?$_Wrap_alloc@V?$allocator@U?$_Tree_node@U?$pair@$$CBUALLEGRO_COLOR@@V?$vector@HV?$allocator@H@std@@@std@@@std@@PAX@std@@@std@@@std@@V?$_Tree_val@U?$_Tree_simple_types@U?$pair@$$CBUALLEGRO_COLOR@@V?$vector@HV?$allocator@H@std@@@std@@@std@@@std@@@2@$00@std@@QBEABV?$_Tree_val@U?$_Tree_simple_types@U?$pair@$$CBUALLEGRO_COLOR@@V?$vector@HV?$allocator@H@std@@@std@@@std@@@std@@@2@XZ 00452d80 f i CommonPathfindingLib:GridVisualizer.obj
 0002:0002edc0       ?_Get_second@?$_Compressed_pair@VAllegroColorCompare@@V?$_Compressed_pair@U?$_Wrap_alloc@V?$allocator@U?$_Tree_node@U?$pair@$$CBUALLEGRO_COLOR@@V?$vector@HV?$allocator@H@std@@@std@@@std@@PAX@std@@@std@@@std@@V?$_Tree_val@U?$_Tree_simple_types@U?$pair@$$CBUALLEGRO_COLOR@@V?$vector@HV?$allocator@H@std@@@std@@@std@@@std@@@2@$00@std@@$00@std@@QAEAAV?$_Compressed_pair@U?$_Wrap_alloc@V?$allocator@U?$_Tree_node@U?$pair@$$CBUALLEGRO_COLOR@@V?$vector@HV?$allocator@H@std@@@std@@@std@@PAX@std@@@std@@@std@@V?$_Tree_val@U?$_Tree_simple_types@U?$pair@$$CBUALLEGRO_COLOR@@V?$vector@HV?$allocator@H@std@@@std@@@std@@@std@@@2@$00@2@XZ 00452dc0 f i CommonPathfindingLib:GridVisualizer.obj
 0002:0002ee00       ?_Get_second@?$_Compressed_pair@VAllegroColorCompare@@V?$_Compressed_pair@U?$_Wrap_alloc@V?$allocator@U?$_Tree_node@U?$pair@$$CBUALLEGRO_COLOR@@V?$vector@HV?$allocator@H@std@@@std@@@std@@PAX@std@@@std@@@std@@V?$_Tree_val@U?$_Tree_simple_types@U?$pair@$$CBUALLEGRO_COLOR@@V?$vector@HV?$allocator@H@std@@@std@@@std@@@std@@@2@$00@std@@$00@std@@QBEABV?$_Compressed_pair@U?$_Wrap_alloc@V?$allocator@U?$_Tree_node@U?$pair@$$CBUALLEGRO_COLOR@@V?$vector@HV?$allocator@H@std@@@std@@@std@@PAX@std@@@std@@@std@@V?$_Tree_val@U?$_Tree_simple_types@U?$pair@$$CBUALLEGRO_COLOR@@V?$vector@HV?$allocator@H@std@@@std@@@std@@@std@@@2@$00@2@XZ 00452e00 f i CommonPathfindingLib:GridVisualizer.obj
 0002:0002ee40       ?_Getal@?$_Tree_comp_alloc@V?$_Tmap_traits@UALLEGRO_COLOR@@V?$vector@HV?$allocator@H@std@@@std@@VAllegroColorCompare@@V?$allocator@U?$pair@$$CBUALLEGRO_COLOR@@V?$vector@HV?$allocator@H@std@@@std@@@std@@@3@$0A@@std@@@std@@QAEAAU?$_Wrap_alloc@V?$allocator@U?$_Tree_node@U?$pair@$$CBUALLEGRO_COLOR@@V?$vector@HV?$allocator@H@std@@@std@@@std@@PAX@std@@@std@@@2@XZ 00452e40 f i CommonPathfindingLib:GridVisualizer.obj
 0002:0002eea0       ?_Getal@?$_Tree_comp_alloc@V?$_Tmap_traits@UALLEGRO_COLOR@@V?$vector@HV?$allocator@H@std@@@std@@VAllegroColorCompare@@V?$allocator@U?$pair@$$CBUALLEGRO_COLOR@@V?$vector@HV?$allocator@H@std@@@std@@@std@@@3@$0A@@std@@@std@@QBEABU?$_Wrap_alloc@V?$allocator@U?$_Tree_node@U?$pair@$$CBUALLEGRO_COLOR@@V?$vector@HV?$allocator@H@std@@@std@@@std@@PAX@std@@@std@@@2@XZ 00452ea0 f i CommonPathfindingLib:GridVisualizer.obj
 0002:0002ef00       ?_Getcomp@?$_Tree_comp_alloc@V?$_Tmap_traits@UALLEGRO_COLOR@@V?$vector@HV?$allocator@H@std@@@std@@VAllegroColorCompare@@V?$allocator@U?$pair@$$CBUALLEGRO_COLOR@@V?$vector@HV?$allocator@H@std@@@std@@@std@@@3@$0A@@std@@@std@@QAEAAVAllegroColorCompare@@XZ 00452f00 f i CommonPathfindingLib:GridVisualizer.obj
 0002:0002ef50       ?_Getcomp@?$_Tree_comp_alloc@V?$_Tmap_traits@UALLEGRO_COLOR@@V?$vector@HV?$allocator@H@std@@@std@@VAllegroColorCompare@@V?$allocator@U?$pair@$$CBUALLEGRO_COLOR@@V?$vector@HV?$allocator@H@std@@@std@@@std@@@3@$0A@@std@@@std@@QBEABVAllegroColorCompare@@XZ 00452f50 f i CommonPathfindingLib:GridVisualizer.obj
 0002:0002efa0       ?_Getpfirst@?$_Tree_comp_alloc@V?$_Tmap_traits@UALLEGRO_COLOR@@V?$vector@HV?$allocator@H@std@@@std@@VAllegroColorCompare@@V?$allocator@U?$pair@$$CBUALLEGRO_COLOR@@V?$vector@HV?$allocator@H@std@@@std@@@std@@@3@$0A@@std@@@std@@QBEPAPAU_Iterator_base12@2@XZ 00452fa0 f i CommonPathfindingLib:GridVisualizer.obj
 0002:0002f000       ?_Isnil@?$_Tree_comp_alloc@V?$_Tmap_traits@UALLEGRO_COLOR@@V?$vector@HV?$allocator@H@std@@@std@@VAllegroColorCompare@@V?$allocator@U?$pair@$$CBUALLEGRO_COLOR@@V?$vector@HV?$allocator@H@std@@@std@@@std@@@3@$0A@@std@@@std@@SAAADPAU?$_Tree_node@U?$pair@$$CBUALLEGRO_COLOR@@V?$vector@HV?$allocator@H@std@@@std@@@std@@PAX@2@@Z 00453000 f i CommonPathfindingLib:GridVisualizer.obj
 0002:0002f050       ?_Isnil@?$_Tree_val@U?$_Tree_simple_types@U?$pair@$$CBUALLEGRO_COLOR@@V?$vector@HV?$allocator@H@std@@@std@@@std@@@std@@@std@@SAAADPAU?$_Tree_node@U?$pair@$$CBUALLEGRO_COLOR@@V?$vector@HV?$allocator@H@std@@@std@@@std@@PAX@2@@Z 00453050 f i CommonPathfindingLib:GridVisualizer.obj
 0002:0002f090       ?_Key@?$_Tree@V?$_Tmap_traits@UALLEGRO_COLOR@@V?$vector@HV?$allocator@H@std@@@std@@VAllegroColorCompare@@V?$allocator@U?$pair@$$CBUALLEGRO_COLOR@@V?$vector@HV?$allocator@H@std@@@std@@@std@@@3@$0A@@std@@@std@@IBEABUALLEGRO_COLOR@@PAU?$_Tree_node@U?$pair@$$CBUALLEGRO_COLOR@@V?$vector@HV?$allocator@H@std@@@std@@@std@@PAX@2@@Z 00453090 f i CommonPathfindingLib:GridVisualizer.obj
 0002:0002f100       ?_Kfn@?$_Tree@V?$_Tmap_traits@UALLEGRO_COLOR@@V?$vector@HV?$allocator@H@std@@@std@@VAllegroColorCompare@@V?$allocator@U?$pair@$$CBUALLEGRO_COLOR@@V?$vector@HV?$allocator@H@std@@@std@@@std@@@3@$0A@@std@@@std@@IBEABUALLEGRO_COLOR@@ABU?$pair@$$CBUALLEGRO_COLOR@@V?$vector@HV?$allocator@H@std@@@std@@@2@@Z 00453100 f i CommonPathfindingLib:GridVisualizer.obj
 0002:0002f160       ?_Left@?$_Tree_comp_alloc@V?$_Tmap_traits@UALLEGRO_COLOR@@V?$vector@HV?$allocator@H@std@@@std@@VAllegroColorCompare@@V?$allocator@U?$pair@$$CBUALLEGRO_COLOR@@V?$vector@HV?$allocator@H@std@@@std@@@std@@@3@$0A@@std@@@std@@SAAAPAU?$_Tree_node@U?$pair@$$CBUALLEGRO_COLOR@@V?$vector@HV?$allocator@H@std@@@std@@@std@@PAX@2@PAU32@@Z 00453160 f i CommonPathfindingLib:GridVisualizer.obj
 0002:0002f1b0       ?_Left@?$_Tree_val@U?$_Tree_simple_types@U?$pair@$$CBUALLEGRO_COLOR@@V?$vector@HV?$allocator@H@std@@@std@@@std@@@std@@@std@@SAAAPAU?$_Tree_node@U?$pair@$$CBUALLEGRO_COLOR@@V?$vector@HV?$allocator@H@std@@@std@@@std@@PAX@2@PAU32@@Z 004531b0 f i CommonPathfindingLib:GridVisualizer.obj
 0002:0002f1f0       ?_Lmost@?$_Tree@V?$_Tmap_traits@UALLEGRO_COLOR@@V?$vector@HV?$allocator@H@std@@@std@@VAllegroColorCompare@@V?$allocator@U?$pair@$$CBUALLEGRO_COLOR@@V?$vector@HV?$allocator@H@std@@@std@@@std@@@3@$0A@@std@@@std@@IBEAAPAU?$_Tree_node@U?$pair@$$CBUALLEGRO_COLOR@@V?$vector@HV?$allocator@H@std@@@std@@@std@@PAX@2@XZ 004531f0 f i CommonPathfindingLib:GridVisualizer.obj
 0002:0002f250       ?_Lrotate@?$_Tree@V?$_Tmap_traits@UALLEGRO_COLOR@@V?$vector@HV?$allocator@H@std@@@std@@VAllegroColorCompare@@V?$allocator@U?$pair@$$CBUALLEGRO_COLOR@@V?$vector@HV?$allocator@H@std@@@std@@@std@@@3@$0A@@std@@@std@@IAEXPAU?$_Tree_node@U?$pair@$$CBUALLEGRO_COLOR@@V?$vector@HV?$allocator@H@std@@@std@@@std@@PAX@2@@Z 00453250 f i CommonPathfindingLib:GridVisualizer.obj
 0002:0002f400       ?_Max@?$_Tree_comp_alloc@V?$_Tmap_traits@UALLEGRO_COLOR@@V?$vector@HV?$allocator@H@std@@@std@@VAllegroColorCompare@@V?$allocator@U?$pair@$$CBUALLEGRO_COLOR@@V?$vector@HV?$allocator@H@std@@@std@@@std@@@3@$0A@@std@@@std@@SAPAU?$_Tree_node@U?$pair@$$CBUALLEGRO_COLOR@@V?$vector@HV?$allocator@H@std@@@std@@@std@@PAX@2@PAU32@@Z 00453400 f i CommonPathfindingLib:GridVisualizer.obj
 0002:0002f450       ?_Max@?$_Tree_val@U?$_Tree_simple_types@U?$pair@$$CBUALLEGRO_COLOR@@V?$vector@HV?$allocator@H@std@@@std@@@std@@@std@@@std@@SAPAU?$_Tree_node@U?$pair@$$CBUALLEGRO_COLOR@@V?$vector@HV?$allocator@H@std@@@std@@@std@@PAX@2@PAU32@@Z 00453450 f i CommonPathfindingLib:GridVisualizer.obj
 0002:0002f4d0       ?_Min@?$_Tree_comp_alloc@V?$_Tmap_traits@UALLEGRO_COLOR@@V?$vector@HV?$allocator@H@std@@@std@@VAllegroColorCompare@@V?$allocator@U?$pair@$$CBUALLEGRO_COLOR@@V?$vector@HV?$allocator@H@std@@@std@@@std@@@3@$0A@@std@@@std@@SAPAU?$_Tree_node@U?$pair@$$CBUALLEGRO_COLOR@@V?$vector@HV?$allocator@H@std@@@std@@@std@@PAX@2@PAU32@@Z 004534d0 f i CommonPathfindingLib:GridVisualizer.obj
 0002:0002f520       ?_Min@?$_Tree_val@U?$_Tree_simple_types@U?$pair@$$CBUALLEGRO_COLOR@@V?$vector@HV?$allocator@H@std@@@std@@@std@@@std@@@std@@SAPAU?$_Tree_node@U?$pair@$$CBUALLEGRO_COLOR@@V?$vector@HV?$allocator@H@std@@@std@@@std@@PAX@2@PAU32@@Z 00453520 f i CommonPathfindingLib:GridVisualizer.obj
 0002:0002f5a0       ?_Myhead@?$_Tree_comp_alloc@V?$_Tmap_traits@UALLEGRO_COLOR@@V?$vector@HV?$allocator@H@std@@@std@@VAllegroColorCompare@@V?$allocator@U?$pair@$$CBUALLEGRO_COLOR@@V?$vector@HV?$allocator@H@std@@@std@@@std@@@3@$0A@@std@@@std@@QAEAAPAU?$_Tree_node@U?$pair@$$CBUALLEGRO_COLOR@@V?$vector@HV?$allocator@H@std@@@std@@@std@@PAX@2@XZ 004535a0 f i CommonPathfindingLib:GridVisualizer.obj
 0002:0002f600       ?_Myhead@?$_Tree_comp_alloc@V?$_Tmap_traits@UALLEGRO_COLOR@@V?$vector@HV?$allocator@H@std@@@std@@VAllegroColorCompare@@V?$allocator@U?$pair@$$CBUALLEGRO_COLOR@@V?$vector@HV?$allocator@H@std@@@std@@@std@@@3@$0A@@std@@@std@@QBEABQAU?$_Tree_node@U?$pair@$$CBUALLEGRO_COLOR@@V?$vector@HV?$allocator@H@std@@@std@@@std@@PAX@2@XZ 00453600 f i CommonPathfindingLib:GridVisualizer.obj
 0002:0002f660       ?_Mynode@?$_Tree_unchecked_const_iterator@V?$_Tree_val@U?$_Tree_simple_types@U?$pair@$$CBUALLEGRO_COLOR@@V?$vector@HV?$allocator@H@std@@@std@@@std@@@std@@@std@@U_Iterator_base12@2@@std@@QBEPAU?$_Tree_node@U?$pair@$$CBUALLEGRO_COLOR@@V?$vector@HV?$allocator@H@std@@@std@@@std@@PAX@2@XZ 00453660 f i CommonPathfindingLib:GridVisualizer.obj
 0002:0002f6a0       ?_Myproxy@?$_Tree_comp_alloc@V?$_Tmap_traits@UALLEGRO_COLOR@@V?$vector@HV?$allocator@H@std@@@std@@VAllegroColorCompare@@V?$allocator@U?$pair@$$CBUALLEGRO_COLOR@@V?$vector@HV?$allocator@H@std@@@std@@@std@@@3@$0A@@std@@@std@@QAEAAPAU_Container_proxy@2@XZ 004536a0 f i CommonPathfindingLib:GridVisualizer.obj
 0002:0002f6f0       ?_Mysize@?$_Tree_comp_alloc@V?$_Tmap_traits@UALLEGRO_COLOR@@V?$vector@HV?$allocator@H@std@@@std@@VAllegroColorCompare@@V?$allocator@U?$pair@$$CBUALLEGRO_COLOR@@V?$vector@HV?$allocator@H@std@@@std@@@std@@@3@$0A@@std@@@std@@QAEAAIXZ 004536f0 f i CommonPathfindingLib:GridVisualizer.obj
 0002:0002f750       ?_Mysize@?$_Tree_comp_alloc@V?$_Tmap_traits@UALLEGRO_COLOR@@V?$vector@HV?$allocator@H@std@@@std@@VAllegroColorCompare@@V?$allocator@U?$pair@$$CBUALLEGRO_COLOR@@V?$vector@HV?$allocator@H@std@@@std@@@std@@@3@$0A@@std@@@std@@QBEABIXZ 00453750 f i CommonPathfindingLib:GridVisualizer.obj
 0002:0002f7b0       ?_Myval@?$_Tree_comp_alloc@V?$_Tmap_traits@UALLEGRO_COLOR@@V?$vector@HV?$allocator@H@std@@@std@@VAllegroColorCompare@@V?$allocator@U?$pair@$$CBUALLEGRO_COLOR@@V?$vector@HV?$allocator@H@std@@@std@@@std@@@3@$0A@@std@@@std@@SAAAU?$pair@$$CBUALLEGRO_COLOR@@V?$vector@HV?$allocator@H@std@@@std@@@2@PAU?$_Tree_node@U?$pair@$$CBUALLEGRO_COLOR@@V?$vector@HV?$allocator@H@std@@@std@@@std@@PAX@2@@Z 004537b0 f i CommonPathfindingLib:GridVisualizer.obj
 0002:0002f800       ?_Myval@?$_Tree_val@U?$_Tree_simple_types@U?$pair@$$CBUALLEGRO_COLOR@@V?$vector@HV?$allocator@H@std@@@std@@@std@@@std@@@std@@SAAAU?$pair@$$CBUALLEGRO_COLOR@@V?$vector@HV?$allocator@H@std@@@std@@@2@PAU?$_Tree_node@U?$pair@$$CBUALLEGRO_COLOR@@V?$vector@HV?$allocator@H@std@@@std@@@std@@PAX@2@@Z 00453800 f i CommonPathfindingLib:GridVisualizer.obj
 0002:0002f840       ?_Orphan_all@?$_Tree_comp_alloc@V?$_Tmap_traits@UALLEGRO_COLOR@@V?$vector@HV?$allocator@H@std@@@std@@VAllegroColorCompare@@V?$allocator@U?$pair@$$CBUALLEGRO_COLOR@@V?$vector@HV?$allocator@H@std@@@std@@@std@@@3@$0A@@std@@@std@@QAEXXZ 00453840 f i CommonPathfindingLib:GridVisualizer.obj
 0002:0002f8a0       ?_Orphan_ptr@?$_Tree@V?$_Tmap_traits@UALLEGRO_COLOR@@V?$vector@HV?$allocator@H@std@@@std@@VAllegroColorCompare@@V?$allocator@U?$pair@$$CBUALLEGRO_COLOR@@V?$vector@HV?$allocator@H@std@@@std@@@std@@@3@$0A@@std@@@std@@IAEXPAU?$_Tree_node@U?$pair@$$CBUALLEGRO_COLOR@@V?$vector@HV?$allocator@H@std@@@std@@@std@@PAX@2@@Z 004538a0 f i CommonPathfindingLib:GridVisualizer.obj
 0002:0002fa20       ?_Parent@?$_Tree_comp_alloc@V?$_Tmap_traits@UALLEGRO_COLOR@@V?$vector@HV?$allocator@H@std@@@std@@VAllegroColorCompare@@V?$allocator@U?$pair@$$CBUALLEGRO_COLOR@@V?$vector@HV?$allocator@H@std@@@std@@@std@@@3@$0A@@std@@@std@@SAAAPAU?$_Tree_node@U?$pair@$$CBUALLEGRO_COLOR@@V?$vector@HV?$allocator@H@std@@@std@@@std@@PAX@2@PAU32@@Z 00453a20 f i CommonPathfindingLib:GridVisualizer.obj
 0002:0002fa70       ?_Parent@?$_Tree_val@U?$_Tree_simple_types@U?$pair@$$CBUALLEGRO_COLOR@@V?$vector@HV?$allocator@H@std@@@std@@@std@@@std@@@std@@SAAAPAU?$_Tree_node@U?$pair@$$CBUALLEGRO_COLOR@@V?$vector@HV?$allocator@H@std@@@std@@@std@@PAX@2@PAU32@@Z 00453a70 f i CommonPathfindingLib:GridVisualizer.obj
 0002:0002fab0       ?_Right@?$_Tree_comp_alloc@V?$_Tmap_traits@UALLEGRO_COLOR@@V?$vector@HV?$allocator@H@std@@@std@@VAllegroColorCompare@@V?$allocator@U?$pair@$$CBUALLEGRO_COLOR@@V?$vector@HV?$allocator@H@std@@@std@@@std@@@3@$0A@@std@@@std@@SAAAPAU?$_Tree_node@U?$pair@$$CBUALLEGRO_COLOR@@V?$vector@HV?$allocator@H@std@@@std@@@std@@PAX@2@PAU32@@Z 00453ab0 f i CommonPathfindingLib:GridVisualizer.obj
 0002:0002fb00       ?_Right@?$_Tree_val@U?$_Tree_simple_types@U?$pair@$$CBUALLEGRO_COLOR@@V?$vector@HV?$allocator@H@std@@@std@@@std@@@std@@@std@@SAAAPAU?$_Tree_node@U?$pair@$$CBUALLEGRO_COLOR@@V?$vector@HV?$allocator@H@std@@@std@@@std@@PAX@2@PAU32@@Z 00453b00 f i CommonPathfindingLib:GridVisualizer.obj
 0002:0002fb40       ?_Rmost@?$_Tree@V?$_Tmap_traits@UALLEGRO_COLOR@@V?$vector@HV?$allocator@H@std@@@std@@VAllegroColorCompare@@V?$allocator@U?$pair@$$CBUALLEGRO_COLOR@@V?$vector@HV?$allocator@H@std@@@std@@@std@@@3@$0A@@std@@@std@@IBEAAPAU?$_Tree_node@U?$pair@$$CBUALLEGRO_COLOR@@V?$vector@HV?$allocator@H@std@@@std@@@std@@PAX@2@XZ 00453b40 f i CommonPathfindingLib:GridVisualizer.obj
 0002:0002fba0       ?_Root@?$_Tree@V?$_Tmap_traits@UALLEGRO_COLOR@@V?$vector@HV?$allocator@H@std@@@std@@VAllegroColorCompare@@V?$allocator@U?$pair@$$CBUALLEGRO_COLOR@@V?$vector@HV?$allocator@H@std@@@std@@@std@@@3@$0A@@std@@@std@@IBEAAPAU?$_Tree_node@U?$pair@$$CBUALLEGRO_COLOR@@V?$vector@HV?$allocator@H@std@@@std@@@std@@PAX@2@XZ 00453ba0 f i CommonPathfindingLib:GridVisualizer.obj
 0002:0002fc00       ?_Rrotate@?$_Tree@V?$_Tmap_traits@UALLEGRO_COLOR@@V?$vector@HV?$allocator@H@std@@@std@@VAllegroColorCompare@@V?$allocator@U?$pair@$$CBUALLEGRO_COLOR@@V?$vector@HV?$allocator@H@std@@@std@@@std@@@3@$0A@@std@@@std@@IAEXPAU?$_Tree_node@U?$pair@$$CBUALLEGRO_COLOR@@V?$vector@HV?$allocator@H@std@@@std@@@std@@PAX@2@@Z 00453c00 f i CommonPathfindingLib:GridVisualizer.obj
 0002:0002fdb0       ?_Tidy@?$_Tree@V?$_Tmap_traits@UALLEGRO_COLOR@@V?$vector@HV?$allocator@H@std@@@std@@VAllegroColorCompare@@V?$allocator@U?$pair@$$CBUALLEGRO_COLOR@@V?$vector@HV?$allocator@H@std@@@std@@@std@@@3@$0A@@std@@@std@@IAEXXZ 00453db0 f i CommonPathfindingLib:GridVisualizer.obj
 0002:0002ff30       ?addColor@GridVisualizer@@QAEXHABUALLEGRO_COLOR@@@Z 00453f30 f   CommonPathfindingLib:GridVisualizer.obj
 0002:00030120       ?allocate@?$_Wrap_alloc@V?$allocator@U?$_Tree_node@U?$pair@$$CBUALLEGRO_COLOR@@V?$vector@HV?$allocator@H@std@@@std@@@std@@PAX@std@@@std@@@std@@QAEPAU?$_Tree_node@U?$pair@$$CBUALLEGRO_COLOR@@V?$vector@HV?$allocator@H@std@@@std@@@std@@PAX@2@I@Z 00454120 f i CommonPathfindingLib:GridVisualizer.obj
 0002:00030180       ?allocate@?$allocator@U?$_Tree_node@U?$pair@$$CBUALLEGRO_COLOR@@V?$vector@HV?$allocator@H@std@@@std@@@std@@PAX@std@@@std@@QAEPAU?$_Tree_node@U?$pair@$$CBUALLEGRO_COLOR@@V?$vector@HV?$allocator@H@std@@@std@@@std@@PAX@2@I@Z 00454180 f i CommonPathfindingLib:GridVisualizer.obj
 0002:000301e0       ?begin@?$_Tree@V?$_Tmap_traits@UALLEGRO_COLOR@@V?$vector@HV?$allocator@H@std@@@std@@VAllegroColorCompare@@V?$allocator@U?$pair@$$CBUALLEGRO_COLOR@@V?$vector@HV?$allocator@H@std@@@std@@@std@@@3@$0A@@std@@@std@@QAE?AV?$_Tree_iterator@V?$_Tree_val@U?$_Tree_simple_types@U?$pair@$$CBUALLEGRO_COLOR@@V?$vector@HV?$allocator@H@std@@@std@@@std@@@std@@@std@@@2@XZ 004541e0 f i CommonPathfindingLib:GridVisualizer.obj
 0002:00030290       ?clear@?$_Tree@V?$_Tmap_traits@UALLEGRO_COLOR@@V?$vector@HV?$allocator@H@std@@@std@@VAllegroColorCompare@@V?$allocator@U?$pair@$$CBUALLEGRO_COLOR@@V?$vector@HV?$allocator@H@std@@@std@@@std@@@3@$0A@@std@@@std@@QAEXXZ 00454290 f i CommonPathfindingLib:GridVisualizer.obj
 0002:000303a0       ?clear@GridVisualizer@@QAEXXZ 004543a0 f   CommonPathfindingLib:GridVisualizer.obj
 0002:00030400       ?deallocate@?$_Wrap_alloc@V?$allocator@U?$_Tree_node@U?$pair@$$CBUALLEGRO_COLOR@@V?$vector@HV?$allocator@H@std@@@std@@@std@@PAX@std@@@std@@@std@@QAEXPAU?$_Tree_node@U?$pair@$$CBUALLEGRO_COLOR@@V?$vector@HV?$allocator@H@std@@@std@@@std@@PAX@2@I@Z 00454400 f i CommonPathfindingLib:GridVisualizer.obj
 0002:00030460       ?deallocate@?$allocator@U?$_Tree_node@U?$pair@$$CBUALLEGRO_COLOR@@V?$vector@HV?$allocator@H@std@@@std@@@std@@PAX@std@@@std@@QAEXPAU?$_Tree_node@U?$pair@$$CBUALLEGRO_COLOR@@V?$vector@HV?$allocator@H@std@@@std@@@std@@PAX@2@I@Z 00454460 f i CommonPathfindingLib:GridVisualizer.obj
 0002:000304c0       ?draw@GridVisualizer@@QAEXAAVGraphicsBuffer@@@Z 004544c0 f   CommonPathfindingLib:GridVisualizer.obj
 0002:000308a0       ?end@?$_Tree@V?$_Tmap_traits@UALLEGRO_COLOR@@V?$vector@HV?$allocator@H@std@@@std@@VAllegroColorCompare@@V?$allocator@U?$pair@$$CBUALLEGRO_COLOR@@V?$vector@HV?$allocator@H@std@@@std@@@std@@@3@$0A@@std@@@std@@QAE?AV?$_Tree_iterator@V?$_Tree_val@U?$_Tree_simple_types@U?$pair@$$CBUALLEGRO_COLOR@@V?$vector@HV?$allocator@H@std@@@std@@@std@@@std@@@std@@@2@XZ 004548a0 f i CommonPathfindingLib:GridVisualizer.obj
 0002:00030950       ?erase@?$_Tree@V?$_Tmap_traits@UALLEGRO_COLOR@@V?$vector@HV?$allocator@H@std@@@std@@VAllegroColorCompare@@V?$allocator@U?$pair@$$CBUALLEGRO_COLOR@@V?$vector@HV?$allocator@H@std@@@std@@@std@@@3@$0A@@std@@@std@@QAE?AV?$_Tree_iterator@V?$_Tree_val@U?$_Tree_simple_types@U?$pair@$$CBUALLEGRO_COLOR@@V?$vector@HV?$allocator@H@std@@@std@@@std@@@std@@@std@@@2@V?$_Tree_const_iterator@V?$_Tree_val@U?$_Tree_simple_types@U?$pair@$$CBUALLEGRO_COLOR@@V?$vector@HV?$allocator@H@std@@@std@@@std@@@std@@@std@@@2@0@Z 00454950 f i CommonPathfindingLib:GridVisualizer.obj
 0002:00030c70       ?erase@?$_Tree@V?$_Tmap_traits@UALLEGRO_COLOR@@V?$vector@HV?$allocator@H@std@@@std@@VAllegroColorCompare@@V?$allocator@U?$pair@$$CBUALLEGRO_COLOR@@V?$vector@HV?$allocator@H@std@@@std@@@std@@@3@$0A@@std@@@std@@QAE?AV?$_Tree_iterator@V?$_Tree_val@U?$_Tree_simple_types@U?$pair@$$CBUALLEGRO_COLOR@@V?$vector@HV?$allocator@H@std@@@std@@@std@@@std@@@std@@@2@V?$_Tree_const_iterator@V?$_Tree_val@U?$_Tree_simple_types@U?$pair@$$CBUALLEGRO_COLOR@@V?$vector@HV?$allocator@H@std@@@std@@@std@@@std@@@std@@@2@@Z 00454c70 f i CommonPathfindingLib:GridVisualizer.obj
 0002:00031750       ?find@?$_Tree@V?$_Tmap_traits@UALLEGRO_COLOR@@V?$vector@HV?$allocator@H@std@@@std@@VAllegroColorCompare@@V?$allocator@U?$pair@$$CBUALLEGRO_COLOR@@V?$vector@HV?$allocator@H@std@@@std@@@std@@@3@$0A@@std@@@std@@QAE?AV?$_Tree_iterator@V?$_Tree_val@U?$_Tree_simple_types@U?$pair@$$CBUALLEGRO_COLOR@@V?$vector@HV?$allocator@H@std@@@std@@@std@@@std@@@std@@@2@ABUALLEGRO_COLOR@@@Z 00455750 f i CommonPathfindingLib:GridVisualizer.obj
 0002:00031a50       ?getBitmap@GraphicsBuffer@@QBEPAUALLEGRO_BITMAP@@XZ 00455a50 f i CommonPathfindingLib:GridVisualizer.obj
 0002:00031a90       ?getGridHeight@Grid@@QBEHXZ 00455a90 f i CommonPathfindingLib:GridVisualizer.obj
 0002:00031ad0       ?getGridWidth@Grid@@QBEHXZ 00455ad0 f i CommonPathfindingLib:GridVisualizer.obj
 0002:00031b10       ?getSquareSize@Grid@@QBEHXZ 00455b10 f i CommonPathfindingLib:GridVisualizer.obj
 0002:00031b50       ?getX@Vector2D@@QBEMXZ     00455b50 f i CommonPathfindingLib:GridVisualizer.obj
 0002:00031b90       ?getY@Vector2D@@QBEMXZ     00455b90 f i CommonPathfindingLib:GridVisualizer.obj
 0002:00031bd0       ?lower_bound@?$_Tree@V?$_Tmap_traits@UALLEGRO_COLOR@@V?$vector@HV?$allocator@H@std@@@std@@VAllegroColorCompare@@V?$allocator@U?$pair@$$CBUALLEGRO_COLOR@@V?$vector@HV?$allocator@H@std@@@std@@@std@@@3@$0A@@std@@@std@@QAE?AV?$_Tree_iterator@V?$_Tree_val@U?$_Tree_simple_types@U?$pair@$$CBUALLEGRO_COLOR@@V?$vector@HV?$allocator@H@std@@@std@@@std@@@std@@@std@@@2@ABUALLEGRO_COLOR@@@Z 00455bd0 f i CommonPathfindingLib:GridVisualizer.obj
 0002:00031c70       ?max_size@?$_Tree@V?$_Tmap_traits@UALLEGRO_COLOR@@V?$vector@HV?$allocator@H@std@@@std@@VAllegroColorCompare@@V?$allocator@U?$pair@$$CBUALLEGRO_COLOR@@V?$vector@HV?$allocator@H@std@@@std@@@std@@@3@$0A@@std@@@std@@QBEIXZ 00455c70 f i CommonPathfindingLib:GridVisualizer.obj
 0002:00031ce0       ?max_size@?$_Wrap_alloc@V?$allocator@U?$_Tree_node@U?$pair@$$CBUALLEGRO_COLOR@@V?$vector@HV?$allocator@H@std@@@std@@@std@@PAX@std@@@std@@@std@@QBEIU_Nil@2@@Z 00455ce0 f i CommonPathfindingLib:GridVisualizer.obj
 0002:00031d40       ?max_size@?$allocator@U?$_Tree_node@U?$pair@$$CBUALLEGRO_COLOR@@V?$vector@HV?$allocator@H@std@@@std@@@std@@PAX@std@@@std@@QBEIXZ 00455d40 f i CommonPathfindingLib:GridVisualizer.obj
 0002:00031d80       ?max_size@?$allocator_traits@V?$allocator@U?$_Tree_node@U?$pair@$$CBUALLEGRO_COLOR@@V?$vector@HV?$allocator@H@std@@@std@@@std@@PAX@std@@@std@@@std@@SAIABV?$allocator@U?$_Tree_node@U?$pair@$$CBUALLEGRO_COLOR@@V?$vector@HV?$allocator@H@std@@@std@@@std@@PAX@std@@@2@@Z 00455d80 f i CommonPathfindingLib:GridVisualizer.obj
 0002:00031dd0       ?pointer_to@?$pointer_traits@PAU?$pair@$$CBUALLEGRO_COLOR@@V?$vector@HV?$allocator@H@std@@@std@@@std@@@std@@SAPAU?$pair@$$CBUALLEGRO_COLOR@@V?$vector@HV?$allocator@H@std@@@std@@@2@AAU32@@Z 00455dd0 f i CommonPathfindingLib:GridVisualizer.obj
 0002:00031e20       ?refresh@GridVisualizer@@AAEXXZ 00455e20 f   CommonPathfindingLib:GridVisualizer.obj
 0002:00031f10       ?removeAllEntriesOfColor@GridVisualizer@@QAEXABUALLEGRO_COLOR@@@Z 00455f10 f   CommonPathfindingLib:GridVisualizer.obj
 0002:000320b0       ?select_on_container_copy_construction@?$_Wrap_alloc@V?$allocator@H@std@@@std@@QBE?AU12@U_Nil@2@@Z 004560b0 f i CommonPathfindingLib:GridVisualizer.obj
 0002:00032120       ?select_on_container_copy_construction@?$allocator_traits@V?$allocator@H@std@@@std@@SA?AV?$allocator@H@2@ABV32@@Z 00456120 f i CommonPathfindingLib:GridVisualizer.obj
 0002:00032180       ?size@?$_Tree@V?$_Tmap_traits@UALLEGRO_COLOR@@V?$vector@HV?$allocator@H@std@@@std@@VAllegroColorCompare@@V?$allocator@U?$pair@$$CBUALLEGRO_COLOR@@V?$vector@HV?$allocator@H@std@@@std@@@std@@@3@$0A@@std@@@std@@QBEIXZ 00456180 f i CommonPathfindingLib:GridVisualizer.obj
 0002:000321e0       ??$?0$$V@?$_Compressed_pair@U?$_Wrap_alloc@V?$allocator@U?$_Tree_node@U?$pair@$$CBHPAVSprite@@@std@@PAX@std@@@std@@@std@@V?$_Tree_val@U?$_Tree_simple_types@U?$pair@$$CBHPAVSprite@@@std@@@std@@@2@$00@std@@QAE@U_Zero_then_variadic_args_t@1@@Z 004561e0 f i CommonPathfindingLib:SpriteManager.obj
 0002:00032240       ??$?0AAU?$_Wrap_alloc@V?$allocator@U?$_Tree_node@U?$pair@$$CBHPAVSprite@@@std@@PAX@std@@@std@@@std@@@?$_Wrap_alloc@V?$allocator@U_Container_proxy@std@@@std@@@std@@QAE@AAU?$_Wrap_alloc@V?$allocator@U?$_Tree_node@U?$pair@$$CBHPAVSprite@@@std@@PAX@std@@@std@@@1@@Z 00456240 f i CommonPathfindingLib:SpriteManager.obj
 0002:000322b0       ??$?0AAV?$_Tree_iterator@V?$_Tree_val@U?$_Tree_simple_types@U?$pair@$$CBHPAVSprite@@@std@@@std@@@std@@@std@@_NX$0A@@?$pair@V?$_Tree_iterator@V?$_Tree_val@U?$_Tree_simple_types@U?$pair@$$CBHPAVSprite@@@std@@@std@@@std@@@std@@_N@std@@QAE@AAV?$_Tree_iterator@V?$_Tree_val@U?$_Tree_simple_types@U?$pair@$$CBHPAVSprite@@@std@@@std@@@std@@@1@$$QA_N@Z 004562b0 f i CommonPathfindingLib:SpriteManager.obj
 0002:00032330       ??$?0ABH$$Z$$V@?$pair@$$CBHPAVSprite@@@std@@QAE@Upiecewise_construct_t@1@V?$tuple@ABH@1@V?$tuple@$$V@1@@Z 00456330 f i CommonPathfindingLib:SpriteManager.obj
 0002:000323b0       ??$?0ABU?$less@H@std@@U_Zero_then_variadic_args_t@1@@?$_Compressed_pair@U?$less@H@std@@V?$_Compressed_pair@U?$_Wrap_alloc@V?$allocator@U?$_Tree_node@U?$pair@$$CBHPAVSprite@@@std@@PAX@std@@@std@@@std@@V?$_Tree_val@U?$_Tree_simple_types@U?$pair@$$CBHPAVSprite@@@std@@@std@@@2@$00@2@$00@std@@QAE@U_One_then_variadic_args_t@1@ABU?$less@H@1@$$QAU_Zero_then_variadic_args_t@1@@Z 004563b0 f i CommonPathfindingLib:SpriteManager.obj
 0002:00032430       ??$?0U?$_Tree_node@U?$pair@$$CBHPAVSprite@@@std@@PAX@std@@@?$allocator@U_Container_proxy@std@@@std@@QAE@ABV?$allocator@U?$_Tree_node@U?$pair@$$CBHPAVSprite@@@std@@PAX@std@@@1@@Z 00456430 f i CommonPathfindingLib:SpriteManager.obj
 0002:00032470       ??$?0V?$_Tree_iterator@V?$_Tree_val@U?$_Tree_simple_types@U?$pair@$$CBHPAVSprite@@@std@@@std@@@std@@@std@@_NX$0A@@?$pair@V?$_Tree_iterator@V?$_Tree_val@U?$_Tree_simple_types@U?$pair@$$CBHPAVSprite@@@std@@@std@@@std@@@std@@_N@std@@QAE@$$QAV?$_Tree_iterator@V?$_Tree_val@U?$_Tree_simple_types@U?$pair@$$CBHPAVSprite@@@std@@@std@@@std@@@1@$$QA_N@Z 00456470 f i CommonPathfindingLib:SpriteManager.obj
 0002:000324f0       ??$?0V?$tuple@ABH@std@@V?$tuple@$$V@1@$0A@$$Z$S@?$pair@$$CBHPAVSprite@@@std@@QAE@AAV?$tuple@ABH@1@AAV?$tuple@$$V@1@U?$integer_sequence@I$0A@@1@U?$integer_sequence@I$S@1@@Z 004564f0 f i CommonPathfindingLib:SpriteManager.obj
 0002:00032570       ??$_Buynode@ABUpiecewise_construct_t@std@@V?$tuple@ABH@2@V?$tuple@$$V@2@@?$_Tree_comp_alloc@V?$_Tmap_traits@HPAVSprite@@U?$less@H@std@@V?$allocator@U?$pair@$$CBHPAVSprite@@@std@@@3@$0A@@std@@@std@@QAEPAU?$_Tree_node@U?$pair@$$CBHPAVSprite@@@std@@PAX@1@ABUpiecewise_construct_t@1@$$QAV?$tuple@ABH@1@$$QAV?$tuple@$$V@1@@Z 00456570 f i CommonPathfindingLib:SpriteManager.obj
 0002:000326e0       ??$_Buynode_if_nil@AAU?$pair@$$CBHPAVSprite@@@std@@@?$_Tree@V?$_Tmap_traits@HPAVSprite@@U?$less@H@std@@V?$allocator@U?$pair@$$CBHPAVSprite@@@std@@@3@$0A@@std@@@std@@IAEPAU?$_Tree_node@U?$pair@$$CBHPAVSprite@@@std@@PAX@1@PAU21@AAU?$pair@$$CBHPAVSprite@@@1@@Z 004566e0 f i CommonPathfindingLib:SpriteManager.obj
 0002:00032720       ??$_Insert_at@AAU?$pair@$$CBHPAVSprite@@@std@@PAU?$_Tree_node@U?$pair@$$CBHPAVSprite@@@std@@PAX@2@@?$_Tree@V?$_Tmap_traits@HPAVSprite@@U?$less@H@std@@V?$allocator@U?$pair@$$CBHPAVSprite@@@std@@@3@$0A@@std@@@std@@IAE?AV?$_Tree_iterator@V?$_Tree_val@U?$_Tree_simple_types@U?$pair@$$CBHPAVSprite@@@std@@@std@@@std@@@1@_NPAU?$_Tree_node@U?$pair@$$CBHPAVSprite@@@std@@PAX@1@AAU?$pair@$$CBHPAVSprite@@@1@1@Z 00456720 f i CommonPathfindingLib:SpriteManager.obj
 0002:00032ce0       ??$_Insert_hint@AAU?$pair@$$CBHPAVSprite@@@std@@PAU?$_Tree_node@U?$pair@$$CBHPAVSprite@@@std@@PAX@2@@?$_Tree@V?$_Tmap_traits@HPAVSprite@@U?$less@H@std@@V?$allocator@U?$pair@$$CBHPAVSprite@@@std@@@3@$0A@@std@@@std@@IAE?AV?$_Tree_iterator@V?$_Tree_val@U?$_Tree_simple_types@U?$pair@$$CBHPAVSprite@@@std@@@std@@@std@@@1@V?$_Tree_const_iterator@V?$_Tree_val@U?$_Tree_simple_types@U?$pair@$$CBHPAVSprite@@@std@@@std@@@std@@@1@AAU?$pair@$$CBHPAVSprite@@@1@PAU?$_Tree_node@U?$pair@$$CBHPAVSprite@@@std@@PAX@1@@Z 00456ce0 f i CommonPathfindingLib:SpriteManager.obj
 0002:00034270       ??$_Insert_nohint@AAU?$pair@$$CBHPAVSprite@@@std@@PAU?$_Tree_node@U?$pair@$$CBHPAVSprite@@@std@@PAX@2@@?$_Tree@V?$_Tmap_traits@HPAVSprite@@U?$less@H@std@@V?$allocator@U?$pair@$$CBHPAVSprite@@@std@@@3@$0A@@std@@@std@@IAE?AU?$pair@V?$_Tree_iterator@V?$_Tree_val@U?$_Tree_simple_types@U?$pair@$$CBHPAVSprite@@@std@@@std@@@std@@@std@@_N@1@_NAAU?$pair@$$CBHPAVSprite@@@1@PAU?$_Tree_node@U?$pair@$$CBHPAVSprite@@@std@@PAX@1@@Z 00458270 f i CommonPathfindingLib:SpriteManager.obj
 0002:00034940       ??$_Kfn@$$CBHPAVSprite@@@?$_Tmap_traits@HPAVSprite@@U?$less@H@std@@V?$allocator@U?$pair@$$CBHPAVSprite@@@std@@@3@$0A@@std@@SAABHABU?$pair@$$CBHPAVSprite@@@1@@Z 00458940 f i CommonPathfindingLib:SpriteManager.obj
 0002:00034980       ??$_Lbound@H@?$_Tree@V?$_Tmap_traits@HPAVSprite@@U?$less@H@std@@V?$allocator@U?$pair@$$CBHPAVSprite@@@std@@@3@$0A@@std@@@std@@IBEPAU?$_Tree_node@U?$pair@$$CBHPAVSprite@@@std@@PAX@1@ABH@Z 00458980 f i CommonPathfindingLib:SpriteManager.obj
 0002:00034a70       ??$_Try_emplace@ABH$$V@?$map@HPAVSprite@@U?$less@H@std@@V?$allocator@U?$pair@$$CBHPAVSprite@@@std@@@3@@std@@QAE?AU?$pair@V?$_Tree_iterator@V?$_Tree_val@U?$_Tree_simple_types@U?$pair@$$CBHPAVSprite@@@std@@@std@@@std@@@std@@_N@1@ABH@Z 00458a70 f i CommonPathfindingLib:SpriteManager.obj
 0002:00034db0       ??$addressof@PAU?$_Tree_node@U?$pair@$$CBHPAVSprite@@@std@@PAX@std@@@std@@YAPAPAU?$_Tree_node@U?$pair@$$CBHPAVSprite@@@std@@PAX@0@AAPAU10@@Z 00458db0 f i CommonPathfindingLib:SpriteManager.obj
 0002:00034df0       ??$addressof@U?$pair@$$CBHPAVSprite@@@std@@@std@@YAPAU?$pair@$$CBHPAVSprite@@@0@AAU10@@Z 00458df0 f i CommonPathfindingLib:SpriteManager.obj
 0002:00034e30       ??$addressof@V?$_Tree_val@U?$_Tree_simple_types@U?$pair@$$CBHPAVSprite@@@std@@@std@@@std@@@std@@YAPAV?$_Tree_val@U?$_Tree_simple_types@U?$pair@$$CBHPAVSprite@@@std@@@std@@@0@AAV10@@Z 00458e30 f i CommonPathfindingLib:SpriteManager.obj
 0002:00034e70       ??$construct@PAU?$_Tree_node@U?$pair@$$CBHPAVSprite@@@std@@PAX@std@@AAPAU12@@?$_Wrap_alloc@V?$allocator@U?$_Tree_node@U?$pair@$$CBHPAVSprite@@@std@@PAX@std@@@std@@@std@@QAEXPAPAU?$_Tree_node@U?$pair@$$CBHPAVSprite@@@std@@PAX@1@AAPAU21@@Z 00458e70 f i CommonPathfindingLib:SpriteManager.obj
 0002:00034ee0       ??$construct@PAU?$_Tree_node@U?$pair@$$CBHPAVSprite@@@std@@PAX@std@@AAPAU12@@?$allocator@U?$_Tree_node@U?$pair@$$CBHPAVSprite@@@std@@PAX@std@@@std@@QAEXPAPAU?$_Tree_node@U?$pair@$$CBHPAVSprite@@@std@@PAX@1@AAPAU21@@Z 00458ee0 f i CommonPathfindingLib:SpriteManager.obj
 0002:00034f90       ??$construct@PAU?$_Tree_node@U?$pair@$$CBHPAVSprite@@@std@@PAX@std@@AAPAU12@@?$allocator_traits@V?$allocator@U?$_Tree_node@U?$pair@$$CBHPAVSprite@@@std@@PAX@std@@@std@@@std@@SAXAAV?$allocator@U?$_Tree_node@U?$pair@$$CBHPAVSprite@@@std@@PAX@std@@@1@PAPAU?$_Tree_node@U?$pair@$$CBHPAVSprite@@@std@@PAX@1@AAPAU31@@Z 00458f90 f i CommonPathfindingLib:SpriteManager.obj
 0002:00034ff0       ??$construct@U?$pair@$$CBHPAVSprite@@@std@@ABUpiecewise_construct_t@2@V?$tuple@ABH@2@V?$tuple@$$V@2@@?$_Wrap_alloc@V?$allocator@U?$_Tree_node@U?$pair@$$CBHPAVSprite@@@std@@PAX@std@@@std@@@std@@QAEXPAU?$pair@$$CBHPAVSprite@@@1@ABUpiecewise_construct_t@1@$$QAV?$tuple@ABH@1@$$QAV?$tuple@$$V@1@@Z 00458ff0 f i CommonPathfindingLib:SpriteManager.obj
 0002:00035080       ??$construct@U?$pair@$$CBHPAVSprite@@@std@@ABUpiecewise_construct_t@2@V?$tuple@ABH@2@V?$tuple@$$V@2@@?$allocator@U?$_Tree_node@U?$pair@$$CBHPAVSprite@@@std@@PAX@std@@@std@@QAEXPAU?$pair@$$CBHPAVSprite@@@1@ABUpiecewise_construct_t@1@$$QAV?$tuple@ABH@1@$$QAV?$tuple@$$V@1@@Z 00459080 f i CommonPathfindingLib:SpriteManager.obj
 0002:000351c0       ??$construct@U?$pair@$$CBHPAVSprite@@@std@@ABUpiecewise_construct_t@2@V?$tuple@ABH@2@V?$tuple@$$V@2@@?$allocator_traits@V?$allocator@U?$_Tree_node@U?$pair@$$CBHPAVSprite@@@std@@PAX@std@@@std@@@std@@SAXAAV?$allocator@U?$_Tree_node@U?$pair@$$CBHPAVSprite@@@std@@PAX@std@@@1@PAU?$pair@$$CBHPAVSprite@@@1@ABUpiecewise_construct_t@1@$$QAV?$tuple@ABH@1@$$QAV?$tuple@$$V@1@@Z 004591c0 f i CommonPathfindingLib:SpriteManager.obj
 0002:00035240       ??$destroy@PAU?$_Tree_node@U?$pair@$$CBHPAVSprite@@@std@@PAX@std@@@?$_Wrap_alloc@V?$allocator@U?$_Tree_node@U?$pair@$$CBHPAVSprite@@@std@@PAX@std@@@std@@@std@@QAEXPAPAU?$_Tree_node@U?$pair@$$CBHPAVSprite@@@std@@PAX@1@@Z 00459240 f i CommonPathfindingLib:SpriteManager.obj
 0002:000352a0       ??$destroy@PAU?$_Tree_node@U?$pair@$$CBHPAVSprite@@@std@@PAX@std@@@?$allocator@U?$_Tree_node@U?$pair@$$CBHPAVSprite@@@std@@PAX@std@@@std@@QAEXPAPAU?$_Tree_node@U?$pair@$$CBHPAVSprite@@@std@@PAX@1@@Z 004592a0 f i CommonPathfindingLib:SpriteManager.obj
 0002:000352e0       ??$destroy@PAU?$_Tree_node@U?$pair@$$CBHPAVSprite@@@std@@PAX@std@@@?$allocator_traits@V?$allocator@U?$_Tree_node@U?$pair@$$CBHPAVSprite@@@std@@PAX@std@@@std@@@std@@SAXAAV?$allocator@U?$_Tree_node@U?$pair@$$CBHPAVSprite@@@std@@PAX@std@@@1@PAPAU?$_Tree_node@U?$pair@$$CBHPAVSprite@@@std@@PAX@1@@Z 004592e0 f i CommonPathfindingLib:SpriteManager.obj
 0002:00035330       ??$destroy@U?$pair@$$CBHPAVSprite@@@std@@@?$_Wrap_alloc@V?$allocator@U?$_Tree_node@U?$pair@$$CBHPAVSprite@@@std@@PAX@std@@@std@@@std@@QAEXPAU?$pair@$$CBHPAVSprite@@@1@@Z 00459330 f i CommonPathfindingLib:SpriteManager.obj
 0002:00035390       ??$destroy@U?$pair@$$CBHPAVSprite@@@std@@@?$allocator@U?$_Tree_node@U?$pair@$$CBHPAVSprite@@@std@@PAX@std@@@std@@QAEXPAU?$pair@$$CBHPAVSprite@@@1@@Z 00459390 f i CommonPathfindingLib:SpriteManager.obj
 0002:000353d0       ??$destroy@U?$pair@$$CBHPAVSprite@@@std@@@?$allocator_traits@V?$allocator@U?$_Tree_node@U?$pair@$$CBHPAVSprite@@@std@@PAX@std@@@std@@@std@@SAXAAV?$allocator@U?$_Tree_node@U?$pair@$$CBHPAVSprite@@@std@@PAX@std@@@1@PAU?$pair@$$CBHPAVSprite@@@1@@Z 004593d0 f i CommonPathfindingLib:SpriteManager.obj
 0002:00035420       ??$emplace_hint@ABUpiecewise_construct_t@std@@V?$tuple@ABH@2@V?$tuple@$$V@2@@?$_Tree@V?$_Tmap_traits@HPAVSprite@@U?$less@H@std@@V?$allocator@U?$pair@$$CBHPAVSprite@@@std@@@3@$0A@@std@@@std@@QAE?AV?$_Tree_iterator@V?$_Tree_val@U?$_Tree_simple_types@U?$pair@$$CBHPAVSprite@@@std@@@std@@@std@@@1@V?$_Tree_const_iterator@V?$_Tree_val@U?$_Tree_simple_types@U?$pair@$$CBHPAVSprite@@@std@@@std@@@std@@@1@ABUpiecewise_construct_t@1@$$QAV?$tuple@ABH@1@$$QAV?$tuple@$$V@1@@Z 00459420 f i CommonPathfindingLib:SpriteManager.obj
 0002:00035560       ??$forward@AAPAU?$_Tree_node@U?$pair@$$CBHPAVSprite@@@std@@PAX@std@@@std@@YAAAPAU?$_Tree_node@U?$pair@$$CBHPAVSprite@@@std@@PAX@0@AAPAU10@@Z 00459560 f i CommonPathfindingLib:SpriteManager.obj
 0002:000355a0       ??$forward@AAU?$_Wrap_alloc@V?$allocator@U?$_Tree_node@U?$pair@$$CBHPAVSprite@@@std@@PAX@std@@@std@@@std@@@std@@YAAAU?$_Wrap_alloc@V?$allocator@U?$_Tree_node@U?$pair@$$CBHPAVSprite@@@std@@PAX@std@@@std@@@0@AAU10@@Z 004595a0 f i CommonPathfindingLib:SpriteManager.obj
 0002:000355e0       ??$forward@AAU?$pair@$$CBHPAVSprite@@@std@@@std@@YAAAU?$pair@$$CBHPAVSprite@@@0@AAU10@@Z 004595e0 f i CommonPathfindingLib:SpriteManager.obj
 0002:00035620       ??$forward@AAV?$_Tree_iterator@V?$_Tree_val@U?$_Tree_simple_types@U?$pair@$$CBHPAVSprite@@@std@@@std@@@std@@@std@@@std@@YAAAV?$_Tree_iterator@V?$_Tree_val@U?$_Tree_simple_types@U?$pair@$$CBHPAVSprite@@@std@@@std@@@std@@@0@AAV10@@Z 00459620 f i CommonPathfindingLib:SpriteManager.obj
 0002:00035660       ??$forward@V?$_Tree_iterator@V?$_Tree_val@U?$_Tree_simple_types@U?$pair@$$CBHPAVSprite@@@std@@@std@@@std@@@std@@@std@@YA$$QAV?$_Tree_iterator@V?$_Tree_val@U?$_Tree_simple_types@U?$pair@$$CBHPAVSprite@@@std@@@std@@@std@@@0@AAV10@@Z 00459660 f i CommonPathfindingLib:SpriteManager.obj
 0002:000356a0       ??$try_emplace@$$V@?$map@HPAVSprite@@U?$less@H@std@@V?$allocator@U?$pair@$$CBHPAVSprite@@@std@@@3@@std@@QAE?AU?$pair@V?$_Tree_iterator@V?$_Tree_val@U?$_Tree_simple_types@U?$pair@$$CBHPAVSprite@@@std@@@std@@@std@@@std@@_N@1@ABH@Z 004596a0 f i CommonPathfindingLib:SpriteManager.obj
 0002:00035720       ??0?$_Iterator012@Ubidirectional_iterator_tag@std@@U?$pair@$$CBHPAVSprite@@@2@HPBU32@ABU32@U_Iterator_base12@2@@std@@QAE@$$QAU01@@Z 00459720 f i CommonPathfindingLib:SpriteManager.obj
 0002:00035780       ??0?$_Iterator012@Ubidirectional_iterator_tag@std@@U?$pair@$$CBHPAVSprite@@@2@HPBU32@ABU32@U_Iterator_base12@2@@std@@QAE@ABU01@@Z 00459780 f i CommonPathfindingLib:SpriteManager.obj
 0002:000357e0       ??0?$_Iterator012@Ubidirectional_iterator_tag@std@@U?$pair@$$CBHPAVSprite@@@2@HPBU32@ABU32@U_Iterator_base12@2@@std@@QAE@XZ 004597e0 f i CommonPathfindingLib:SpriteManager.obj
 0002:00035840       ??0?$_Tree@V?$_Tmap_traits@HPAVSprite@@U?$less@H@std@@V?$allocator@U?$pair@$$CBHPAVSprite@@@std@@@3@$0A@@std@@@std@@QAE@ABU?$less@H@1@@Z 00459840 f i CommonPathfindingLib:SpriteManager.obj
 0002:000358a0       ??0?$_Tree_comp_alloc@V?$_Tmap_traits@HPAVSprite@@U?$less@H@std@@V?$allocator@U?$pair@$$CBHPAVSprite@@@std@@@3@$0A@@std@@@std@@QAE@ABU?$less@H@1@@Z 004598a0 f i CommonPathfindingLib:SpriteManager.obj
 0002:00035960       ??0?$_Tree_const_iterator@V?$_Tree_val@U?$_Tree_simple_types@U?$pair@$$CBHPAVSprite@@@std@@@std@@@std@@@std@@QAE@$$QAV01@@Z 00459960 f i CommonPathfindingLib:SpriteManager.obj
 0002:000359c0       ??0?$_Tree_const_iterator@V?$_Tree_val@U?$_Tree_simple_types@U?$pair@$$CBHPAVSprite@@@std@@@std@@@std@@@std@@QAE@ABV01@@Z 004599c0 f i CommonPathfindingLib:SpriteManager.obj
 0002:00035a20       ??0?$_Tree_const_iterator@V?$_Tree_val@U?$_Tree_simple_types@U?$pair@$$CBHPAVSprite@@@std@@@std@@@std@@@std@@QAE@PAU?$_Tree_node@U?$pair@$$CBHPAVSprite@@@std@@PAX@1@PBV?$_Tree_val@U?$_Tree_simple_types@U?$pair@$$CBHPAVSprite@@@std@@@std@@@1@@Z 00459a20 f i CommonPathfindingLib:SpriteManager.obj
 0002:00035a80       ??0?$_Tree_const_iterator@V?$_Tree_val@U?$_Tree_simple_types@U?$pair@$$CBHPAVSprite@@@std@@@std@@@std@@@std@@QAE@XZ 00459a80 f i CommonPathfindingLib:SpriteManager.obj
 0002:00035ae0       ??0?$_Tree_iterator@V?$_Tree_val@U?$_Tree_simple_types@U?$pair@$$CBHPAVSprite@@@std@@@std@@@std@@@std@@QAE@$$QAV01@@Z 00459ae0 f i CommonPathfindingLib:SpriteManager.obj
 0002:00035b40       ??0?$_Tree_iterator@V?$_Tree_val@U?$_Tree_simple_types@U?$pair@$$CBHPAVSprite@@@std@@@std@@@std@@@std@@QAE@ABV01@@Z 00459b40 f i CommonPathfindingLib:SpriteManager.obj
 0002:00035ba0       ??0?$_Tree_iterator@V?$_Tree_val@U?$_Tree_simple_types@U?$pair@$$CBHPAVSprite@@@std@@@std@@@std@@@std@@QAE@PAU?$_Tree_node@U?$pair@$$CBHPAVSprite@@@std@@PAX@1@PBV?$_Tree_val@U?$_Tree_simple_types@U?$pair@$$CBHPAVSprite@@@std@@@std@@@1@@Z 00459ba0 f i CommonPathfindingLib:SpriteManager.obj
 0002:00035c00       ??0?$_Tree_iterator@V?$_Tree_val@U?$_Tree_simple_types@U?$pair@$$CBHPAVSprite@@@std@@@std@@@std@@@std@@QAE@XZ 00459c00 f i CommonPathfindingLib:SpriteManager.obj
 0002:00035c60       ??0?$_Tree_unchecked_const_iterator@V?$_Tree_val@U?$_Tree_simple_types@U?$pair@$$CBHPAVSprite@@@std@@@std@@@std@@U_Iterator_base12@2@@std@@QAE@$$QAV01@@Z 00459c60 f i CommonPathfindingLib:SpriteManager.obj
 0002:00035cd0       ??0?$_Tree_unchecked_const_iterator@V?$_Tree_val@U?$_Tree_simple_types@U?$pair@$$CBHPAVSprite@@@std@@@std@@@std@@U_Iterator_base12@2@@std@@QAE@ABV01@@Z 00459cd0 f i CommonPathfindingLib:SpriteManager.obj
 0002:00035d40       ??0?$_Tree_unchecked_const_iterator@V?$_Tree_val@U?$_Tree_simple_types@U?$pair@$$CBHPAVSprite@@@std@@@std@@@std@@U_Iterator_base12@2@@std@@QAE@PAU?$_Tree_node@U?$pair@$$CBHPAVSprite@@@std@@PAX@1@PBV?$_Tree_val@U?$_Tree_simple_types@U?$pair@$$CBHPAVSprite@@@std@@@std@@@1@@Z 00459d40 f i CommonPathfindingLib:SpriteManager.obj
 0002:00035e00       ??0?$_Tree_unchecked_const_iterator@V?$_Tree_val@U?$_Tree_simple_types@U?$pair@$$CBHPAVSprite@@@std@@@std@@@std@@U_Iterator_base12@2@@std@@QAE@XZ 00459e00 f i CommonPathfindingLib:SpriteManager.obj
 0002:00035e60       ??0?$_Tree_val@U?$_Tree_simple_types@U?$pair@$$CBHPAVSprite@@@std@@@std@@@std@@QAE@XZ 00459e60 f i CommonPathfindingLib:SpriteManager.obj
 0002:00035ed0       ??0?$_Wrap_alloc@V?$allocator@U?$_Tree_node@U?$pair@$$CBHPAVSprite@@@std@@PAX@std@@@std@@@std@@QAE@XZ 00459ed0 f i CommonPathfindingLib:SpriteManager.obj
 0002:00035f30       ??0?$allocator@U?$_Tree_node@U?$pair@$$CBHPAVSprite@@@std@@PAX@std@@@std@@QAE@XZ 00459f30 f i CommonPathfindingLib:SpriteManager.obj
 0002:00035f70       ??0?$map@HPAVSprite@@U?$less@H@std@@V?$allocator@U?$pair@$$CBHPAVSprite@@@std@@@3@@std@@QAE@XZ 00459f70 f i CommonPathfindingLib:SpriteManager.obj
 0002:00035fd0       ??0SpriteManager@@QAE@XZ   00459fd0 f   CommonPathfindingLib:SpriteManager.obj
 0002:00036030       ??1?$_Compressed_pair@U?$_Wrap_alloc@V?$allocator@U?$_Tree_node@U?$pair@$$CBHPAVSprite@@@std@@PAX@std@@@std@@@std@@V?$_Tree_val@U?$_Tree_simple_types@U?$pair@$$CBHPAVSprite@@@std@@@std@@@2@$00@std@@QAE@XZ 0045a030 f i CommonPathfindingLib:SpriteManager.obj
 0002:00036080       ??1?$_Compressed_pair@U?$less@H@std@@V?$_Compressed_pair@U?$_Wrap_alloc@V?$allocator@U?$_Tree_node@U?$pair@$$CBHPAVSprite@@@std@@PAX@std@@@std@@@std@@V?$_Tree_val@U?$_Tree_simple_types@U?$pair@$$CBHPAVSprite@@@std@@@std@@@2@$00@2@$00@std@@QAE@XZ 0045a080 f i CommonPathfindingLib:SpriteManager.obj
 0002:000360d0       ??1?$_Iterator012@Ubidirectional_iterator_tag@std@@U?$pair@$$CBHPAVSprite@@@2@HPBU32@ABU32@U_Iterator_base12@2@@std@@QAE@XZ 0045a0d0 f i CommonPathfindingLib:SpriteManager.obj
 0002:00036120       ??1?$_Tree@V?$_Tmap_traits@HPAVSprite@@U?$less@H@std@@V?$allocator@U?$pair@$$CBHPAVSprite@@@std@@@3@$0A@@std@@@std@@QAE@XZ 0045a120 f i CommonPathfindingLib:SpriteManager.obj
 0002:000361b0       ??1?$_Tree_comp_alloc@V?$_Tmap_traits@HPAVSprite@@U?$less@H@std@@V?$allocator@U?$pair@$$CBHPAVSprite@@@std@@@3@$0A@@std@@@std@@QAE@XZ 0045a1b0 f i CommonPathfindingLib:SpriteManager.obj
 0002:00036260       ??1?$_Tree_const_iterator@V?$_Tree_val@U?$_Tree_simple_types@U?$pair@$$CBHPAVSprite@@@std@@@std@@@std@@@std@@QAE@XZ 0045a260 f i CommonPathfindingLib:SpriteManager.obj
 0002:000362b0       ??1?$_Tree_iterator@V?$_Tree_val@U?$_Tree_simple_types@U?$pair@$$CBHPAVSprite@@@std@@@std@@@std@@@std@@QAE@XZ 0045a2b0 f i CommonPathfindingLib:SpriteManager.obj
 0002:00036300       ??1?$_Tree_unchecked_const_iterator@V?$_Tree_val@U?$_Tree_simple_types@U?$pair@$$CBHPAVSprite@@@std@@@std@@@std@@U_Iterator_base12@2@@std@@QAE@XZ 0045a300 f i CommonPathfindingLib:SpriteManager.obj
 0002:00036350       ??1?$_Tree_val@U?$_Tree_simple_types@U?$pair@$$CBHPAVSprite@@@std@@@std@@@std@@QAE@XZ 0045a350 f i CommonPathfindingLib:SpriteManager.obj
 0002:000363a0       ??1?$map@HPAVSprite@@U?$less@H@std@@V?$allocator@U?$pair@$$CBHPAVSprite@@@std@@@3@@std@@QAE@XZ 0045a3a0 f i CommonPathfindingLib:SpriteManager.obj
 0002:000363f0       ??1?$pair@V?$_Tree_iterator@V?$_Tree_val@U?$_Tree_simple_types@U?$pair@$$CBHPAVSprite@@@std@@@std@@@std@@@std@@_N@std@@QAE@XZ 0045a3f0 f i CommonPathfindingLib:SpriteManager.obj
 0002:00036440       ??1SpriteManager@@QAE@XZ   0045a440 f   CommonPathfindingLib:SpriteManager.obj
 0002:000365f0       ??4?$_Iterator012@Ubidirectional_iterator_tag@std@@U?$pair@$$CBHPAVSprite@@@2@HPBU32@ABU32@U_Iterator_base12@2@@std@@QAEAAU01@$$QAU01@@Z 0045a5f0 f i CommonPathfindingLib:SpriteManager.obj
 0002:00036650       ??4?$_Iterator012@Ubidirectional_iterator_tag@std@@U?$pair@$$CBHPAVSprite@@@2@HPBU32@ABU32@U_Iterator_base12@2@@std@@QAEAAU01@ABU01@@Z 0045a650 f i CommonPathfindingLib:SpriteManager.obj
 0002:000366b0       ??4?$_Tree_const_iterator@V?$_Tree_val@U?$_Tree_simple_types@U?$pair@$$CBHPAVSprite@@@std@@@std@@@std@@@std@@QAEAAV01@$$QAV01@@Z 0045a6b0 f i CommonPathfindingLib:SpriteManager.obj
 0002:00036710       ??4?$_Tree_const_iterator@V?$_Tree_val@U?$_Tree_simple_types@U?$pair@$$CBHPAVSprite@@@std@@@std@@@std@@@std@@QAEAAV01@ABV01@@Z 0045a710 f i CommonPathfindingLib:SpriteManager.obj
 0002:00036770       ??4?$_Tree_iterator@V?$_Tree_val@U?$_Tree_simple_types@U?$pair@$$CBHPAVSprite@@@std@@@std@@@std@@@std@@QAEAAV01@$$QAV01@@Z 0045a770 f i CommonPathfindingLib:SpriteManager.obj
 0002:000367d0       ??4?$_Tree_unchecked_const_iterator@V?$_Tree_val@U?$_Tree_simple_types@U?$pair@$$CBHPAVSprite@@@std@@@std@@@std@@U_Iterator_base12@2@@std@@QAEAAV01@$$QAV01@@Z 0045a7d0 f i CommonPathfindingLib:SpriteManager.obj
 0002:00036840       ??4?$_Tree_unchecked_const_iterator@V?$_Tree_val@U?$_Tree_simple_types@U?$pair@$$CBHPAVSprite@@@std@@@std@@@std@@U_Iterator_base12@2@@std@@QAEAAV01@ABV01@@Z 0045a840 f i CommonPathfindingLib:SpriteManager.obj
 0002:000368b0       ??8?$_Tree_const_iterator@V?$_Tree_val@U?$_Tree_simple_types@U?$pair@$$CBHPAVSprite@@@std@@@std@@@std@@@std@@QBE_NABV01@@Z 0045a8b0 f i CommonPathfindingLib:SpriteManager.obj
 0002:000369b0       ??9?$_Tree_const_iterator@V?$_Tree_val@U?$_Tree_simple_types@U?$pair@$$CBHPAVSprite@@@std@@@std@@@std@@@std@@QBE_NABV01@@Z 0045a9b0 f i CommonPathfindingLib:SpriteManager.obj
 0002:00036a40       ??A?$map@HPAVSprite@@U?$less@H@std@@V?$allocator@U?$pair@$$CBHPAVSprite@@@std@@@3@@std@@QAEAAPAVSprite@@ABH@Z 0045aa40 f i CommonPathfindingLib:SpriteManager.obj
 0002:00036b30       ??C?$_Tree_iterator@V?$_Tree_val@U?$_Tree_simple_types@U?$pair@$$CBHPAVSprite@@@std@@@std@@@std@@@std@@QBEPAU?$pair@$$CBHPAVSprite@@@1@XZ 0045ab30 f i CommonPathfindingLib:SpriteManager.obj
 0002:00036b90       ??D?$_Tree_const_iterator@V?$_Tree_val@U?$_Tree_simple_types@U?$pair@$$CBHPAVSprite@@@std@@@std@@@std@@@std@@QBEABU?$pair@$$CBHPAVSprite@@@1@XZ 0045ab90 f i CommonPathfindingLib:SpriteManager.obj
 0002:00036c80       ??D?$_Tree_iterator@V?$_Tree_val@U?$_Tree_simple_types@U?$pair@$$CBHPAVSprite@@@std@@@std@@@std@@@std@@QBEAAU?$pair@$$CBHPAVSprite@@@1@XZ 0045ac80 f i CommonPathfindingLib:SpriteManager.obj
 0002:00036cd0       ??E?$_Tree_const_iterator@V?$_Tree_val@U?$_Tree_simple_types@U?$pair@$$CBHPAVSprite@@@std@@@std@@@std@@@std@@QAE?AV01@H@Z 0045acd0 f i CommonPathfindingLib:SpriteManager.obj
 0002:00036df0       ??E?$_Tree_const_iterator@V?$_Tree_val@U?$_Tree_simple_types@U?$pair@$$CBHPAVSprite@@@std@@@std@@@std@@@std@@QAEAAV01@XZ 0045adf0 f i CommonPathfindingLib:SpriteManager.obj
 0002:00036ee0       ??E?$_Tree_iterator@V?$_Tree_val@U?$_Tree_simple_types@U?$pair@$$CBHPAVSprite@@@std@@@std@@@std@@@std@@QAEAAV01@XZ 0045aee0 f i CommonPathfindingLib:SpriteManager.obj
 0002:00036f40       ??E?$_Tree_unchecked_const_iterator@V?$_Tree_val@U?$_Tree_simple_types@U?$pair@$$CBHPAVSprite@@@std@@@std@@@std@@U_Iterator_base12@2@@std@@QAEAAV01@XZ 0045af40 f i CommonPathfindingLib:SpriteManager.obj
 0002:00037070       ??F?$_Tree_const_iterator@V?$_Tree_val@U?$_Tree_simple_types@U?$pair@$$CBHPAVSprite@@@std@@@std@@@std@@@std@@QAEAAV01@XZ 0045b070 f i CommonPathfindingLib:SpriteManager.obj
 0002:000371b0       ??F?$_Tree_iterator@V?$_Tree_val@U?$_Tree_simple_types@U?$pair@$$CBHPAVSprite@@@std@@@std@@@std@@@std@@QAEAAV01@XZ 0045b1b0 f i CommonPathfindingLib:SpriteManager.obj
 0002:00037210       ??F?$_Tree_unchecked_const_iterator@V?$_Tree_val@U?$_Tree_simple_types@U?$pair@$$CBHPAVSprite@@@std@@@std@@@std@@U_Iterator_base12@2@@std@@QAEAAV01@XZ 0045b210 f i CommonPathfindingLib:SpriteManager.obj
 0002:00037370       ??_GSprite@@QAEPAXI@Z      0045b370 f i CommonPathfindingLib:SpriteManager.obj
 0002:00037400       ?_Alloc_proxy@?$_Tree_comp_alloc@V?$_Tmap_traits@HPAVSprite@@U?$less@H@std@@V?$allocator@U?$pair@$$CBHPAVSprite@@@std@@@3@$0A@@std@@@std@@QAEXXZ 0045b400 f i CommonPathfindingLib:SpriteManager.obj
 0002:00037510       ?_Buyheadnode@?$_Tree_comp_alloc@V?$_Tmap_traits@HPAVSprite@@U?$less@H@std@@V?$allocator@U?$pair@$$CBHPAVSprite@@@std@@@3@$0A@@std@@@std@@QAEPAU?$_Tree_node@U?$pair@$$CBHPAVSprite@@@std@@PAX@2@XZ 0045b510 f i CommonPathfindingLib:SpriteManager.obj
 0002:00037720       ?_Buynode0@?$_Tree_comp_alloc@V?$_Tmap_traits@HPAVSprite@@U?$less@H@std@@V?$allocator@U?$pair@$$CBHPAVSprite@@@std@@@3@$0A@@std@@@std@@QAEPAU?$_Tree_node@U?$pair@$$CBHPAVSprite@@@std@@PAX@2@XZ 0045b720 f i CommonPathfindingLib:SpriteManager.obj
 0002:000378e0       ?_Color@?$_Tree_comp_alloc@V?$_Tmap_traits@HPAVSprite@@U?$less@H@std@@V?$allocator@U?$pair@$$CBHPAVSprite@@@std@@@3@$0A@@std@@@std@@SAAADPAU?$_Tree_node@U?$pair@$$CBHPAVSprite@@@std@@PAX@2@@Z 0045b8e0 f i CommonPathfindingLib:SpriteManager.obj
 0002:00037930       ?_Color@?$_Tree_val@U?$_Tree_simple_types@U?$pair@$$CBHPAVSprite@@@std@@@std@@@std@@SAAADPAU?$_Tree_node@U?$pair@$$CBHPAVSprite@@@std@@PAX@2@@Z 0045b930 f i CommonPathfindingLib:SpriteManager.obj
 0002:00037970       ?_Compare@?$_Tree@V?$_Tmap_traits@HPAVSprite@@U?$less@H@std@@V?$allocator@U?$pair@$$CBHPAVSprite@@@std@@@3@$0A@@std@@@std@@IBE_NABH0@Z 0045b970 f i CommonPathfindingLib:SpriteManager.obj
 0002:000379f0       ?_Construct@?$_Tree_comp_alloc@V?$_Tmap_traits@HPAVSprite@@U?$less@H@std@@V?$allocator@U?$pair@$$CBHPAVSprite@@@std@@@3@$0A@@std@@@std@@QAEXXZ 0045b9f0 f i CommonPathfindingLib:SpriteManager.obj
 0002:00037ae0       ?_Destroy_if_not_nil@?$_Tree@V?$_Tmap_traits@HPAVSprite@@U?$less@H@std@@V?$allocator@U?$pair@$$CBHPAVSprite@@@std@@@3@$0A@@std@@@std@@IAEXPAU?$_Tree_node@U?$pair@$$CBHPAVSprite@@@std@@PAX@2@@Z 0045bae0 f i CommonPathfindingLib:SpriteManager.obj
 0002:00037b70       ?_Erase@?$_Tree@V?$_Tmap_traits@HPAVSprite@@U?$less@H@std@@V?$allocator@U?$pair@$$CBHPAVSprite@@@std@@@3@$0A@@std@@@std@@IAEXPAU?$_Tree_node@U?$pair@$$CBHPAVSprite@@@std@@PAX@2@@Z 0045bb70 f i CommonPathfindingLib:SpriteManager.obj
 0002:00037c60       ?_Free_proxy@?$_Tree_comp_alloc@V?$_Tmap_traits@HPAVSprite@@U?$less@H@std@@V?$allocator@U?$pair@$$CBHPAVSprite@@@std@@@3@$0A@@std@@@std@@QAEXXZ 0045bc60 f i CommonPathfindingLib:SpriteManager.obj
 0002:00037d50       ?_Freeheadnode@?$_Tree_comp_alloc@V?$_Tmap_traits@HPAVSprite@@U?$less@H@std@@V?$allocator@U?$pair@$$CBHPAVSprite@@@std@@@3@$0A@@std@@@std@@QAEXPAU?$_Tree_node@U?$pair@$$CBHPAVSprite@@@std@@PAX@2@@Z 0045bd50 f i CommonPathfindingLib:SpriteManager.obj
 0002:00037e40       ?_Freenode0@?$_Tree_comp_alloc@V?$_Tmap_traits@HPAVSprite@@U?$less@H@std@@V?$allocator@U?$pair@$$CBHPAVSprite@@@std@@@3@$0A@@std@@@std@@QAEXPAU?$_Tree_node@U?$pair@$$CBHPAVSprite@@@std@@PAX@2@@Z 0045be40 f i CommonPathfindingLib:SpriteManager.obj
 0002:00037f30       ?_Get_data@?$_Tree_comp_alloc@V?$_Tmap_traits@HPAVSprite@@U?$less@H@std@@V?$allocator@U?$pair@$$CBHPAVSprite@@@std@@@3@$0A@@std@@@std@@QAEAAV?$_Tree_val@U?$_Tree_simple_types@U?$pair@$$CBHPAVSprite@@@std@@@std@@@2@XZ 0045bf30 f i CommonPathfindingLib:SpriteManager.obj
 0002:00037f90       ?_Get_data@?$_Tree_comp_alloc@V?$_Tmap_traits@HPAVSprite@@U?$less@H@std@@V?$allocator@U?$pair@$$CBHPAVSprite@@@std@@@3@$0A@@std@@@std@@QBEABV?$_Tree_val@U?$_Tree_simple_types@U?$pair@$$CBHPAVSprite@@@std@@@std@@@2@XZ 0045bf90 f i CommonPathfindingLib:SpriteManager.obj
 0002:00037ff0       ?_Get_first@?$_Compressed_pair@U?$_Wrap_alloc@V?$allocator@U?$_Tree_node@U?$pair@$$CBHPAVSprite@@@std@@PAX@std@@@std@@@std@@V?$_Tree_val@U?$_Tree_simple_types@U?$pair@$$CBHPAVSprite@@@std@@@std@@@2@$00@std@@QAEAAU?$_Wrap_alloc@V?$allocator@U?$_Tree_node@U?$pair@$$CBHPAVSprite@@@std@@PAX@std@@@std@@@2@XZ 0045bff0 f i CommonPathfindingLib:SpriteManager.obj
 0002:00038030       ?_Get_first@?$_Compressed_pair@U?$_Wrap_alloc@V?$allocator@U?$_Tree_node@U?$pair@$$CBHPAVSprite@@@std@@PAX@std@@@std@@@std@@V?$_Tree_val@U?$_Tree_simple_types@U?$pair@$$CBHPAVSprite@@@std@@@std@@@2@$00@std@@QBEABU?$_Wrap_alloc@V?$allocator@U?$_Tree_node@U?$pair@$$CBHPAVSprite@@@std@@PAX@std@@@std@@@2@XZ 0045c030 f i CommonPathfindingLib:SpriteManager.obj
 0002:00038070       ?_Get_first@?$_Compressed_pair@U?$less@H@std@@V?$_Compressed_pair@U?$_Wrap_alloc@V?$allocator@U?$_Tree_node@U?$pair@$$CBHPAVSprite@@@std@@PAX@std@@@std@@@std@@V?$_Tree_val@U?$_Tree_simple_types@U?$pair@$$CBHPAVSprite@@@std@@@std@@@2@$00@2@$00@std@@QAEAAU?$less@H@2@XZ 0045c070 f i CommonPathfindingLib:SpriteManager.obj
 0002:000380b0       ?_Get_first@?$_Compressed_pair@U?$less@H@std@@V?$_Compressed_pair@U?$_Wrap_alloc@V?$allocator@U?$_Tree_node@U?$pair@$$CBHPAVSprite@@@std@@PAX@std@@@std@@@std@@V?$_Tree_val@U?$_Tree_simple_types@U?$pair@$$CBHPAVSprite@@@std@@@std@@@2@$00@2@$00@std@@QBEABU?$less@H@2@XZ 0045c0b0 f i CommonPathfindingLib:SpriteManager.obj
 0002:000380f0       ?_Get_second@?$_Compressed_pair@U?$_Wrap_alloc@V?$allocator@U?$_Tree_node@U?$pair@$$CBHPAVSprite@@@std@@PAX@std@@@std@@@std@@V?$_Tree_val@U?$_Tree_simple_types@U?$pair@$$CBHPAVSprite@@@std@@@std@@@2@$00@std@@QAEAAV?$_Tree_val@U?$_Tree_simple_types@U?$pair@$$CBHPAVSprite@@@std@@@std@@@2@XZ 0045c0f0 f i CommonPathfindingLib:SpriteManager.obj
 0002:00038130       ?_Get_second@?$_Compressed_pair@U?$_Wrap_alloc@V?$allocator@U?$_Tree_node@U?$pair@$$CBHPAVSprite@@@std@@PAX@std@@@std@@@std@@V?$_Tree_val@U?$_Tree_simple_types@U?$pair@$$CBHPAVSprite@@@std@@@std@@@2@$00@std@@QBEABV?$_Tree_val@U?$_Tree_simple_types@U?$pair@$$CBHPAVSprite@@@std@@@std@@@2@XZ 0045c130 f i CommonPathfindingLib:SpriteManager.obj
 0002:00038170       ?_Get_second@?$_Compressed_pair@U?$less@H@std@@V?$_Compressed_pair@U?$_Wrap_alloc@V?$allocator@U?$_Tree_node@U?$pair@$$CBHPAVSprite@@@std@@PAX@std@@@std@@@std@@V?$_Tree_val@U?$_Tree_simple_types@U?$pair@$$CBHPAVSprite@@@std@@@std@@@2@$00@2@$00@std@@QAEAAV?$_Compressed_pair@U?$_Wrap_alloc@V?$allocator@U?$_Tree_node@U?$pair@$$CBHPAVSprite@@@std@@PAX@std@@@std@@@std@@V?$_Tree_val@U?$_Tree_simple_types@U?$pair@$$CBHPAVSprite@@@std@@@std@@@2@$00@2@XZ 0045c170 f i CommonPathfindingLib:SpriteManager.obj
 0002:000381b0       ?_Get_second@?$_Compressed_pair@U?$less@H@std@@V?$_Compressed_pair@U?$_Wrap_alloc@V?$allocator@U?$_Tree_node@U?$pair@$$CBHPAVSprite@@@std@@PAX@std@@@std@@@std@@V?$_Tree_val@U?$_Tree_simple_types@U?$pair@$$CBHPAVSprite@@@std@@@std@@@2@$00@2@$00@std@@QBEABV?$_Compressed_pair@U?$_Wrap_alloc@V?$allocator@U?$_Tree_node@U?$pair@$$CBHPAVSprite@@@std@@PAX@std@@@std@@@std@@V?$_Tree_val@U?$_Tree_simple_types@U?$pair@$$CBHPAVSprite@@@std@@@std@@@2@$00@2@XZ 0045c1b0 f i CommonPathfindingLib:SpriteManager.obj
 0002:000381f0       ?_Getal@?$_Tree_comp_alloc@V?$_Tmap_traits@HPAVSprite@@U?$less@H@std@@V?$allocator@U?$pair@$$CBHPAVSprite@@@std@@@3@$0A@@std@@@std@@QAEAAU?$_Wrap_alloc@V?$allocator@U?$_Tree_node@U?$pair@$$CBHPAVSprite@@@std@@PAX@std@@@std@@@2@XZ 0045c1f0 f i CommonPathfindingLib:SpriteManager.obj
 0002:00038250       ?_Getal@?$_Tree_comp_alloc@V?$_Tmap_traits@HPAVSprite@@U?$less@H@std@@V?$allocator@U?$pair@$$CBHPAVSprite@@@std@@@3@$0A@@std@@@std@@QBEABU?$_Wrap_alloc@V?$allocator@U?$_Tree_node@U?$pair@$$CBHPAVSprite@@@std@@PAX@std@@@std@@@2@XZ 0045c250 f i CommonPathfindingLib:SpriteManager.obj
 0002:000382b0       ?_Getcomp@?$_Tree_comp_alloc@V?$_Tmap_traits@HPAVSprite@@U?$less@H@std@@V?$allocator@U?$pair@$$CBHPAVSprite@@@std@@@3@$0A@@std@@@std@@QAEAAU?$less@H@2@XZ 0045c2b0 f i CommonPathfindingLib:SpriteManager.obj
 0002:00038300       ?_Getcomp@?$_Tree_comp_alloc@V?$_Tmap_traits@HPAVSprite@@U?$less@H@std@@V?$allocator@U?$pair@$$CBHPAVSprite@@@std@@@3@$0A@@std@@@std@@QBEABU?$less@H@2@XZ 0045c300 f i CommonPathfindingLib:SpriteManager.obj
 0002:00038350       ?_Getpfirst@?$_Tree_comp_alloc@V?$_Tmap_traits@HPAVSprite@@U?$less@H@std@@V?$allocator@U?$pair@$$CBHPAVSprite@@@std@@@3@$0A@@std@@@std@@QBEPAPAU_Iterator_base12@2@XZ 0045c350 f i CommonPathfindingLib:SpriteManager.obj
 0002:000383b0       ?_Isnil@?$_Tree_comp_alloc@V?$_Tmap_traits@HPAVSprite@@U?$less@H@std@@V?$allocator@U?$pair@$$CBHPAVSprite@@@std@@@3@$0A@@std@@@std@@SAAADPAU?$_Tree_node@U?$pair@$$CBHPAVSprite@@@std@@PAX@2@@Z 0045c3b0 f i CommonPathfindingLib:SpriteManager.obj
 0002:00038400       ?_Isnil@?$_Tree_val@U?$_Tree_simple_types@U?$pair@$$CBHPAVSprite@@@std@@@std@@@std@@SAAADPAU?$_Tree_node@U?$pair@$$CBHPAVSprite@@@std@@PAX@2@@Z 0045c400 f i CommonPathfindingLib:SpriteManager.obj
 0002:00038440       ?_Key@?$_Tree@V?$_Tmap_traits@HPAVSprite@@U?$less@H@std@@V?$allocator@U?$pair@$$CBHPAVSprite@@@std@@@3@$0A@@std@@@std@@IBEABHPAU?$_Tree_node@U?$pair@$$CBHPAVSprite@@@std@@PAX@2@@Z 0045c440 f i CommonPathfindingLib:SpriteManager.obj
 0002:000384b0       ?_Kfn@?$_Tree@V?$_Tmap_traits@HPAVSprite@@U?$less@H@std@@V?$allocator@U?$pair@$$CBHPAVSprite@@@std@@@3@$0A@@std@@@std@@IBEABHABU?$pair@$$CBHPAVSprite@@@2@@Z 0045c4b0 f i CommonPathfindingLib:SpriteManager.obj
 0002:00038510       ?_Left@?$_Tree_comp_alloc@V?$_Tmap_traits@HPAVSprite@@U?$less@H@std@@V?$allocator@U?$pair@$$CBHPAVSprite@@@std@@@3@$0A@@std@@@std@@SAAAPAU?$_Tree_node@U?$pair@$$CBHPAVSprite@@@std@@PAX@2@PAU32@@Z 0045c510 f i CommonPathfindingLib:SpriteManager.obj
 0002:00038560       ?_Left@?$_Tree_val@U?$_Tree_simple_types@U?$pair@$$CBHPAVSprite@@@std@@@std@@@std@@SAAAPAU?$_Tree_node@U?$pair@$$CBHPAVSprite@@@std@@PAX@2@PAU32@@Z 0045c560 f i CommonPathfindingLib:SpriteManager.obj
 0002:000385a0       ?_Lmost@?$_Tree@V?$_Tmap_traits@HPAVSprite@@U?$less@H@std@@V?$allocator@U?$pair@$$CBHPAVSprite@@@std@@@3@$0A@@std@@@std@@IBEAAPAU?$_Tree_node@U?$pair@$$CBHPAVSprite@@@std@@PAX@2@XZ 0045c5a0 f i CommonPathfindingLib:SpriteManager.obj
 0002:00038600       ?_Lrotate@?$_Tree@V?$_Tmap_traits@HPAVSprite@@U?$less@H@std@@V?$allocator@U?$pair@$$CBHPAVSprite@@@std@@@3@$0A@@std@@@std@@IAEXPAU?$_Tree_node@U?$pair@$$CBHPAVSprite@@@std@@PAX@2@@Z 0045c600 f i CommonPathfindingLib:SpriteManager.obj
 0002:000387b0       ?_Max@?$_Tree_comp_alloc@V?$_Tmap_traits@HPAVSprite@@U?$less@H@std@@V?$allocator@U?$pair@$$CBHPAVSprite@@@std@@@3@$0A@@std@@@std@@SAPAU?$_Tree_node@U?$pair@$$CBHPAVSprite@@@std@@PAX@2@PAU32@@Z 0045c7b0 f i CommonPathfindingLib:SpriteManager.obj
 0002:00038800       ?_Max@?$_Tree_val@U?$_Tree_simple_types@U?$pair@$$CBHPAVSprite@@@std@@@std@@@std@@SAPAU?$_Tree_node@U?$pair@$$CBHPAVSprite@@@std@@PAX@2@PAU32@@Z 0045c800 f i CommonPathfindingLib:SpriteManager.obj
 0002:00038880       ?_Min@?$_Tree_comp_alloc@V?$_Tmap_traits@HPAVSprite@@U?$less@H@std@@V?$allocator@U?$pair@$$CBHPAVSprite@@@std@@@3@$0A@@std@@@std@@SAPAU?$_Tree_node@U?$pair@$$CBHPAVSprite@@@std@@PAX@2@PAU32@@Z 0045c880 f i CommonPathfindingLib:SpriteManager.obj
 0002:000388d0       ?_Min@?$_Tree_val@U?$_Tree_simple_types@U?$pair@$$CBHPAVSprite@@@std@@@std@@@std@@SAPAU?$_Tree_node@U?$pair@$$CBHPAVSprite@@@std@@PAX@2@PAU32@@Z 0045c8d0 f i CommonPathfindingLib:SpriteManager.obj
 0002:00038950       ?_Myhead@?$_Tree_comp_alloc@V?$_Tmap_traits@HPAVSprite@@U?$less@H@std@@V?$allocator@U?$pair@$$CBHPAVSprite@@@std@@@3@$0A@@std@@@std@@QAEAAPAU?$_Tree_node@U?$pair@$$CBHPAVSprite@@@std@@PAX@2@XZ 0045c950 f i CommonPathfindingLib:SpriteManager.obj
 0002:000389b0       ?_Myhead@?$_Tree_comp_alloc@V?$_Tmap_traits@HPAVSprite@@U?$less@H@std@@V?$allocator@U?$pair@$$CBHPAVSprite@@@std@@@3@$0A@@std@@@std@@QBEABQAU?$_Tree_node@U?$pair@$$CBHPAVSprite@@@std@@PAX@2@XZ 0045c9b0 f i CommonPathfindingLib:SpriteManager.obj
 0002:00038a10       ?_Mynode@?$_Tree_unchecked_const_iterator@V?$_Tree_val@U?$_Tree_simple_types@U?$pair@$$CBHPAVSprite@@@std@@@std@@@std@@U_Iterator_base12@2@@std@@QBEPAU?$_Tree_node@U?$pair@$$CBHPAVSprite@@@std@@PAX@2@XZ 0045ca10 f i CommonPathfindingLib:SpriteManager.obj
 0002:00038a50       ?_Myproxy@?$_Tree_comp_alloc@V?$_Tmap_traits@HPAVSprite@@U?$less@H@std@@V?$allocator@U?$pair@$$CBHPAVSprite@@@std@@@3@$0A@@std@@@std@@QAEAAPAU_Container_proxy@2@XZ 0045ca50 f i CommonPathfindingLib:SpriteManager.obj
 0002:00038aa0       ?_Mysize@?$_Tree_comp_alloc@V?$_Tmap_traits@HPAVSprite@@U?$less@H@std@@V?$allocator@U?$pair@$$CBHPAVSprite@@@std@@@3@$0A@@std@@@std@@QAEAAIXZ 0045caa0 f i CommonPathfindingLib:SpriteManager.obj
 0002:00038b00       ?_Mysize@?$_Tree_comp_alloc@V?$_Tmap_traits@HPAVSprite@@U?$less@H@std@@V?$allocator@U?$pair@$$CBHPAVSprite@@@std@@@3@$0A@@std@@@std@@QBEABIXZ 0045cb00 f i CommonPathfindingLib:SpriteManager.obj
 0002:00038b60       ?_Myval@?$_Tree_comp_alloc@V?$_Tmap_traits@HPAVSprite@@U?$less@H@std@@V?$allocator@U?$pair@$$CBHPAVSprite@@@std@@@3@$0A@@std@@@std@@SAAAU?$pair@$$CBHPAVSprite@@@2@PAU?$_Tree_node@U?$pair@$$CBHPAVSprite@@@std@@PAX@2@@Z 0045cb60 f i CommonPathfindingLib:SpriteManager.obj
 0002:00038bb0       ?_Myval@?$_Tree_val@U?$_Tree_simple_types@U?$pair@$$CBHPAVSprite@@@std@@@std@@@std@@SAAAU?$pair@$$CBHPAVSprite@@@2@PAU?$_Tree_node@U?$pair@$$CBHPAVSprite@@@std@@PAX@2@@Z 0045cbb0 f i CommonPathfindingLib:SpriteManager.obj
 0002:00038bf0       ?_Orphan_all@?$_Tree_comp_alloc@V?$_Tmap_traits@HPAVSprite@@U?$less@H@std@@V?$allocator@U?$pair@$$CBHPAVSprite@@@std@@@3@$0A@@std@@@std@@QAEXXZ 0045cbf0 f i CommonPathfindingLib:SpriteManager.obj
 0002:00038c50       ?_Orphan_ptr@?$_Tree@V?$_Tmap_traits@HPAVSprite@@U?$less@H@std@@V?$allocator@U?$pair@$$CBHPAVSprite@@@std@@@3@$0A@@std@@@std@@IAEXPAU?$_Tree_node@U?$pair@$$CBHPAVSprite@@@std@@PAX@2@@Z 0045cc50 f i CommonPathfindingLib:SpriteManager.obj
 0002:00038dd0       ?_Parent@?$_Tree_comp_alloc@V?$_Tmap_traits@HPAVSprite@@U?$less@H@std@@V?$allocator@U?$pair@$$CBHPAVSprite@@@std@@@3@$0A@@std@@@std@@SAAAPAU?$_Tree_node@U?$pair@$$CBHPAVSprite@@@std@@PAX@2@PAU32@@Z 0045cdd0 f i CommonPathfindingLib:SpriteManager.obj
 0002:00038e20       ?_Parent@?$_Tree_val@U?$_Tree_simple_types@U?$pair@$$CBHPAVSprite@@@std@@@std@@@std@@SAAAPAU?$_Tree_node@U?$pair@$$CBHPAVSprite@@@std@@PAX@2@PAU32@@Z 0045ce20 f i CommonPathfindingLib:SpriteManager.obj
 0002:00038e60       ?_Right@?$_Tree_comp_alloc@V?$_Tmap_traits@HPAVSprite@@U?$less@H@std@@V?$allocator@U?$pair@$$CBHPAVSprite@@@std@@@3@$0A@@std@@@std@@SAAAPAU?$_Tree_node@U?$pair@$$CBHPAVSprite@@@std@@PAX@2@PAU32@@Z 0045ce60 f i CommonPathfindingLib:SpriteManager.obj
 0002:00038eb0       ?_Right@?$_Tree_val@U?$_Tree_simple_types@U?$pair@$$CBHPAVSprite@@@std@@@std@@@std@@SAAAPAU?$_Tree_node@U?$pair@$$CBHPAVSprite@@@std@@PAX@2@PAU32@@Z 0045ceb0 f i CommonPathfindingLib:SpriteManager.obj
 0002:00038ef0       ?_Rmost@?$_Tree@V?$_Tmap_traits@HPAVSprite@@U?$less@H@std@@V?$allocator@U?$pair@$$CBHPAVSprite@@@std@@@3@$0A@@std@@@std@@IBEAAPAU?$_Tree_node@U?$pair@$$CBHPAVSprite@@@std@@PAX@2@XZ 0045cef0 f i CommonPathfindingLib:SpriteManager.obj
 0002:00038f50       ?_Root@?$_Tree@V?$_Tmap_traits@HPAVSprite@@U?$less@H@std@@V?$allocator@U?$pair@$$CBHPAVSprite@@@std@@@3@$0A@@std@@@std@@IBEAAPAU?$_Tree_node@U?$pair@$$CBHPAVSprite@@@std@@PAX@2@XZ 0045cf50 f i CommonPathfindingLib:SpriteManager.obj
 0002:00038fb0       ?_Rrotate@?$_Tree@V?$_Tmap_traits@HPAVSprite@@U?$less@H@std@@V?$allocator@U?$pair@$$CBHPAVSprite@@@std@@@3@$0A@@std@@@std@@IAEXPAU?$_Tree_node@U?$pair@$$CBHPAVSprite@@@std@@PAX@2@@Z 0045cfb0 f i CommonPathfindingLib:SpriteManager.obj
 0002:00039160       ?_Tidy@?$_Tree@V?$_Tmap_traits@HPAVSprite@@U?$less@H@std@@V?$allocator@U?$pair@$$CBHPAVSprite@@@std@@@3@$0A@@std@@@std@@IAEXXZ 0045d160 f i CommonPathfindingLib:SpriteManager.obj
 0002:000392e0       ?allocate@?$_Wrap_alloc@V?$allocator@U?$_Tree_node@U?$pair@$$CBHPAVSprite@@@std@@PAX@std@@@std@@@std@@QAEPAU?$_Tree_node@U?$pair@$$CBHPAVSprite@@@std@@PAX@2@I@Z 0045d2e0 f i CommonPathfindingLib:SpriteManager.obj
 0002:00039340       ?allocate@?$allocator@U?$_Tree_node@U?$pair@$$CBHPAVSprite@@@std@@PAX@std@@@std@@QAEPAU?$_Tree_node@U?$pair@$$CBHPAVSprite@@@std@@PAX@2@I@Z 0045d340 f i CommonPathfindingLib:SpriteManager.obj
 0002:000393a0       ?begin@?$_Tree@V?$_Tmap_traits@HPAVSprite@@U?$less@H@std@@V?$allocator@U?$pair@$$CBHPAVSprite@@@std@@@3@$0A@@std@@@std@@QAE?AV?$_Tree_iterator@V?$_Tree_val@U?$_Tree_simple_types@U?$pair@$$CBHPAVSprite@@@std@@@std@@@std@@@2@XZ 0045d3a0 f i CommonPathfindingLib:SpriteManager.obj
 0002:00039450       ?clear@?$_Tree@V?$_Tmap_traits@HPAVSprite@@U?$less@H@std@@V?$allocator@U?$pair@$$CBHPAVSprite@@@std@@@3@$0A@@std@@@std@@QAEXXZ 0045d450 f i CommonPathfindingLib:SpriteManager.obj
 0002:00039560       ?createAndManageSprite@SpriteManager@@QAEPAVSprite@@ABHPAVGraphicsBuffer@@MMMM@Z 0045d560 f   CommonPathfindingLib:SpriteManager.obj
 0002:00039810       ?deallocate@?$_Wrap_alloc@V?$allocator@U?$_Tree_node@U?$pair@$$CBHPAVSprite@@@std@@PAX@std@@@std@@@std@@QAEXPAU?$_Tree_node@U?$pair@$$CBHPAVSprite@@@std@@PAX@2@I@Z 0045d810 f i CommonPathfindingLib:SpriteManager.obj
 0002:00039870       ?deallocate@?$allocator@U?$_Tree_node@U?$pair@$$CBHPAVSprite@@@std@@PAX@std@@@std@@QAEXPAU?$_Tree_node@U?$pair@$$CBHPAVSprite@@@std@@PAX@2@I@Z 0045d870 f i CommonPathfindingLib:SpriteManager.obj
 0002:000398d0       ?destroySprite@SpriteManager@@QAEXABH@Z 0045d8d0 f   CommonPathfindingLib:SpriteManager.obj
 0002:00039ac0       ?end@?$_Tree@V?$_Tmap_traits@HPAVSprite@@U?$less@H@std@@V?$allocator@U?$pair@$$CBHPAVSprite@@@std@@@3@$0A@@std@@@std@@QAE?AV?$_Tree_iterator@V?$_Tree_val@U?$_Tree_simple_types@U?$pair@$$CBHPAVSprite@@@std@@@std@@@std@@@2@XZ 0045dac0 f i CommonPathfindingLib:SpriteManager.obj
 0002:00039b70       ?erase@?$_Tree@V?$_Tmap_traits@HPAVSprite@@U?$less@H@std@@V?$allocator@U?$pair@$$CBHPAVSprite@@@std@@@3@$0A@@std@@@std@@QAE?AV?$_Tree_iterator@V?$_Tree_val@U?$_Tree_simple_types@U?$pair@$$CBHPAVSprite@@@std@@@std@@@std@@@2@V?$_Tree_const_iterator@V?$_Tree_val@U?$_Tree_simple_types@U?$pair@$$CBHPAVSprite@@@std@@@std@@@std@@@2@0@Z 0045db70 f i CommonPathfindingLib:SpriteManager.obj
 0002:00039e90       ?erase@?$_Tree@V?$_Tmap_traits@HPAVSprite@@U?$less@H@std@@V?$allocator@U?$pair@$$CBHPAVSprite@@@std@@@3@$0A@@std@@@std@@QAE?AV?$_Tree_iterator@V?$_Tree_val@U?$_Tree_simple_types@U?$pair@$$CBHPAVSprite@@@std@@@std@@@std@@@2@V?$_Tree_const_iterator@V?$_Tree_val@U?$_Tree_simple_types@U?$pair@$$CBHPAVSprite@@@std@@@std@@@std@@@2@@Z 0045de90 f i CommonPathfindingLib:SpriteManager.obj
 0002:0003a970       ?find@?$_Tree@V?$_Tmap_traits@HPAVSprite@@U?$less@H@std@@V?$allocator@U?$pair@$$CBHPAVSprite@@@std@@@3@$0A@@std@@@std@@QAE?AV?$_Tree_iterator@V?$_Tree_val@U?$_Tree_simple_types@U?$pair@$$CBHPAVSprite@@@std@@@std@@@std@@@2@ABH@Z 0045e970 f i CommonPathfindingLib:SpriteManager.obj
 0002:0003ac70       ?getSprite@SpriteManager@@QAEPAVSprite@@ABH@Z 0045ec70 f   CommonPathfindingLib:SpriteManager.obj
 0002:0003ae20       ?lower_bound@?$_Tree@V?$_Tmap_traits@HPAVSprite@@U?$less@H@std@@V?$allocator@U?$pair@$$CBHPAVSprite@@@std@@@3@$0A@@std@@@std@@QAE?AV?$_Tree_iterator@V?$_Tree_val@U?$_Tree_simple_types@U?$pair@$$CBHPAVSprite@@@std@@@std@@@std@@@2@ABH@Z 0045ee20 f i CommonPathfindingLib:SpriteManager.obj
 0002:0003aec0       ?max_size@?$_Tree@V?$_Tmap_traits@HPAVSprite@@U?$less@H@std@@V?$allocator@U?$pair@$$CBHPAVSprite@@@std@@@3@$0A@@std@@@std@@QBEIXZ 0045eec0 f i CommonPathfindingLib:SpriteManager.obj
 0002:0003af30       ?max_size@?$_Wrap_alloc@V?$allocator@U?$_Tree_node@U?$pair@$$CBHPAVSprite@@@std@@PAX@std@@@std@@@std@@QBEIU_Nil@2@@Z 0045ef30 f i CommonPathfindingLib:SpriteManager.obj
 0002:0003af90       ?max_size@?$allocator@U?$_Tree_node@U?$pair@$$CBHPAVSprite@@@std@@PAX@std@@@std@@QBEIXZ 0045ef90 f i CommonPathfindingLib:SpriteManager.obj
 0002:0003afd0       ?max_size@?$allocator_traits@V?$allocator@U?$_Tree_node@U?$pair@$$CBHPAVSprite@@@std@@PAX@std@@@std@@@std@@SAIABV?$allocator@U?$_Tree_node@U?$pair@$$CBHPAVSprite@@@std@@PAX@std@@@2@@Z 0045efd0 f i CommonPathfindingLib:SpriteManager.obj
 0002:0003b020       ?pointer_to@?$pointer_traits@PAU?$pair@$$CBHPAVSprite@@@std@@@std@@SAPAU?$pair@$$CBHPAVSprite@@@2@AAU32@@Z 0045f020 f i CommonPathfindingLib:SpriteManager.obj
 0002:0003b070       ?size@?$_Tree@V?$_Tmap_traits@HPAVSprite@@U?$less@H@std@@V?$allocator@U?$pair@$$CBHPAVSprite@@@std@@@3@$0A@@std@@@std@@QBEIXZ 0045f070 f i CommonPathfindingLib:SpriteManager.obj
 0002:0003b0d0       ??0GraphicsSystem@@QAE@XZ  0045f0d0 f   CommonPathfindingLib:GraphicsSystem.obj
 0002:0003b140       ??1GraphicsSystem@@QAE@XZ  0045f140 f   CommonPathfindingLib:GraphicsSystem.obj
 0002:0003b1d0       ??RAllegroColorCompare@@QBE_NABUALLEGRO_COLOR@@0@Z 0045f1d0 f   CommonPathfindingLib:GraphicsSystem.obj
 0002:0003b2f0       ?cleanup@GraphicsSystem@@QAEXXZ 0045f2f0 f   CommonPathfindingLib:GraphicsSystem.obj
 0002:0003b3d0       ?init@GraphicsSystem@@QAE_NHH@Z 0045f3d0 f   CommonPathfindingLib:GraphicsSystem.obj
 0002:0003b580       ?invalidate@GraphicsBuffer@@QAEXXZ 0045f580 f i CommonPathfindingLib:GraphicsSystem.obj
 0002:0003b5c0       ?setX@Vector2D@@QAEXM@Z    0045f5c0 f i CommonPathfindingLib:GraphicsSystem.obj
 0002:0003b610       ?setY@Vector2D@@QAEXM@Z    0045f610 f i CommonPathfindingLib:GraphicsSystem.obj
 0002:0003b660       ?swap@GraphicsSystem@@QAEXXZ 0045f660 f   CommonPathfindingLib:GraphicsSystem.obj
 0002:0003b6c0       ?switchTargetBitmap@GraphicsSystem@@SAPAUALLEGRO_BITMAP@@PAU2@@Z 0045f6c0 f   CommonPathfindingLib:GraphicsSystem.obj
 0002:0003b740       ?wrapCoordinates@GraphicsSystem@@QAEXAAVVector2D@@@Z 0045f740 f   CommonPathfindingLib:GraphicsSystem.obj
 0002:0003b8e0       ??0Sprite@@QAE@PAVGraphicsBuffer@@MMMM@Z 0045f8e0 f   CommonPathfindingLib:Sprite.obj
 0002:0003b9b0       ??1Sprite@@QAE@XZ          0045f9b0 f   CommonPathfindingLib:Sprite.obj
 0002:0003b9f0       ?draw@Sprite@@QAEXAAVGraphicsBuffer@@MMMH@Z 0045f9f0 f   CommonPathfindingLib:Sprite.obj
 0002:0003bbb0       ??0GraphicsBuffer@@QAE@ABV0@@Z 0045fbb0 f   CommonPathfindingLib:GraphicsBuffer.obj
 0002:0003bc20       ??0GraphicsBuffer@@QAE@ABV?$basic_string@DU?$char_traits@D@std@@V?$allocator@D@2@@std@@@Z 0045fc20 f   CommonPathfindingLib:GraphicsBuffer.obj
 0002:0003bca0       ??0GraphicsBuffer@@QAE@HHABUALLEGRO_COLOR@@@Z 0045fca0 f   CommonPathfindingLib:GraphicsBuffer.obj
 0002:0003bd20       ??0GraphicsBuffer@@QAE@PAUALLEGRO_BITMAP@@@Z 0045fd20 f   CommonPathfindingLib:GraphicsBuffer.obj
 0002:0003bd70       ??0GraphicsBuffer@@QAE@XZ  0045fd70 f   CommonPathfindingLib:GraphicsBuffer.obj
 0002:0003bdc0       ??1GraphicsBuffer@@QAE@XZ  0045fdc0 f   CommonPathfindingLib:GraphicsBuffer.obj
 0002:0003be30       ??4GraphicsBuffer@@QAEAAV0@ABV0@@Z 0045fe30 f   CommonPathfindingLib:GraphicsBuffer.obj
 0002:0003bed0       ?clear@GraphicsBuffer@@QAEXABUALLEGRO_COLOR@@@Z 0045fed0 f   CommonPathfindingLib:GraphicsBuffer.obj
 0002:0003bf80       ?fillRegion@GraphicsBuffer@@QAEXABVVector2D@@0ABUALLEGRO_COLOR@@@Z 0045ff80 f   CommonPathfindingLib:GraphicsBuffer.obj
 0002:0003c064       _al_get_bitmap_width       00460064 f   allegro-5.0.10-monolith-md:allegro-5.0.10-monolith-md.dll
 0002:0003c06a       _al_get_bitmap_height      0046006a f   allegro-5.0.10-monolith-md:allegro-5.0.10-monolith-md.dll
 0002:0003c070       _al_get_mouse_state        00460070 f   allegro-5.0.10-monolith-md:allegro-5.0.10-monolith-md.dll
 0002:0003c076       _al_mouse_button_down      00460076 f   allegro-5.0.10-monolith-md:allegro-5.0.10-monolith-md.dll
 0002:0003c07c       _al_get_keyboard_state     0046007c f   allegro-5.0.10-monolith-md:allegro-5.0.10-monolith-md.dll
 0002:0003c082       _al_key_down               00460082 f   allegro-5.0.10-monolith-md:allegro-5.0.10-monolith-md.dll
 0002:0003c088       _al_install_keyboard       00460088 f   allegro-5.0.10-monolith-md:allegro-5.0.10-monolith-md.dll
 0002:0003c08e       _al_uninstall_keyboard     0046008e f   allegro-5.0.10-monolith-md:allegro-5.0.10-monolith-md.dll
 0002:0003c094       _al_install_mouse          00460094 f   allegro-5.0.10-monolith-md:allegro-5.0.10-monolith-md.dll
 0002:0003c09a       _al_uninstall_mouse        0046009a f   allegro-5.0.10-monolith-md:allegro-5.0.10-monolith-md.dll
 0002:0003c0a0       _al_install_system         004600a0 f   allegro-5.0.10-monolith-md:allegro-5.0.10-monolith-md.dll
 0002:0003c0a6       _al_install_audio          004600a6 f   allegro-5.0.10-monolith-md:allegro-5.0.10-monolith-md.dll
 0002:0003c0ac       _al_uninstall_audio        004600ac f   allegro-5.0.10-monolith-md:allegro-5.0.10-monolith-md.dll
 0002:0003c0b2       _al_reserve_samples        004600b2 f   allegro-5.0.10-monolith-md:allegro-5.0.10-monolith-md.dll
 0002:0003c0b8       _al_init_acodec_addon      004600b8 f   allegro-5.0.10-monolith-md:allegro-5.0.10-monolith-md.dll
 0002:0003c0be       _al_init_image_addon       004600be f   allegro-5.0.10-monolith-md:allegro-5.0.10-monolith-md.dll
 0002:0003c0c4       _al_shutdown_image_addon   004600c4 f   allegro-5.0.10-monolith-md:allegro-5.0.10-monolith-md.dll
 0002:0003c0ca       _al_destroy_font           004600ca f   allegro-5.0.10-monolith-md:allegro-5.0.10-monolith-md.dll
 0002:0003c0d0       _al_init_font_addon        004600d0 f   allegro-5.0.10-monolith-md:allegro-5.0.10-monolith-md.dll
 0002:0003c0d6       _al_shutdown_font_addon    004600d6 f   allegro-5.0.10-monolith-md:allegro-5.0.10-monolith-md.dll
 0002:0003c0dc       _al_load_ttf_font          004600dc f   allegro-5.0.10-monolith-md:allegro-5.0.10-monolith-md.dll
 0002:0003c0e2       _al_init_ttf_addon         004600e2 f   allegro-5.0.10-monolith-md:allegro-5.0.10-monolith-md.dll
 0002:0003c0e8       _al_shutdown_ttf_addon     004600e8 f   allegro-5.0.10-monolith-md:allegro-5.0.10-monolith-md.dll
 0002:0003c0ee       _al_init_primitives_addon  004600ee f   allegro-5.0.10-monolith-md:allegro-5.0.10-monolith-md.dll
 0002:0003c0f4       _al_shutdown_primitives_addon 004600f4 f   allegro-5.0.10-monolith-md:allegro-5.0.10-monolith-md.dll
 0002:0003c0fa       _al_draw_filled_rectangle  004600fa f   allegro-5.0.10-monolith-md:allegro-5.0.10-monolith-md.dll
 0002:0003c100       _al_create_display         00460100 f   allegro-5.0.10-monolith-md:allegro-5.0.10-monolith-md.dll
 0002:0003c106       _al_destroy_display        00460106 f   allegro-5.0.10-monolith-md:allegro-5.0.10-monolith-md.dll
 0002:0003c10c       _al_set_target_bitmap      0046010c f   allegro-5.0.10-monolith-md:allegro-5.0.10-monolith-md.dll
 0002:0003c112       _al_get_backbuffer         00460112 f   allegro-5.0.10-monolith-md:allegro-5.0.10-monolith-md.dll
 0002:0003c118       _al_get_target_bitmap      00460118 f   allegro-5.0.10-monolith-md:allegro-5.0.10-monolith-md.dll
 0002:0003c11e       _al_flip_display           0046011e f   allegro-5.0.10-monolith-md:allegro-5.0.10-monolith-md.dll
 0002:0003c124       _al_create_sub_bitmap      00460124 f   allegro-5.0.10-monolith-md:allegro-5.0.10-monolith-md.dll
 0002:0003c12a       _al_draw_bitmap            0046012a f   allegro-5.0.10-monolith-md:allegro-5.0.10-monolith-md.dll
 0002:0003c130       _al_draw_rotated_bitmap    00460130 f   allegro-5.0.10-monolith-md:allegro-5.0.10-monolith-md.dll
 0002:0003c136       _al_create_bitmap          00460136 f   allegro-5.0.10-monolith-md:allegro-5.0.10-monolith-md.dll
 0002:0003c13c       _al_destroy_bitmap         0046013c f   allegro-5.0.10-monolith-md:allegro-5.0.10-monolith-md.dll
 0002:0003c142       _al_clone_bitmap           00460142 f   allegro-5.0.10-monolith-md:allegro-5.0.10-monolith-md.dll
 0002:0003c148       _al_load_bitmap            00460148 f   allegro-5.0.10-monolith-md:allegro-5.0.10-monolith-md.dll
 0002:0003c14e       _al_clear_to_color         0046014e f   allegro-5.0.10-monolith-md:allegro-5.0.10-monolith-md.dll
 0002:0003c160       ??2Trackable@@SAPAXI@Z     00460160 f   DeanLib:Trackable.obj
 0002:0003c1e0       ??3Trackable@@SAXPAX@Z     004601e0 f   DeanLib:Trackable.obj
 0002:0003c280       ??_UTrackable@@SAPAXI@Z    00460280 f   DeanLib:Trackable.obj
 0002:0003c300       ??_VTrackable@@SAXPAX@Z    00460300 f   DeanLib:Trackable.obj
 0002:0003c3a0       ??0Timer@@QAE@XZ           004603a0 f   DeanLib:Timer.obj
 0002:0003c470       ??1Timer@@QAE@XZ           00460470 f   DeanLib:Timer.obj
 0002:0003c4b0       ?calcDifferenceInMS@Timer@@ABENT_LARGE_INTEGER@@0@Z 004604b0 f   DeanLib:Timer.obj
 0002:0003c580       ?getElapsedTime@Timer@@QBENXZ 00460580 f   DeanLib:Timer.obj
 0002:0003c690       ?pause@Timer@@QAEX_N@Z     00460690 f   DeanLib:Timer.obj
 0002:0003c7a0       ?sleepUntilElapsed@Timer@@QAEXN@Z 004607a0 f   DeanLib:Timer.obj
 0002:0003c950       ?start@Timer@@QAEXXZ       00460950 f   DeanLib:Timer.obj
 0002:0003c9e0       ?stop@Timer@@QAEXXZ        004609e0 f   DeanLib:Timer.obj
 0002:0003ca70       ??$?0$$V@?$_Compressed_pair@V?$allocator@U?$_Tree_node@U?$pair@QAXUAllocationRecord@@@std@@PAX@std@@@std@@V?$_Tree_val@U?$_Tree_simple_types@U?$pair@QAXUAllocationRecord@@@std@@@std@@@2@$00@std@@QAE@U_Zero_then_variadic_args_t@1@@Z 00460a70 f i DeanLib:MemoryTracker.obj
 0002:0003cad0       ??$?0AAPAXAAUAllocationRecord@@X$0A@@?$pair@PAXUAllocationRecord@@@std@@QAE@AAPAXAAUAllocationRecord@@@Z 00460ad0 f i DeanLib:MemoryTracker.obj
 0002:0003cb60       ??$?0AAV?$_Tree_iterator@V?$_Tree_val@U?$_Tree_simple_types@U?$pair@QAXUAllocationRecord@@@std@@@std@@@std@@@std@@_NX$0A@@?$pair@V?$_Tree_iterator@V?$_Tree_val@U?$_Tree_simple_types@U?$pair@QAXUAllocationRecord@@@std@@@std@@@std@@@std@@_N@std@@QAE@AAV?$_Tree_iterator@V?$_Tree_val@U?$_Tree_simple_types@U?$pair@QAXUAllocationRecord@@@std@@@std@@@std@@@1@$$QA_N@Z 00460b60 f i DeanLib:MemoryTracker.obj
 0002:0003cbe0       ??$?0ABU?$less@PAX@std@@U_Zero_then_variadic_args_t@1@@?$_Compressed_pair@U?$less@PAX@std@@V?$_Compressed_pair@V?$allocator@U?$_Tree_node@U?$pair@QAXUAllocationRecord@@@std@@PAX@std@@@std@@V?$_Tree_val@U?$_Tree_simple_types@U?$pair@QAXUAllocationRecord@@@std@@@std@@@2@$00@2@$00@std@@QAE@U_One_then_variadic_args_t@1@ABU?$less@PAX@1@$$QAU_Zero_then_variadic_args_t@1@@Z 00460be0 f i DeanLib:MemoryTracker.obj
 0002:0003cc60       ??$?0PAXUAllocationRecord@@X$0A@@?$pair@QAXUAllocationRecord@@@std@@QAE@ABU?$pair@PAXUAllocationRecord@@@1@@Z 00460c60 f i DeanLib:MemoryTracker.obj
 0002:0003ccc0       ??$?0U?$_Tree_node@U?$pair@QAXUAllocationRecord@@@std@@PAX@std@@@?$allocator@U_Container_proxy@std@@@std@@QAE@ABV?$allocator@U?$_Tree_node@U?$pair@QAXUAllocationRecord@@@std@@PAX@std@@@1@@Z 00460cc0 f i DeanLib:MemoryTracker.obj
 0002:0003cd00       ??$?0V?$_Tree_iterator@V?$_Tree_val@U?$_Tree_simple_types@U?$pair@QAXUAllocationRecord@@@std@@@std@@@std@@@std@@_NX$0A@@?$pair@V?$_Tree_iterator@V?$_Tree_val@U?$_Tree_simple_types@U?$pair@QAXUAllocationRecord@@@std@@@std@@@std@@@std@@_N@std@@QAE@$$QAV?$_Tree_iterator@V?$_Tree_val@U?$_Tree_simple_types@U?$pair@QAXUAllocationRecord@@@std@@@std@@@std@@@1@$$QA_N@Z 00460d00 f i DeanLib:MemoryTracker.obj
 0002:0003cd80       ??$_Buynode@AAU?$pair@PAXUAllocationRecord@@@std@@@?$_Tree_comp_alloc@V?$_Tmap_traits@PAXUAllocationRecord@@U?$less@PAX@std@@V?$allocator@U?$pair@QAXUAllocationRecord@@@std@@@3@$0A@@std@@@std@@QAEPAU?$_Tree_node@U?$pair@QAXUAllocationRecord@@@std@@PAX@1@AAU?$pair@PAXUAllocationRecord@@@1@@Z 00460d80 f i DeanLib:MemoryTracker.obj
 0002:0003cea0       ??$_Buynode_if_nil@AAU?$pair@QAXUAllocationRecord@@@std@@@?$_Tree@V?$_Tmap_traits@PAXUAllocationRecord@@U?$less@PAX@std@@V?$allocator@U?$pair@QAXUAllocationRecord@@@std@@@3@$0A@@std@@@std@@IAEPAU?$_Tree_node@U?$pair@QAXUAllocationRecord@@@std@@PAX@1@PAU21@AAU?$pair@QAXUAllocationRecord@@@1@@Z 00460ea0 f i DeanLib:MemoryTracker.obj
 0002:0003cee0       ??$_Deallocate_plain@V?$allocator@U_Container_proxy@std@@@std@@$0A@@std@@YAXAAV?$allocator@U_Container_proxy@std@@@0@QAU_Container_proxy@0@@Z 00460ee0 f i DeanLib:MemoryTracker.obj
 0002:0003cf40       ??$_Debug_lt_pred@AAU?$less@PAX@std@@ABQAXABQAX@std@@YA_NAAU?$less@PAX@0@ABQAX1PB_WI@Z 00460f40 f i DeanLib:MemoryTracker.obj
 0002:0003d040       ??$_Debug_lt_pred@ABU?$less@PAX@std@@ABQAXABQAX@std@@YA_NABU?$less@PAX@0@ABQAX1PB_WI@Z 00461040 f i DeanLib:MemoryTracker.obj
 0002:0003d140       ??$_Insert_at@AAU?$pair@QAXUAllocationRecord@@@std@@PAU?$_Tree_node@U?$pair@QAXUAllocationRecord@@@std@@PAX@2@@?$_Tree@V?$_Tmap_traits@PAXUAllocationRecord@@U?$less@PAX@std@@V?$allocator@U?$pair@QAXUAllocationRecord@@@std@@@3@$0A@@std@@@std@@IAE?AV?$_Tree_iterator@V?$_Tree_val@U?$_Tree_simple_types@U?$pair@QAXUAllocationRecord@@@std@@@std@@@std@@@1@_NPAU?$_Tree_node@U?$pair@QAXUAllocationRecord@@@std@@PAX@1@AAU?$pair@QAXUAllocationRecord@@@1@1@Z 00461140 f i DeanLib:MemoryTracker.obj
 0002:0003d4e0       ??$_Insert_nohint@AAU?$pair@QAXUAllocationRecord@@@std@@PAU?$_Tree_node@U?$pair@QAXUAllocationRecord@@@std@@PAX@2@@?$_Tree@V?$_Tmap_traits@PAXUAllocationRecord@@U?$less@PAX@std@@V?$allocator@U?$pair@QAXUAllocationRecord@@@std@@@3@$0A@@std@@@std@@IAE?AU?$pair@V?$_Tree_iterator@V?$_Tree_val@U?$_Tree_simple_types@U?$pair@QAXUAllocationRecord@@@std@@@std@@@std@@@std@@_N@1@_NAAU?$pair@QAXUAllocationRecord@@@1@PAU?$_Tree_node@U?$pair@QAXUAllocationRecord@@@std@@PAX@1@@Z 004614e0 f i DeanLib:MemoryTracker.obj
 0002:0003db30       ??$_Kfn@QAXUAllocationRecord@@@?$_Tmap_traits@PAXUAllocationRecord@@U?$less@PAX@std@@V?$allocator@U?$pair@QAXUAllocationRecord@@@std@@@3@$0A@@std@@SAABQAXABU?$pair@QAXUAllocationRecord@@@1@@Z 00461b30 f i DeanLib:MemoryTracker.obj
 0002:0003db70       ??$_Lbound@PAX@?$_Tree@V?$_Tmap_traits@PAXUAllocationRecord@@U?$less@PAX@std@@V?$allocator@U?$pair@QAXUAllocationRecord@@@std@@@3@$0A@@std@@@std@@IBEPAU?$_Tree_node@U?$pair@QAXUAllocationRecord@@@std@@PAX@1@ABQAX@Z 00461b70 f i DeanLib:MemoryTracker.obj
 0002:0003dc40       ??$addressof@PAU?$_Tree_node@U?$pair@QAXUAllocationRecord@@@std@@PAX@std@@@std@@YAPAPAU?$_Tree_node@U?$pair@QAXUAllocationRecord@@@std@@PAX@0@AAPAU10@@Z 00461c40 f i DeanLib:MemoryTracker.obj
 0002:0003dc80       ??$addressof@U?$pair@QAXUAllocationRecord@@@std@@@std@@YAPAU?$pair@QAXUAllocationRecord@@@0@AAU10@@Z 00461c80 f i DeanLib:MemoryTracker.obj
 0002:0003dcc0       ??$addressof@V?$_Tree_val@U?$_Tree_simple_types@U?$pair@QAXUAllocationRecord@@@std@@@std@@@std@@@std@@YAPAV?$_Tree_val@U?$_Tree_simple_types@U?$pair@QAXUAllocationRecord@@@std@@@std@@@0@AAV10@@Z 00461cc0 f i DeanLib:MemoryTracker.obj
 0002:0003dd00       ??$construct@PAU?$_Tree_node@U?$pair@QAXUAllocationRecord@@@std@@PAX@std@@AAPAU12@@?$_Default_allocator_traits@V?$allocator@U?$_Tree_node@U?$pair@QAXUAllocationRecord@@@std@@PAX@std@@@std@@@std@@SAXAAV?$allocator@U?$_Tree_node@U?$pair@QAXUAllocationRecord@@@std@@PAX@std@@@1@QAPAU?$_Tree_node@U?$pair@QAXUAllocationRecord@@@std@@PAX@1@AAPAU31@@Z 00461d00 f i DeanLib:MemoryTracker.obj
 0002:0003dd80       ??$construct@U?$pair@QAXUAllocationRecord@@@std@@AAU?$pair@PAXUAllocationRecord@@@2@@?$_Default_allocator_traits@V?$allocator@U?$_Tree_node@U?$pair@QAXUAllocationRecord@@@std@@PAX@std@@@std@@@std@@SAXAAV?$allocator@U?$_Tree_node@U?$pair@QAXUAllocationRecord@@@std@@PAX@std@@@1@QAU?$pair@QAXUAllocationRecord@@@1@AAU?$pair@PAXUAllocationRecord@@@1@@Z 00461d80 f i DeanLib:MemoryTracker.obj
 0002:0003de50       ??$construct@U_Container_proxy@std@@U12@@?$_Default_allocator_traits@V?$allocator@U_Container_proxy@std@@@std@@@std@@SAXAAV?$allocator@U_Container_proxy@std@@@1@QAU_Container_proxy@1@$$QAU31@@Z 00461e50 f i DeanLib:MemoryTracker.obj
 0002:0003ded0       ??$destroy@PAU?$_Tree_node@U?$pair@QAXUAllocationRecord@@@std@@PAX@std@@@?$_Default_allocator_traits@V?$allocator@U?$_Tree_node@U?$pair@QAXUAllocationRecord@@@std@@PAX@std@@@std@@@std@@SAXAAV?$allocator@U?$_Tree_node@U?$pair@QAXUAllocationRecord@@@std@@PAX@std@@@1@QAPAU?$_Tree_node@U?$pair@QAXUAllocationRecord@@@std@@PAX@1@@Z 00461ed0 f i DeanLib:MemoryTracker.obj
 0002:0003df00       ??$destroy@U?$pair@QAXUAllocationRecord@@@std@@@?$_Default_allocator_traits@V?$allocator@U?$_Tree_node@U?$pair@QAXUAllocationRecord@@@std@@PAX@std@@@std@@@std@@SAXAAV?$allocator@U?$_Tree_node@U?$pair@QAXUAllocationRecord@@@std@@PAX@std@@@1@QAU?$pair@QAXUAllocationRecord@@@1@@Z 00461f00 f i DeanLib:MemoryTracker.obj
 0002:0003df30       ??$destroy@U_Container_proxy@std@@@?$_Default_allocator_traits@V?$allocator@U_Container_proxy@std@@@std@@@std@@SAXAAV?$allocator@U_Container_proxy@std@@@1@QAU_Container_proxy@1@@Z 00461f30 f i DeanLib:MemoryTracker.obj
 0002:0003df60       ??$emplace@AAU?$pair@PAXUAllocationRecord@@@std@@@?$_Tree@V?$_Tmap_traits@PAXUAllocationRecord@@U?$less@PAX@std@@V?$allocator@U?$pair@QAXUAllocationRecord@@@std@@@3@$0A@@std@@@std@@QAE?AU?$pair@V?$_Tree_iterator@V?$_Tree_val@U?$_Tree_simple_types@U?$pair@QAXUAllocationRecord@@@std@@@std@@@std@@@std@@_N@1@AAU?$pair@PAXUAllocationRecord@@@1@@Z 00461f60 f i DeanLib:MemoryTracker.obj
 0002:0003e010       ??$endl@DU?$char_traits@D@std@@@std@@YAAAV?$basic_ostream@DU?$char_traits@D@std@@@0@AAV10@@Z 00462010 f i DeanLib:MemoryTracker.obj
 0002:0003e0b0       ??$erase@V?$_Tree_iterator@V?$_Tree_val@U?$_Tree_simple_types@U?$pair@QAXUAllocationRecord@@@std@@@std@@@std@@@std@@X@?$_Tree@V?$_Tmap_traits@PAXUAllocationRecord@@U?$less@PAX@std@@V?$allocator@U?$pair@QAXUAllocationRecord@@@std@@@3@$0A@@std@@@std@@QAE?AV?$_Tree_iterator@V?$_Tree_val@U?$_Tree_simple_types@U?$pair@QAXUAllocationRecord@@@std@@@std@@@std@@@1@V21@@Z 004620b0 f i DeanLib:MemoryTracker.obj
 0002:0003e1a0       ??$forward@AAPAU?$_Tree_node@U?$pair@QAXUAllocationRecord@@@std@@PAX@std@@@std@@YAAAPAU?$_Tree_node@U?$pair@QAXUAllocationRecord@@@std@@PAX@0@AAPAU10@@Z 004621a0 f i DeanLib:MemoryTracker.obj
 0002:0003e1e0       ??$forward@AAPAX@std@@YAAAPAXAAPAX@Z 004621e0 f i DeanLib:MemoryTracker.obj
 0002:0003e220       ??$forward@AAU?$pair@PAXUAllocationRecord@@@std@@@std@@YAAAU?$pair@PAXUAllocationRecord@@@0@AAU10@@Z 00462220 f i DeanLib:MemoryTracker.obj
 0002:0003e260       ??$forward@AAU?$pair@QAXUAllocationRecord@@@std@@@std@@YAAAU?$pair@QAXUAllocationRecord@@@0@AAU10@@Z 00462260 f i DeanLib:MemoryTracker.obj
 0002:0003e2a0       ??$forward@AAUAllocationRecord@@@std@@YAAAUAllocationRecord@@AAU1@@Z 004622a0 f i DeanLib:MemoryTracker.obj
 0002:0003e2e0       ??$forward@AAV?$_Tree_iterator@V?$_Tree_val@U?$_Tree_simple_types@U?$pair@QAXUAllocationRecord@@@std@@@std@@@std@@@std@@@std@@YAAAV?$_Tree_iterator@V?$_Tree_val@U?$_Tree_simple_types@U?$pair@QAXUAllocationRecord@@@std@@@std@@@std@@@0@AAV10@@Z 004622e0 f i DeanLib:MemoryTracker.obj
 0002:0003e320       ??$forward@ABU?$less@PAX@std@@@std@@YAABU?$less@PAX@0@ABU10@@Z 00462320 f i DeanLib:MemoryTracker.obj
 0002:0003e360       ??$forward@V?$_Tree_iterator@V?$_Tree_val@U?$_Tree_simple_types@U?$pair@QAXUAllocationRecord@@@std@@@std@@@std@@@std@@@std@@YA$$QAV?$_Tree_iterator@V?$_Tree_val@U?$_Tree_simple_types@U?$pair@QAXUAllocationRecord@@@std@@@std@@@std@@@0@AAV10@@Z 00462360 f i DeanLib:MemoryTracker.obj
 0002:0003e3a0       ??$insert@AAU?$pair@PAXUAllocationRecord@@@std@@X@?$map@PAXUAllocationRecord@@U?$less@PAX@std@@V?$allocator@U?$pair@QAXUAllocationRecord@@@std@@@3@@std@@QAE?AU?$pair@V?$_Tree_iterator@V?$_Tree_val@U?$_Tree_simple_types@U?$pair@QAXUAllocationRecord@@@std@@@std@@@std@@@std@@_N@1@AAU?$pair@PAXUAllocationRecord@@@1@@Z 004623a0 f i DeanLib:MemoryTracker.obj
 0002:0003e430       ??0?$_Tree@V?$_Tmap_traits@PAXUAllocationRecord@@U?$less@PAX@std@@V?$allocator@U?$pair@QAXUAllocationRecord@@@std@@@3@$0A@@std@@@std@@QAE@ABU?$less@PAX@1@@Z 00462430 f i DeanLib:MemoryTracker.obj
 0002:0003e490       ??0?$_Tree_comp_alloc@V?$_Tmap_traits@PAXUAllocationRecord@@U?$less@PAX@std@@V?$allocator@U?$pair@QAXUAllocationRecord@@@std@@@3@$0A@@std@@@std@@QAE@ABU?$less@PAX@1@@Z 00462490 f i DeanLib:MemoryTracker.obj
 0002:0003e550       ??0?$_Tree_const_iterator@V?$_Tree_val@U?$_Tree_simple_types@U?$pair@QAXUAllocationRecord@@@std@@@std@@@std@@@std@@QAE@$$QAV01@@Z 00462550 f i DeanLib:MemoryTracker.obj
 0002:0003e5b0       ??0?$_Tree_const_iterator@V?$_Tree_val@U?$_Tree_simple_types@U?$pair@QAXUAllocationRecord@@@std@@@std@@@std@@@std@@QAE@ABV01@@Z 004625b0 f i DeanLib:MemoryTracker.obj
 0002:0003e610       ??0?$_Tree_const_iterator@V?$_Tree_val@U?$_Tree_simple_types@U?$pair@QAXUAllocationRecord@@@std@@@std@@@std@@@std@@QAE@PAU?$_Tree_node@U?$pair@QAXUAllocationRecord@@@std@@PAX@1@PBV?$_Tree_val@U?$_Tree_simple_types@U?$pair@QAXUAllocationRecord@@@std@@@std@@@1@@Z 00462610 f i DeanLib:MemoryTracker.obj
 0002:0003e670       ??0?$_Tree_const_iterator@V?$_Tree_val@U?$_Tree_simple_types@U?$pair@QAXUAllocationRecord@@@std@@@std@@@std@@@std@@QAE@XZ 00462670 f i DeanLib:MemoryTracker.obj
 0002:0003e6d0       ??0?$_Tree_iterator@V?$_Tree_val@U?$_Tree_simple_types@U?$pair@QAXUAllocationRecord@@@std@@@std@@@std@@@std@@QAE@$$QAV01@@Z 004626d0 f i DeanLib:MemoryTracker.obj
 0002:0003e730       ??0?$_Tree_iterator@V?$_Tree_val@U?$_Tree_simple_types@U?$pair@QAXUAllocationRecord@@@std@@@std@@@std@@@std@@QAE@ABV01@@Z 00462730 f i DeanLib:MemoryTracker.obj
 0002:0003e790       ??0?$_Tree_iterator@V?$_Tree_val@U?$_Tree_simple_types@U?$pair@QAXUAllocationRecord@@@std@@@std@@@std@@@std@@QAE@PAU?$_Tree_node@U?$pair@QAXUAllocationRecord@@@std@@PAX@1@PBV?$_Tree_val@U?$_Tree_simple_types@U?$pair@QAXUAllocationRecord@@@std@@@std@@@1@@Z 00462790 f i DeanLib:MemoryTracker.obj
 0002:0003e7f0       ??0?$_Tree_iterator@V?$_Tree_val@U?$_Tree_simple_types@U?$pair@QAXUAllocationRecord@@@std@@@std@@@std@@@std@@QAE@XZ 004627f0 f i DeanLib:MemoryTracker.obj
 0002:0003e850       ??0?$_Tree_unchecked_const_iterator@V?$_Tree_val@U?$_Tree_simple_types@U?$pair@QAXUAllocationRecord@@@std@@@std@@@std@@U_Iterator_base12@2@@std@@QAE@$$QAV01@@Z 00462850 f i DeanLib:MemoryTracker.obj
 0002:0003e8c0       ??0?$_Tree_unchecked_const_iterator@V?$_Tree_val@U?$_Tree_simple_types@U?$pair@QAXUAllocationRecord@@@std@@@std@@@std@@U_Iterator_base12@2@@std@@QAE@ABV01@@Z 004628c0 f i DeanLib:MemoryTracker.obj
 0002:0003e930       ??0?$_Tree_unchecked_const_iterator@V?$_Tree_val@U?$_Tree_simple_types@U?$pair@QAXUAllocationRecord@@@std@@@std@@@std@@U_Iterator_base12@2@@std@@QAE@PAU?$_Tree_node@U?$pair@QAXUAllocationRecord@@@std@@PAX@1@PBV?$_Tree_val@U?$_Tree_simple_types@U?$pair@QAXUAllocationRecord@@@std@@@std@@@1@@Z 00462930 f i DeanLib:MemoryTracker.obj
 0002:0003e9a0       ??0?$_Tree_unchecked_const_iterator@V?$_Tree_val@U?$_Tree_simple_types@U?$pair@QAXUAllocationRecord@@@std@@@std@@@std@@U_Iterator_base12@2@@std@@QAE@XZ 004629a0 f i DeanLib:MemoryTracker.obj
 0002:0003ea00       ??0?$_Tree_val@U?$_Tree_simple_types@U?$pair@QAXUAllocationRecord@@@std@@@std@@@std@@QAE@XZ 00462a00 f i DeanLib:MemoryTracker.obj
 0002:0003ea70       ??0?$allocator@U?$_Tree_node@U?$pair@QAXUAllocationRecord@@@std@@PAX@std@@@std@@QAE@XZ 00462a70 f i DeanLib:MemoryTracker.obj
 0002:0003eab0       ??0?$map@PAXUAllocationRecord@@U?$less@PAX@std@@V?$allocator@U?$pair@QAXUAllocationRecord@@@std@@@3@@std@@QAE@XZ 00462ab0 f i DeanLib:MemoryTracker.obj
 0002:0003eb10       ??0AllocationRecord@@QAE@HI@Z 00462b10 f i DeanLib:MemoryTracker.obj
 0002:0003eb60       ??0MemoryTracker@@QAE@XZ   00462b60 f   DeanLib:MemoryTracker.obj
 0002:0003ebc0       ??1?$_Compressed_pair@U?$less@PAX@std@@V?$_Compressed_pair@V?$allocator@U?$_Tree_node@U?$pair@QAXUAllocationRecord@@@std@@PAX@std@@@std@@V?$_Tree_val@U?$_Tree_simple_types@U?$pair@QAXUAllocationRecord@@@std@@@std@@@2@$00@2@$00@std@@QAE@XZ 00462bc0 f i DeanLib:MemoryTracker.obj
 0002:0003ec10       ??1?$_Compressed_pair@V?$allocator@U?$_Tree_node@U?$pair@QAXUAllocationRecord@@@std@@PAX@std@@@std@@V?$_Tree_val@U?$_Tree_simple_types@U?$pair@QAXUAllocationRecord@@@std@@@std@@@2@$00@std@@QAE@XZ 00462c10 f i DeanLib:MemoryTracker.obj
 0002:0003ec60       ??1?$_Tree@V?$_Tmap_traits@PAXUAllocationRecord@@U?$less@PAX@std@@V?$allocator@U?$pair@QAXUAllocationRecord@@@std@@@3@$0A@@std@@@std@@QAE@XZ 00462c60 f i DeanLib:MemoryTracker.obj
 0002:0003ecf0       ??1?$_Tree_comp_alloc@V?$_Tmap_traits@PAXUAllocationRecord@@U?$less@PAX@std@@V?$allocator@U?$pair@QAXUAllocationRecord@@@std@@@3@$0A@@std@@@std@@QAE@XZ 00462cf0 f i DeanLib:MemoryTracker.obj
 0002:0003eda0       ??1?$_Tree_const_iterator@V?$_Tree_val@U?$_Tree_simple_types@U?$pair@QAXUAllocationRecord@@@std@@@std@@@std@@@std@@QAE@XZ 00462da0 f i DeanLib:MemoryTracker.obj
 0002:0003edf0       ??1?$_Tree_iterator@V?$_Tree_val@U?$_Tree_simple_types@U?$pair@QAXUAllocationRecord@@@std@@@std@@@std@@@std@@QAE@XZ 00462df0 f i DeanLib:MemoryTracker.obj
 0002:0003ee40       ??1?$_Tree_unchecked_const_iterator@V?$_Tree_val@U?$_Tree_simple_types@U?$pair@QAXUAllocationRecord@@@std@@@std@@@std@@U_Iterator_base12@2@@std@@QAE@XZ 00462e40 f i DeanLib:MemoryTracker.obj
 0002:0003ee90       ??1?$_Tree_val@U?$_Tree_simple_types@U?$pair@QAXUAllocationRecord@@@std@@@std@@@std@@QAE@XZ 00462e90 f i DeanLib:MemoryTracker.obj
 0002:0003eee0       ??1?$map@PAXUAllocationRecord@@U?$less@PAX@std@@V?$allocator@U?$pair@QAXUAllocationRecord@@@std@@@3@@std@@QAE@XZ 00462ee0 f i DeanLib:MemoryTracker.obj
 0002:0003ef30       ??1?$pair@V?$_Tree_iterator@V?$_Tree_val@U?$_Tree_simple_types@U?$pair@QAXUAllocationRecord@@@std@@@std@@@std@@@std@@_N@std@@QAE@XZ 00462f30 f i DeanLib:MemoryTracker.obj
 0002:0003ef80       ??1MemoryTracker@@QAE@XZ   00462f80 f   DeanLib:MemoryTracker.obj
 0002:0003f030       ??4?$_Tree_const_iterator@V?$_Tree_val@U?$_Tree_simple_types@U?$pair@QAXUAllocationRecord@@@std@@@std@@@std@@@std@@QAEAAV01@$$QAV01@@Z 00463030 f i DeanLib:MemoryTracker.obj
 0002:0003f090       ??4?$_Tree_iterator@V?$_Tree_val@U?$_Tree_simple_types@U?$pair@QAXUAllocationRecord@@@std@@@std@@@std@@@std@@QAEAAV01@$$QAV01@@Z 00463090 f i DeanLib:MemoryTracker.obj
 0002:0003f0f0       ??4?$_Tree_unchecked_const_iterator@V?$_Tree_val@U?$_Tree_simple_types@U?$pair@QAXUAllocationRecord@@@std@@@std@@@std@@U_Iterator_base12@2@@std@@QAEAAV01@$$QAV01@@Z 004630f0 f i DeanLib:MemoryTracker.obj
 0002:0003f160       ??8?$_Tree_const_iterator@V?$_Tree_val@U?$_Tree_simple_types@U?$pair@QAXUAllocationRecord@@@std@@@std@@@std@@@std@@QBE_NABV01@@Z 00463160 f i DeanLib:MemoryTracker.obj
 0002:0003f250       ??9?$_Tree_const_iterator@V?$_Tree_val@U?$_Tree_simple_types@U?$pair@QAXUAllocationRecord@@@std@@@std@@@std@@@std@@QBE_NABV01@@Z 00463250 f i DeanLib:MemoryTracker.obj
 0002:0003f2e0       ??C?$_Tree_iterator@V?$_Tree_val@U?$_Tree_simple_types@U?$pair@QAXUAllocationRecord@@@std@@@std@@@std@@@std@@QBEPAU?$pair@QAXUAllocationRecord@@@1@XZ 004632e0 f i DeanLib:MemoryTracker.obj
 0002:0003f340       ??D?$_Tree_const_iterator@V?$_Tree_val@U?$_Tree_simple_types@U?$pair@QAXUAllocationRecord@@@std@@@std@@@std@@@std@@QBEABU?$pair@QAXUAllocationRecord@@@1@XZ 00463340 f i DeanLib:MemoryTracker.obj
 0002:0003f410       ??D?$_Tree_iterator@V?$_Tree_val@U?$_Tree_simple_types@U?$pair@QAXUAllocationRecord@@@std@@@std@@@std@@@std@@QBEAAU?$pair@QAXUAllocationRecord@@@1@XZ 00463410 f i DeanLib:MemoryTracker.obj
 0002:0003f460       ??E?$_Tree_const_iterator@V?$_Tree_val@U?$_Tree_simple_types@U?$pair@QAXUAllocationRecord@@@std@@@std@@@std@@@std@@QAE?AV01@H@Z 00463460 f i DeanLib:MemoryTracker.obj
 0002:0003f5a0       ??E?$_Tree_const_iterator@V?$_Tree_val@U?$_Tree_simple_types@U?$pair@QAXUAllocationRecord@@@std@@@std@@@std@@@std@@QAEAAV01@XZ 004635a0 f i DeanLib:MemoryTracker.obj
 0002:0003f670       ??E?$_Tree_iterator@V?$_Tree_val@U?$_Tree_simple_types@U?$pair@QAXUAllocationRecord@@@std@@@std@@@std@@@std@@QAEAAV01@XZ 00463670 f i DeanLib:MemoryTracker.obj
 0002:0003f6d0       ??E?$_Tree_unchecked_const_iterator@V?$_Tree_val@U?$_Tree_simple_types@U?$pair@QAXUAllocationRecord@@@std@@@std@@@std@@U_Iterator_base12@2@@std@@QAEAAV01@XZ 004636d0 f i DeanLib:MemoryTracker.obj
 0002:0003f7b0       ??F?$_Tree_const_iterator@V?$_Tree_val@U?$_Tree_simple_types@U?$pair@QAXUAllocationRecord@@@std@@@std@@@std@@@std@@QAEAAV01@XZ 004637b0 f i DeanLib:MemoryTracker.obj
 0002:0003f8e0       ??F?$_Tree_iterator@V?$_Tree_val@U?$_Tree_simple_types@U?$pair@QAXUAllocationRecord@@@std@@@std@@@std@@@std@@QAEAAV01@XZ 004638e0 f i DeanLib:MemoryTracker.obj
 0002:0003f940       ??F?$_Tree_unchecked_const_iterator@V?$_Tree_val@U?$_Tree_simple_types@U?$pair@QAXUAllocationRecord@@@std@@@std@@@std@@U_Iterator_base12@2@@std@@QAEAAV01@XZ 00463940 f i DeanLib:MemoryTracker.obj
 0002:0003fa40       ??R?$less@PAX@std@@QBE_NABQAX0@Z 00463a40 f i DeanLib:MemoryTracker.obj
 0002:0003fab0       ?_Alloc_proxy@?$_Tree_comp_alloc@V?$_Tmap_traits@PAXUAllocationRecord@@U?$less@PAX@std@@V?$allocator@U?$pair@QAXUAllocationRecord@@@std@@@3@$0A@@std@@@std@@QAEXXZ 00463ab0 f i DeanLib:MemoryTracker.obj
 0002:0003fbf0       ?_Buyheadnode@?$_Tree_comp_alloc@V?$_Tmap_traits@PAXUAllocationRecord@@U?$less@PAX@std@@V?$allocator@U?$pair@QAXUAllocationRecord@@@std@@@3@$0A@@std@@@std@@QAEPAU?$_Tree_node@U?$pair@QAXUAllocationRecord@@@std@@PAX@2@XZ 00463bf0 f i DeanLib:MemoryTracker.obj
 0002:0003fdb0       ?_Buynode0@?$_Tree_comp_alloc@V?$_Tmap_traits@PAXUAllocationRecord@@U?$less@PAX@std@@V?$allocator@U?$pair@QAXUAllocationRecord@@@std@@@3@$0A@@std@@@std@@QAEPAU?$_Tree_node@U?$pair@QAXUAllocationRecord@@@std@@PAX@2@XZ 00463db0 f i DeanLib:MemoryTracker.obj
 0002:0003ff20       ?_Compare@?$_Tree@V?$_Tmap_traits@PAXUAllocationRecord@@U?$less@PAX@std@@V?$allocator@U?$pair@QAXUAllocationRecord@@@std@@@3@$0A@@std@@@std@@IBE_NABQAX0@Z 00463f20 f i DeanLib:MemoryTracker.obj
 0002:0003ffa0       ?_Construct@?$_Tree_comp_alloc@V?$_Tmap_traits@PAXUAllocationRecord@@U?$less@PAX@std@@V?$allocator@U?$pair@QAXUAllocationRecord@@@std@@@3@$0A@@std@@@std@@QAEXXZ 00463fa0 f i DeanLib:MemoryTracker.obj
 0002:00040090       ?_Destroy_if_not_nil@?$_Tree@V?$_Tmap_traits@PAXUAllocationRecord@@U?$less@PAX@std@@V?$allocator@U?$pair@QAXUAllocationRecord@@@std@@@3@$0A@@std@@@std@@IAEXPAU?$_Tree_node@U?$pair@QAXUAllocationRecord@@@std@@PAX@2@@Z 00464090 f i DeanLib:MemoryTracker.obj
 0002:00040120       ?_Erase@?$_Tree@V?$_Tmap_traits@PAXUAllocationRecord@@U?$less@PAX@std@@V?$allocator@U?$pair@QAXUAllocationRecord@@@std@@@3@$0A@@std@@@std@@IAEXPAU?$_Tree_node@U?$pair@QAXUAllocationRecord@@@std@@PAX@2@@Z 00464120 f i DeanLib:MemoryTracker.obj
 0002:000401f0       ?_Free_proxy@?$_Tree_comp_alloc@V?$_Tmap_traits@PAXUAllocationRecord@@U?$less@PAX@std@@V?$allocator@U?$pair@QAXUAllocationRecord@@@std@@@3@$0A@@std@@@std@@QAEXXZ 004641f0 f i DeanLib:MemoryTracker.obj
 0002:00040300       ?_Freeheadnode@?$_Tree_comp_alloc@V?$_Tmap_traits@PAXUAllocationRecord@@U?$less@PAX@std@@V?$allocator@U?$pair@QAXUAllocationRecord@@@std@@@3@$0A@@std@@@std@@QAEXPAU?$_Tree_node@U?$pair@QAXUAllocationRecord@@@std@@PAX@2@@Z 00464300 f i DeanLib:MemoryTracker.obj
 0002:000403d0       ?_Freenode0@?$_Tree_comp_alloc@V?$_Tmap_traits@PAXUAllocationRecord@@U?$less@PAX@std@@V?$allocator@U?$pair@QAXUAllocationRecord@@@std@@@3@$0A@@std@@@std@@QAEXPAU?$_Tree_node@U?$pair@QAXUAllocationRecord@@@std@@PAX@2@@Z 004643d0 f i DeanLib:MemoryTracker.obj
 0002:000404a0       ?_Get_data@?$_Tree_comp_alloc@V?$_Tmap_traits@PAXUAllocationRecord@@U?$less@PAX@std@@V?$allocator@U?$pair@QAXUAllocationRecord@@@std@@@3@$0A@@std@@@std@@QAEAAV?$_Tree_val@U?$_Tree_simple_types@U?$pair@QAXUAllocationRecord@@@std@@@std@@@2@XZ 004644a0 f i DeanLib:MemoryTracker.obj
 0002:00040500       ?_Get_data@?$_Tree_comp_alloc@V?$_Tmap_traits@PAXUAllocationRecord@@U?$less@PAX@std@@V?$allocator@U?$pair@QAXUAllocationRecord@@@std@@@3@$0A@@std@@@std@@QBEABV?$_Tree_val@U?$_Tree_simple_types@U?$pair@QAXUAllocationRecord@@@std@@@std@@@2@XZ 00464500 f i DeanLib:MemoryTracker.obj
 0002:00040560       ?_Get_first@?$_Compressed_pair@U?$less@PAX@std@@V?$_Compressed_pair@V?$allocator@U?$_Tree_node@U?$pair@QAXUAllocationRecord@@@std@@PAX@std@@@std@@V?$_Tree_val@U?$_Tree_simple_types@U?$pair@QAXUAllocationRecord@@@std@@@std@@@2@$00@2@$00@std@@QAEAAU?$less@PAX@2@XZ 00464560 f i DeanLib:MemoryTracker.obj
 0002:000405a0       ?_Get_first@?$_Compressed_pair@U?$less@PAX@std@@V?$_Compressed_pair@V?$allocator@U?$_Tree_node@U?$pair@QAXUAllocationRecord@@@std@@PAX@std@@@std@@V?$_Tree_val@U?$_Tree_simple_types@U?$pair@QAXUAllocationRecord@@@std@@@std@@@2@$00@2@$00@std@@QBEABU?$less@PAX@2@XZ 004645a0 f i DeanLib:MemoryTracker.obj
 0002:000405e0       ?_Get_first@?$_Compressed_pair@V?$allocator@U?$_Tree_node@U?$pair@QAXUAllocationRecord@@@std@@PAX@std@@@std@@V?$_Tree_val@U?$_Tree_simple_types@U?$pair@QAXUAllocationRecord@@@std@@@std@@@2@$00@std@@QAEAAV?$allocator@U?$_Tree_node@U?$pair@QAXUAllocationRecord@@@std@@PAX@std@@@2@XZ 004645e0 f i DeanLib:MemoryTracker.obj
 0002:00040620       ?_Get_first@?$_Compressed_pair@V?$allocator@U?$_Tree_node@U?$pair@QAXUAllocationRecord@@@std@@PAX@std@@@std@@V?$_Tree_val@U?$_Tree_simple_types@U?$pair@QAXUAllocationRecord@@@std@@@std@@@2@$00@std@@QBEABV?$allocator@U?$_Tree_node@U?$pair@QAXUAllocationRecord@@@std@@PAX@std@@@2@XZ 00464620 f i DeanLib:MemoryTracker.obj
 0002:00040660       ?_Get_second@?$_Compressed_pair@U?$less@PAX@std@@V?$_Compressed_pair@V?$allocator@U?$_Tree_node@U?$pair@QAXUAllocationRecord@@@std@@PAX@std@@@std@@V?$_Tree_val@U?$_Tree_simple_types@U?$pair@QAXUAllocationRecord@@@std@@@std@@@2@$00@2@$00@std@@QAEAAV?$_Compressed_pair@V?$allocator@U?$_Tree_node@U?$pair@QAXUAllocationRecord@@@std@@PAX@std@@@std@@V?$_Tree_val@U?$_Tree_simple_types@U?$pair@QAXUAllocationRecord@@@std@@@std@@@2@$00@2@XZ 00464660 f i DeanLib:MemoryTracker.obj
 0002:000406a0       ?_Get_second@?$_Compressed_pair@U?$less@PAX@std@@V?$_Compressed_pair@V?$allocator@U?$_Tree_node@U?$pair@QAXUAllocationRecord@@@std@@PAX@std@@@std@@V?$_Tree_val@U?$_Tree_simple_types@U?$pair@QAXUAllocationRecord@@@std@@@std@@@2@$00@2@$00@std@@QBEABV?$_Compressed_pair@V?$allocator@U?$_Tree_node@U?$pair@QAXUAllocationRecord@@@std@@PAX@std@@@std@@V?$_Tree_val@U?$_Tree_simple_types@U?$pair@QAXUAllocationRecord@@@std@@@std@@@2@$00@2@XZ 004646a0 f i DeanLib:MemoryTracker.obj
 0002:000406e0       ?_Get_second@?$_Compressed_pair@V?$allocator@U?$_Tree_node@U?$pair@QAXUAllocationRecord@@@std@@PAX@std@@@std@@V?$_Tree_val@U?$_Tree_simple_types@U?$pair@QAXUAllocationRecord@@@std@@@std@@@2@$00@std@@QAEAAV?$_Tree_val@U?$_Tree_simple_types@U?$pair@QAXUAllocationRecord@@@std@@@std@@@2@XZ 004646e0 f i DeanLib:MemoryTracker.obj
 0002:00040720       ?_Get_second@?$_Compressed_pair@V?$allocator@U?$_Tree_node@U?$pair@QAXUAllocationRecord@@@std@@PAX@std@@@std@@V?$_Tree_val@U?$_Tree_simple_types@U?$pair@QAXUAllocationRecord@@@std@@@std@@@2@$00@std@@QBEABV?$_Tree_val@U?$_Tree_simple_types@U?$pair@QAXUAllocationRecord@@@std@@@std@@@2@XZ 00464720 f i DeanLib:MemoryTracker.obj
 0002:00040760       ?_Getal@?$_Tree_comp_alloc@V?$_Tmap_traits@PAXUAllocationRecord@@U?$less@PAX@std@@V?$allocator@U?$pair@QAXUAllocationRecord@@@std@@@3@$0A@@std@@@std@@QAEAAV?$allocator@U?$_Tree_node@U?$pair@QAXUAllocationRecord@@@std@@PAX@std@@@2@XZ 00464760 f i DeanLib:MemoryTracker.obj
 0002:000407c0       ?_Getal@?$_Tree_comp_alloc@V?$_Tmap_traits@PAXUAllocationRecord@@U?$less@PAX@std@@V?$allocator@U?$pair@QAXUAllocationRecord@@@std@@@3@$0A@@std@@@std@@QBEABV?$allocator@U?$_Tree_node@U?$pair@QAXUAllocationRecord@@@std@@PAX@std@@@2@XZ 004647c0 f i DeanLib:MemoryTracker.obj
 0002:00040820       ?_Getcomp@?$_Tree_comp_alloc@V?$_Tmap_traits@PAXUAllocationRecord@@U?$less@PAX@std@@V?$allocator@U?$pair@QAXUAllocationRecord@@@std@@@3@$0A@@std@@@std@@QAEAAU?$less@PAX@2@XZ 00464820 f i DeanLib:MemoryTracker.obj
 0002:00040870       ?_Getcomp@?$_Tree_comp_alloc@V?$_Tmap_traits@PAXUAllocationRecord@@U?$less@PAX@std@@V?$allocator@U?$pair@QAXUAllocationRecord@@@std@@@3@$0A@@std@@@std@@QBEABU?$less@PAX@2@XZ 00464870 f i DeanLib:MemoryTracker.obj
 0002:000408c0       ?_Getpfirst@?$_Tree_comp_alloc@V?$_Tmap_traits@PAXUAllocationRecord@@U?$less@PAX@std@@V?$allocator@U?$pair@QAXUAllocationRecord@@@std@@@3@$0A@@std@@@std@@QBEPAPAU_Iterator_base12@2@XZ 004648c0 f i DeanLib:MemoryTracker.obj
 0002:00040920       ?_Key@?$_Tree@V?$_Tmap_traits@PAXUAllocationRecord@@U?$less@PAX@std@@V?$allocator@U?$pair@QAXUAllocationRecord@@@std@@@3@$0A@@std@@@std@@IBEABQAXPAU?$_Tree_node@U?$pair@QAXUAllocationRecord@@@std@@PAX@2@@Z 00464920 f i DeanLib:MemoryTracker.obj
 0002:00040980       ?_Kfn@?$_Tree@V?$_Tmap_traits@PAXUAllocationRecord@@U?$less@PAX@std@@V?$allocator@U?$pair@QAXUAllocationRecord@@@std@@@3@$0A@@std@@@std@@IBEABQAXABU?$pair@QAXUAllocationRecord@@@2@@Z 00464980 f i DeanLib:MemoryTracker.obj
 0002:000409e0       ?_Lmost@?$_Tree@V?$_Tmap_traits@PAXUAllocationRecord@@U?$less@PAX@std@@V?$allocator@U?$pair@QAXUAllocationRecord@@@std@@@3@$0A@@std@@@std@@IBEAAPAU?$_Tree_node@U?$pair@QAXUAllocationRecord@@@std@@PAX@2@XZ 004649e0 f i DeanLib:MemoryTracker.obj
 0002:00040a40       ?_Lrotate@?$_Tree@V?$_Tmap_traits@PAXUAllocationRecord@@U?$less@PAX@std@@V?$allocator@U?$pair@QAXUAllocationRecord@@@std@@@3@$0A@@std@@@std@@IAEXPAU?$_Tree_node@U?$pair@QAXUAllocationRecord@@@std@@PAX@2@@Z 00464a40 f i DeanLib:MemoryTracker.obj
 0002:00040b40       ?_Max@?$_Tree_comp_alloc@V?$_Tmap_traits@PAXUAllocationRecord@@U?$less@PAX@std@@V?$allocator@U?$pair@QAXUAllocationRecord@@@std@@@3@$0A@@std@@@std@@SAPAU?$_Tree_node@U?$pair@QAXUAllocationRecord@@@std@@PAX@2@PAU32@@Z 00464b40 f i DeanLib:MemoryTracker.obj
 0002:00040b90       ?_Max@?$_Tree_val@U?$_Tree_simple_types@U?$pair@QAXUAllocationRecord@@@std@@@std@@@std@@SAPAU?$_Tree_node@U?$pair@QAXUAllocationRecord@@@std@@PAX@2@PAU32@@Z 00464b90 f i DeanLib:MemoryTracker.obj
 0002:00040bf0       ?_Min@?$_Tree_comp_alloc@V?$_Tmap_traits@PAXUAllocationRecord@@U?$less@PAX@std@@V?$allocator@U?$pair@QAXUAllocationRecord@@@std@@@3@$0A@@std@@@std@@SAPAU?$_Tree_node@U?$pair@QAXUAllocationRecord@@@std@@PAX@2@PAU32@@Z 00464bf0 f i DeanLib:MemoryTracker.obj
 0002:00040c40       ?_Min@?$_Tree_val@U?$_Tree_simple_types@U?$pair@QAXUAllocationRecord@@@std@@@std@@@std@@SAPAU?$_Tree_node@U?$pair@QAXUAllocationRecord@@@std@@PAX@2@PAU32@@Z 00464c40 f i DeanLib:MemoryTracker.obj
 0002:00040c90       ?_Myhead@?$_Tree_comp_alloc@V?$_Tmap_traits@PAXUAllocationRecord@@U?$less@PAX@std@@V?$allocator@U?$pair@QAXUAllocationRecord@@@std@@@3@$0A@@std@@@std@@QAEAAPAU?$_Tree_node@U?$pair@QAXUAllocationRecord@@@std@@PAX@2@XZ 00464c90 f i DeanLib:MemoryTracker.obj
 0002:00040cf0       ?_Myhead@?$_Tree_comp_alloc@V?$_Tmap_traits@PAXUAllocationRecord@@U?$less@PAX@std@@V?$allocator@U?$pair@QAXUAllocationRecord@@@std@@@3@$0A@@std@@@std@@QBEABQAU?$_Tree_node@U?$pair@QAXUAllocationRecord@@@std@@PAX@2@XZ 00464cf0 f i DeanLib:MemoryTracker.obj
 0002:00040d50       ?_Mynode@?$_Tree_unchecked_const_iterator@V?$_Tree_val@U?$_Tree_simple_types@U?$pair@QAXUAllocationRecord@@@std@@@std@@@std@@U_Iterator_base12@2@@std@@QBEPAU?$_Tree_node@U?$pair@QAXUAllocationRecord@@@std@@PAX@2@XZ 00464d50 f i DeanLib:MemoryTracker.obj
 0002:00040d90       ?_Myproxy@?$_Tree_comp_alloc@V?$_Tmap_traits@PAXUAllocationRecord@@U?$less@PAX@std@@V?$allocator@U?$pair@QAXUAllocationRecord@@@std@@@3@$0A@@std@@@std@@QAEAAPAU_Container_proxy@2@XZ 00464d90 f i DeanLib:MemoryTracker.obj
 0002:00040de0       ?_Mysize@?$_Tree_comp_alloc@V?$_Tmap_traits@PAXUAllocationRecord@@U?$less@PAX@std@@V?$allocator@U?$pair@QAXUAllocationRecord@@@std@@@3@$0A@@std@@@std@@QAEAAIXZ 00464de0 f i DeanLib:MemoryTracker.obj
 0002:00040e40       ?_Orphan_all@?$_Tree_comp_alloc@V?$_Tmap_traits@PAXUAllocationRecord@@U?$less@PAX@std@@V?$allocator@U?$pair@QAXUAllocationRecord@@@std@@@3@$0A@@std@@@std@@QAEXXZ 00464e40 f i DeanLib:MemoryTracker.obj
 0002:00040ea0       ?_Orphan_ptr@?$_Tree@V?$_Tmap_traits@PAXUAllocationRecord@@U?$less@PAX@std@@V?$allocator@U?$pair@QAXUAllocationRecord@@@std@@@3@$0A@@std@@@std@@IAEXPAU?$_Tree_node@U?$pair@QAXUAllocationRecord@@@std@@PAX@2@@Z 00464ea0 f i DeanLib:MemoryTracker.obj
 0002:00041030       ?_Rmost@?$_Tree@V?$_Tmap_traits@PAXUAllocationRecord@@U?$less@PAX@std@@V?$allocator@U?$pair@QAXUAllocationRecord@@@std@@@3@$0A@@std@@@std@@IBEAAPAU?$_Tree_node@U?$pair@QAXUAllocationRecord@@@std@@PAX@2@XZ 00465030 f i DeanLib:MemoryTracker.obj
 0002:00041090       ?_Root@?$_Tree@V?$_Tmap_traits@PAXUAllocationRecord@@U?$less@PAX@std@@V?$allocator@U?$pair@QAXUAllocationRecord@@@std@@@3@$0A@@std@@@std@@IBEAAPAU?$_Tree_node@U?$pair@QAXUAllocationRecord@@@std@@PAX@2@XZ 00465090 f i DeanLib:MemoryTracker.obj
 0002:000410f0       ?_Rrotate@?$_Tree@V?$_Tmap_traits@PAXUAllocationRecord@@U?$less@PAX@std@@V?$allocator@U?$pair@QAXUAllocationRecord@@@std@@@3@$0A@@std@@@std@@IAEXPAU?$_Tree_node@U?$pair@QAXUAllocationRecord@@@std@@PAX@2@@Z 004650f0 f i DeanLib:MemoryTracker.obj
 0002:000411f0       ?_Tidy@?$_Tree@V?$_Tmap_traits@PAXUAllocationRecord@@U?$less@PAX@std@@V?$allocator@U?$pair@QAXUAllocationRecord@@@std@@@3@$0A@@std@@@std@@IAEXXZ 004651f0 f i DeanLib:MemoryTracker.obj
 0002:00041360       ?__autoclassinit2@?$_Tree_const_iterator@V?$_Tree_val@U?$_Tree_simple_types@U?$pair@QAXUAllocationRecord@@@std@@@std@@@std@@@std@@QAEXI@Z 00465360 f i DeanLib:MemoryTracker.obj
 0002:000413c0       ?__autoclassinit2@?$_Tree_iterator@V?$_Tree_val@U?$_Tree_simple_types@U?$pair@QAXUAllocationRecord@@@std@@@std@@@std@@@std@@QAEXI@Z 004653c0 f i DeanLib:MemoryTracker.obj
 0002:00041420       ?__autoclassinit2@MemoryTracker@@QAEXI@Z 00465420 f i DeanLib:MemoryTracker.obj
 0002:00041480       ?addAllocation@MemoryTracker@@QAEXPAXI@Z 00465480 f   DeanLib:MemoryTracker.obj
 0002:00041680       ?allocate@?$allocator@U?$_Tree_node@U?$pair@QAXUAllocationRecord@@@std@@PAX@std@@@std@@QAEPAU?$_Tree_node@U?$pair@QAXUAllocationRecord@@@std@@PAX@2@I@Z 00465680 f i DeanLib:MemoryTracker.obj
 0002:000416e0       ?begin@?$_Tree@V?$_Tmap_traits@PAXUAllocationRecord@@U?$less@PAX@std@@V?$allocator@U?$pair@QAXUAllocationRecord@@@std@@@3@$0A@@std@@@std@@QAE?AV?$_Tree_iterator@V?$_Tree_val@U?$_Tree_simple_types@U?$pair@QAXUAllocationRecord@@@std@@@std@@@std@@@2@XZ 004656e0 f i DeanLib:MemoryTracker.obj
 0002:00041790       ?clear@?$_Tree@V?$_Tmap_traits@PAXUAllocationRecord@@U?$less@PAX@std@@V?$allocator@U?$pair@QAXUAllocationRecord@@@std@@@3@$0A@@std@@@std@@QAEXXZ 00465790 f i DeanLib:MemoryTracker.obj
 0002:000418a0       ?deallocate@?$_Default_allocator_traits@V?$allocator@U_Container_proxy@std@@@std@@@std@@SAXAAV?$allocator@U_Container_proxy@std@@@2@QAU_Container_proxy@2@I@Z 004658a0 f i DeanLib:MemoryTracker.obj
 0002:00041900       ?deallocate@?$allocator@U?$_Tree_node@U?$pair@QAXUAllocationRecord@@@std@@PAX@std@@@std@@QAEXQAU?$_Tree_node@U?$pair@QAXUAllocationRecord@@@std@@PAX@2@I@Z 00465900 f i DeanLib:MemoryTracker.obj
 0002:00041960       ?end@?$_Tree@V?$_Tmap_traits@PAXUAllocationRecord@@U?$less@PAX@std@@V?$allocator@U?$pair@QAXUAllocationRecord@@@std@@@3@$0A@@std@@@std@@QAE?AV?$_Tree_iterator@V?$_Tree_val@U?$_Tree_simple_types@U?$pair@QAXUAllocationRecord@@@std@@@std@@@std@@@2@XZ 00465960 f i DeanLib:MemoryTracker.obj
 0002:00041a10       ?erase@?$_Tree@V?$_Tmap_traits@PAXUAllocationRecord@@U?$less@PAX@std@@V?$allocator@U?$pair@QAXUAllocationRecord@@@std@@@3@$0A@@std@@@std@@QAE?AV?$_Tree_iterator@V?$_Tree_val@U?$_Tree_simple_types@U?$pair@QAXUAllocationRecord@@@std@@@std@@@std@@@2@V?$_Tree_const_iterator@V?$_Tree_val@U?$_Tree_simple_types@U?$pair@QAXUAllocationRecord@@@std@@@std@@@std@@@2@0@Z 00465a10 f i DeanLib:MemoryTracker.obj
 0002:00041d30       ?erase@?$_Tree@V?$_Tmap_traits@PAXUAllocationRecord@@U?$less@PAX@std@@V?$allocator@U?$pair@QAXUAllocationRecord@@@std@@@3@$0A@@std@@@std@@QAE?AV?$_Tree_iterator@V?$_Tree_val@U?$_Tree_simple_types@U?$pair@QAXUAllocationRecord@@@std@@@std@@@std@@@2@V?$_Tree_const_iterator@V?$_Tree_val@U?$_Tree_simple_types@U?$pair@QAXUAllocationRecord@@@std@@@std@@@std@@@2@@Z 00465d30 f i DeanLib:MemoryTracker.obj
 0002:00042460       ?find@?$_Tree@V?$_Tmap_traits@PAXUAllocationRecord@@U?$less@PAX@std@@V?$allocator@U?$pair@QAXUAllocationRecord@@@std@@@3@$0A@@std@@@std@@QAE?AV?$_Tree_iterator@V?$_Tree_val@U?$_Tree_simple_types@U?$pair@QAXUAllocationRecord@@@std@@@std@@@std@@@2@ABQAX@Z 00466460 f i DeanLib:MemoryTracker.obj
 0002:00042740       ?lower_bound@?$_Tree@V?$_Tmap_traits@PAXUAllocationRecord@@U?$less@PAX@std@@V?$allocator@U?$pair@QAXUAllocationRecord@@@std@@@3@$0A@@std@@@std@@QAE?AV?$_Tree_iterator@V?$_Tree_val@U?$_Tree_simple_types@U?$pair@QAXUAllocationRecord@@@std@@@std@@@std@@@2@ABQAX@Z 00466740 f i DeanLib:MemoryTracker.obj
 0002:000427e0       ?max_size@?$_Default_allocator_traits@V?$allocator@U?$_Tree_node@U?$pair@QAXUAllocationRecord@@@std@@PAX@std@@@std@@@std@@SAIABV?$allocator@U?$_Tree_node@U?$pair@QAXUAllocationRecord@@@std@@PAX@std@@@2@@Z 004667e0 f i DeanLib:MemoryTracker.obj
 0002:00042820       ?max_size@?$_Tree@V?$_Tmap_traits@PAXUAllocationRecord@@U?$less@PAX@std@@V?$allocator@U?$pair@QAXUAllocationRecord@@@std@@@3@$0A@@std@@@std@@QBEIXZ 00466820 f i DeanLib:MemoryTracker.obj
 0002:00042880       ?pointer_to@?$pointer_traits@PAU?$pair@QAXUAllocationRecord@@@std@@@std@@SAPAU?$pair@QAXUAllocationRecord@@@2@AAU32@@Z 00466880 f i DeanLib:MemoryTracker.obj
 0002:000428d0       ?removeAllocation@MemoryTracker@@QAEXPAX@Z 004668d0 f   DeanLib:MemoryTracker.obj
 0002:00042a80       ?reportAllocations@MemoryTracker@@QAEXAAV?$basic_ostream@DU?$char_traits@D@std@@@std@@@Z 00466a80 f   DeanLib:MemoryTracker.obj
 0002:00042d20       ??0Vector2D@@QAE@ABV0@@Z   00466d20 f   DeanLib:Vector2D.obj
 0002:00042d80       ??0Vector2D@@QAE@MM@Z      00466d80 f   DeanLib:Vector2D.obj
 0002:00042de0       ??1Vector2D@@QAE@XZ        00466de0 f   DeanLib:Vector2D.obj
 0002:00042e20       ??4Vector2D@@QAEAAV0@ABV0@@Z 00466e20 f   DeanLib:Vector2D.obj
 0002:00042e80       ??8Vector2D@@QAE_NABV0@@Z  00466e80 f   DeanLib:Vector2D.obj
 0002:00042f80       ??9Vector2D@@QAE_NABV0@@Z  00466f80 f   DeanLib:Vector2D.obj
 0002:00043080       ??DVector2D@@QBE?BV0@M@Z   00467080 f   DeanLib:Vector2D.obj
 0002:000431d0       ??GVector2D@@QBE?BV0@ABV0@@Z 004671d0 f   DeanLib:Vector2D.obj
 0002:00043300       ??HVector2D@@QBE?BV0@ABV0@@Z 00467300 f   DeanLib:Vector2D.obj
 0002:00043430       ??XVector2D@@QAEAAV0@M@Z   00467430 f   DeanLib:Vector2D.obj
 0002:000434a0       ??YVector2D@@QAEAAV0@ABV0@@Z 004674a0 f   DeanLib:Vector2D.obj
 0002:00043520       ??ZVector2D@@QAEAAV0@ABV0@@Z 00467520 f   DeanLib:Vector2D.obj
 0002:000435a0       ??_0Vector2D@@QAEAAV0@M@Z  004675a0 f   DeanLib:Vector2D.obj
 0002:00043610       ?getLength@Vector2D@@QBEMXZ 00467610 f   DeanLib:Vector2D.obj
 0002:00043680       ?getLengthSquared@Vector2D@@QBEMXZ 00467680 f   DeanLib:Vector2D.obj
 0002:000436f0       ?hasNonZeroLength@Vector2D@@QBE_NXZ 004676f0 f   DeanLib:Vector2D.obj
 0002:00043770       ?normalize@Vector2D@@QAEXXZ 00467770 f   DeanLib:Vector2D.obj
 0002:00043830       ?sqrt@@YAMM@Z              00467830 f i DeanLib:Vector2D.obj
 0002:00043890       _sqrtf                     00467890 f i DeanLib:Vector2D.obj
 0002:000438f8       _Sleep@4                   004678f8 f   kernel32:KERNEL32.dll
 0002:000438fe       _QueryPerformanceCounter@4 004678fe f   kernel32:KERNEL32.dll
 0002:00043904       _QueryPerformanceFrequency@4 00467904 f   kernel32:KERNEL32.dll
 0002:0004390a       ??0_Lockit@std@@QAE@H@Z    0046790a f   msvcprtd:MSVCP140D.dll
 0002:00043910       ??1_Lockit@std@@QAE@XZ     00467910 f   msvcprtd:MSVCP140D.dll
 0002:00043916       ?_Xbad_alloc@std@@YAXXZ    00467916 f   msvcprtd:MSVCP140D.dll
 0002:0004391c       ?_Xlength_error@std@@YAXPBD@Z 0046791c f   msvcprtd:MSVCP140D.dll
 0002:00043922       ?_Xout_of_range@std@@YAXPBD@Z 00467922 f   msvcprtd:MSVCP140D.dll
 0002:00043928       ?uncaught_exception@std@@YA_NXZ 00467928 f   msvcprtd:MSVCP140D.dll
 0002:0004392e       ?_Debug_message@std@@YAXPB_W0I@Z 0046792e f   msvcprtd:MSVCP140D.dll
 0002:00043940       ??0_Fac_node@std@@QAE@PAU01@PAV_Facet_base@1@@Z 00467940 f i msvcprtd:locale0_implib.obj
 0002:00043970       ??1_Fac_node@std@@QAE@XZ   00467970 f i msvcprtd:locale0_implib.obj
 0002:00043a30       ??1_Fac_tidy_reg_t@std@@QAE@XZ 00467a30 f i msvcprtd:locale0_implib.obj
 0002:00043aa0       ??2_Fac_node@std@@SAPAXI@Z 00467aa0 f i msvcprtd:locale0_implib.obj
 0002:00043b00       ??3_Fac_node@std@@SAXPAX@Z 00467b00 f i msvcprtd:locale0_implib.obj
 0002:00043b20       ??_G_Fac_node@std@@QAEPAXI@Z 00467b20 f i msvcprtd:locale0_implib.obj
 0002:00043b80       ?_Facet_Register@std@@YAXPAV_Facet_base@1@@Z 00467b80 f   msvcprtd:locale0_implib.obj
 0002:00043c22       ??Bid@locale@std@@QAEIXZ   00467c22 f   msvcprtd:MSVCP140D.dll
 0002:00043c28       ?_Getgloballocale@locale@std@@CAPAV_Locimp@12@XZ 00467c28 f   msvcprtd:MSVCP140D.dll
 0002:00043c2e       ?always_noconv@codecvt_base@std@@QBE_NXZ 00467c2e f   msvcprtd:MSVCP140D.dll
 0002:00043c34       ?in@?$codecvt@DDU_Mbstatet@@@std@@QBEHAAU_Mbstatet@@PBD1AAPBDPAD3AAPAD@Z 00467c34 f   msvcprtd:MSVCP140D.dll
 0002:00043c3a       ?out@?$codecvt@DDU_Mbstatet@@@std@@QBEHAAU_Mbstatet@@PBD1AAPBDPAD3AAPAD@Z 00467c3a f   msvcprtd:MSVCP140D.dll
 0002:00043c40       ?unshift@?$codecvt@DDU_Mbstatet@@@std@@QBEHAAU_Mbstatet@@PAD1AAPAD@Z 00467c40 f   msvcprtd:MSVCP140D.dll
 0002:00043c46       ?_Getcat@?$codecvt@DDU_Mbstatet@@@std@@SAIPAPBVfacet@locale@2@PBV42@@Z 00467c46 f   msvcprtd:MSVCP140D.dll
 0002:00043c4c       ?good@ios_base@std@@QBE_NXZ 00467c4c f   msvcprtd:MSVCP140D.dll
 0002:00043c52       ?flags@ios_base@std@@QBEHXZ 00467c52 f   msvcprtd:MSVCP140D.dll
 0002:00043c58       ?width@ios_base@std@@QBE_JXZ 00467c58 f   msvcprtd:MSVCP140D.dll
 0002:00043c5e       ?width@ios_base@std@@QAE_J_J@Z 00467c5e f   msvcprtd:MSVCP140D.dll
 0002:00043c64       ??0?$basic_streambuf@DU?$char_traits@D@std@@@std@@IAE@XZ 00467c64 f   msvcprtd:MSVCP140D.dll
 0002:00043c6a       ??1?$basic_streambuf@DU?$char_traits@D@std@@@std@@UAE@XZ 00467c6a f   msvcprtd:MSVCP140D.dll
 0002:00043c70       ?getloc@?$basic_streambuf@DU?$char_traits@D@std@@@std@@QBE?AVlocale@2@XZ 00467c70 f   msvcprtd:MSVCP140D.dll
 0002:00043c76       ?sputc@?$basic_streambuf@DU?$char_traits@D@std@@@std@@QAEHD@Z 00467c76 f   msvcprtd:MSVCP140D.dll
 0002:00043c7c       ?sputn@?$basic_streambuf@DU?$char_traits@D@std@@@std@@QAE_JPBD_J@Z 00467c7c f   msvcprtd:MSVCP140D.dll
 0002:00043c82       ?eback@?$basic_streambuf@DU?$char_traits@D@std@@@std@@IBEPADXZ 00467c82 f   msvcprtd:MSVCP140D.dll
 0002:00043c88       ?gptr@?$basic_streambuf@DU?$char_traits@D@std@@@std@@IBEPADXZ 00467c88 f   msvcprtd:MSVCP140D.dll
 0002:00043c8e       ?pptr@?$basic_streambuf@DU?$char_traits@D@std@@@std@@IBEPADXZ 00467c8e f   msvcprtd:MSVCP140D.dll
 0002:00043c94       ?egptr@?$basic_streambuf@DU?$char_traits@D@std@@@std@@IBEPADXZ 00467c94 f   msvcprtd:MSVCP140D.dll
 0002:00043c9a       ?setg@?$basic_streambuf@DU?$char_traits@D@std@@@std@@IAEXPAD00@Z 00467c9a f   msvcprtd:MSVCP140D.dll
 0002:00043ca0       ?epptr@?$basic_streambuf@DU?$char_traits@D@std@@@std@@IBEPADXZ 00467ca0 f   msvcprtd:MSVCP140D.dll
 0002:00043ca6       ?_Gndec@?$basic_streambuf@DU?$char_traits@D@std@@@std@@IAEPADXZ 00467ca6 f   msvcprtd:MSVCP140D.dll
 0002:00043cac       ?_Gninc@?$basic_streambuf@DU?$char_traits@D@std@@@std@@IAEPADXZ 00467cac f   msvcprtd:MSVCP140D.dll
 0002:00043cb2       ?_Pninc@?$basic_streambuf@DU?$char_traits@D@std@@@std@@IAEPADXZ 00467cb2 f   msvcprtd:MSVCP140D.dll
 0002:00043cb8       ?_Init@?$basic_streambuf@DU?$char_traits@D@std@@@std@@IAEXXZ 00467cb8 f   msvcprtd:MSVCP140D.dll
 0002:00043cbe       ?_Init@?$basic_streambuf@DU?$char_traits@D@std@@@std@@IAEXPAPAD0PAH001@Z 00467cbe f   msvcprtd:MSVCP140D.dll
 0002:00043cc4       ??1?$basic_ios@DU?$char_traits@D@std@@@std@@UAE@XZ 00467cc4 f   msvcprtd:MSVCP140D.dll
 0002:00043cca       ?setstate@?$basic_ios@DU?$char_traits@D@std@@@std@@QAEXH_N@Z 00467cca f   msvcprtd:MSVCP140D.dll
 0002:00043cd0       ?tie@?$basic_ios@DU?$char_traits@D@std@@@std@@QBEPAV?$basic_ostream@DU?$char_traits@D@std@@@2@XZ 00467cd0 f   msvcprtd:MSVCP140D.dll
 0002:00043cd6       ?rdbuf@?$basic_ios@DU?$char_traits@D@std@@@std@@QBEPAV?$basic_streambuf@DU?$char_traits@D@std@@@2@XZ 00467cd6 f   msvcprtd:MSVCP140D.dll
 0002:00043cdc       ?fill@?$basic_ios@DU?$char_traits@D@std@@@std@@QBEDXZ 00467cdc f   msvcprtd:MSVCP140D.dll
 0002:00043ce2       ??0?$basic_ios@DU?$char_traits@D@std@@@std@@IAE@XZ 00467ce2 f   msvcprtd:MSVCP140D.dll
 0002:00043ce8       ??0?$basic_ostream@DU?$char_traits@D@std@@@std@@QAE@PAV?$basic_streambuf@DU?$char_traits@D@std@@@1@_N@Z 00467ce8 f   msvcprtd:MSVCP140D.dll
 0002:00043cee       ??1?$basic_ostream@DU?$char_traits@D@std@@@std@@UAE@XZ 00467cee f   msvcprtd:MSVCP140D.dll
 0002:00043cf4       ?_Osfx@?$basic_ostream@DU?$char_traits@D@std@@@std@@QAEXXZ 00467cf4 f   msvcprtd:MSVCP140D.dll
 0002:00043cfa       ?flush@?$basic_ostream@DU?$char_traits@D@std@@@std@@QAEAAV12@XZ 00467cfa f   msvcprtd:MSVCP140D.dll
 0002:00043d00       ??0?$basic_istream@DU?$char_traits@D@std@@@std@@QAE@PAV?$basic_streambuf@DU?$char_traits@D@std@@@1@_N@Z 00467d00 f   msvcprtd:MSVCP140D.dll
 0002:00043d06       ??1?$basic_istream@DU?$char_traits@D@std@@@std@@UAE@XZ 00467d06 f   msvcprtd:MSVCP140D.dll
 0002:00043d0c       ?_Fiopen@std@@YAPAU_iobuf@@PBDHH@Z 00467d0c f   msvcprtd:MSVCP140D.dll
 0002:00043d12       ?showmanyc@?$basic_streambuf@DU?$char_traits@D@std@@@std@@MAE_JXZ 00467d12 f   msvcprtd:MSVCP140D.dll
 0002:00043d18       ?xsgetn@?$basic_streambuf@DU?$char_traits@D@std@@@std@@MAE_JPAD_J@Z 00467d18 f   msvcprtd:MSVCP140D.dll
 0002:00043d1e       ?xsputn@?$basic_streambuf@DU?$char_traits@D@std@@@std@@MAE_JPBD_J@Z 00467d1e f   msvcprtd:MSVCP140D.dll
 0002:00043d24       ??6?$basic_ostream@DU?$char_traits@D@std@@@std@@QAEAAV01@H@Z 00467d24 f   msvcprtd:MSVCP140D.dll
 0002:00043d2a       ??5?$basic_istream@DU?$char_traits@D@std@@@std@@QAEAAV01@AAH@Z 00467d2a f   msvcprtd:MSVCP140D.dll
 0002:00043d30       ?widen@?$basic_ios@DU?$char_traits@D@std@@@std@@QBEDD@Z 00467d30 f   msvcprtd:MSVCP140D.dll
 0002:00043d36       ??6?$basic_ostream@DU?$char_traits@D@std@@@std@@QAEAAV01@P6AAAV01@AAV01@@Z@Z 00467d36 f   msvcprtd:MSVCP140D.dll
 0002:00043d3c       ??6?$basic_ostream@DU?$char_traits@D@std@@@std@@QAEAAV01@I@Z 00467d3c f   msvcprtd:MSVCP140D.dll
 0002:00043d42       ??6?$basic_ostream@DU?$char_traits@D@std@@@std@@QAEAAV01@PBX@Z 00467d42 f   msvcprtd:MSVCP140D.dll
 0002:00043d48       ?put@?$basic_ostream@DU?$char_traits@D@std@@@std@@QAEAAV12@D@Z 00467d48 f   msvcprtd:MSVCP140D.dll
 0002:00043d50       ??2@YAPAXI@Z               00467d50 f   MSVCRTD:new_scalar.obj
 0002:00043db0       ??3@YAXPAX@Z               00467db0 f   MSVCRTD:delete_scalar.obj
 0002:00043dd0       @_RTC_AllocaHelper@12      00467dd0 f   MSVCRTD:_stack_.obj
 0002:00043e10       @_RTC_CheckStackVars2@12   00467e10 f   MSVCRTD:_stack_.obj
 0002:00043f20       @_RTC_CheckStackVars@8     00467f20 f   MSVCRTD:_stack_.obj
 0002:00043f90       __RTC_CheckEsp             00467f90 f   MSVCRTD:_stack_.obj
 0002:00043fd0       @__security_check_cookie@4 00467fd0 f   MSVCRTD:_secchk_.obj
 0002:00043ff0       __CRT_RTC_INIT             00467ff0 f   MSVCRTD:_init_.obj
 0002:00044000       __CRT_RTC_INITW            00468000 f   MSVCRTD:_init_.obj
 0002:00044010       __RTC_InitBase             00468010 f   MSVCRTD:_init_.obj
 0002:00044050       __RTC_Shutdown             00468050 f   MSVCRTD:_init_.obj
 0002:00044070       ??1type_info@@UAE@XZ       00468070 f   MSVCRTD:std_type_info_static.obj
 0002:00044090       ??_Etype_info@@UAEPAXI@Z   00468090 f i MSVCRTD:std_type_info_static.obj
 0002:00044090       ??_Gtype_info@@UAEPAXI@Z   00468090 f i MSVCRTD:std_type_info_static.obj
 0002:000440d0       ??3@YAXPAXI@Z              004680d0 f   MSVCRTD:delete_scalar_size.obj
 0002:000440f0       ??$__crt_fast_decode_pointer@PAP6AXXZ@@YAPAP6AXXZQAP6AXXZ@Z 004680f0 f i MSVCRTD:utility.obj
 0002:00044120       ??$__crt_fast_encode_pointer@PAP6AXXZ@@YAPAP6AXXZQAP6AXXZ@Z 00468120 f i MSVCRTD:utility.obj
 0002:00044160       ?__crt_rotate_pointer_value@@YAIIH@Z 00468160 f i MSVCRTD:utility.obj
 0002:00044170       ?configure_argv@__scrt_narrow_argv_policy@@SAHXZ 00468170 f i MSVCRTD:utility.obj
 0002:000442d0       _NtCurrentTeb              004682d0 f i MSVCRTD:utility.obj
 0002:000442e0       ___scrt_acquire_startup_lock 004682e0 f   MSVCRTD:utility.obj
 0002:00044340       ___scrt_dllmain_after_initialize_c 00468340 f   MSVCRTD:utility.obj
 0002:00044380       ___scrt_dllmain_before_initialize_c 00468380 f   MSVCRTD:utility.obj
 0002:000443b0       ___scrt_dllmain_crt_thread_attach 004683b0 f   MSVCRTD:utility.obj
 0002:000443f0       ___scrt_dllmain_crt_thread_detach 004683f0 f   MSVCRTD:utility.obj
 0002:00044410       ___scrt_dllmain_exception_filter 00468410 f   MSVCRTD:utility.obj
 0002:00044470       ___scrt_dllmain_uninitialize_c 00468470 f   MSVCRTD:utility.obj
 0002:000444b0       ___scrt_dllmain_uninitialize_critical 004684b0 f   MSVCRTD:utility.obj
 0002:000444d0       ___scrt_initialize_crt     004684d0 f   MSVCRTD:utility.obj
 0002:00044530       ___scrt_initialize_onexit_tables 00468530 f   MSVCRTD:utility.obj
 0002:00044650       ___scrt_is_nonwritable_in_current_image 00468650 f   MSVCRTD:utility.obj
 0002:000447d0       ___scrt_release_startup_lock 004687d0 f   MSVCRTD:utility.obj
 0002:00044800       ___scrt_uninitialize_crt   00468800 f   MSVCRTD:utility.obj
 0002:00044850       __onexit                   00468850 f   MSVCRTD:utility.obj
 0002:000448e0       _at_quick_exit             004688e0 f   MSVCRTD:utility.obj
 0002:00044940       _atexit                    00468940 f   MSVCRTD:utility.obj
 0002:00044d50       ?get_app_type@__scrt_main_policy@@SA?AW4_crt_app_type@@XZ 00468d50 f i MSVCRTD:exe_main.obj
 0002:00044da0       _mainCRTStartup            00468da0 f   MSVCRTD:exe_main.obj
 0002:00044db0       ??_U@YAPAXI@Z              00468db0 f   MSVCRTD:new_array.obj
 0002:00044dd0       ??_V@YAXPAX@Z              00468dd0 f   MSVCRTD:delete_array.obj
 0002:00044df0       __ftoui3                   00468df0 f   MSVCRTD:_ftol3_.obj
 0002:00044dff       __ftoul3                   00468dff f   MSVCRTD:_ftol3_.obj
 0002:00044e0e       __ftol3                    00468e0e f   MSVCRTD:_ftol3_.obj
 0002:00044e1b       __ftol3_NaN                00468e1b f   MSVCRTD:_ftol3_.obj
 0002:00044e33       __ftol3_work               00468e33 f   MSVCRTD:_ftol3_.obj
 0002:00044eb9       __ftol3_common             00468eb9 f   MSVCRTD:_ftol3_.obj
 0002:00044f7b       __ftol3_arg_error          00468f7b f   MSVCRTD:_ftol3_.obj
 0002:00044f8d       __ftol3_except             00468f8d f   MSVCRTD:_ftol3_.obj
 0002:00044fd1       __dtoui3                   00468fd1 f   MSVCRTD:_ftol3_.obj
 0002:00044fe0       __dtoul3                   00468fe0 f   MSVCRTD:_ftol3_.obj
 0002:00044fef       __dtol3                    00468fef f   MSVCRTD:_ftol3_.obj
 0002:00044ffc       __dtol3_NaN                00468ffc f   MSVCRTD:_ftol3_.obj
 0002:00045019       __dtol3_work               00469019 f   MSVCRTD:_ftol3_.obj
 0002:00045100       __ultod3                   00469100 f   MSVCRTD:_ftol3_.obj
 0002:00045140       __ltod3                    00469140 f   MSVCRTD:_ftol3_.obj
 0002:00045250       @_guard_check_icall@4      00469250 f i MSVCRTD:checkcfg.obj
 0002:00045270       ??0bad_alloc@std@@AAE@QBD@Z 00469270 f i MSVCRTD:throw_bad_alloc.obj
 0002:000452a0       ??0bad_alloc@std@@QAE@ABV01@@Z 004692a0 f i MSVCRTD:throw_bad_alloc.obj
 0002:000452d0       ??0bad_alloc@std@@QAE@XZ   004692d0 f i MSVCRTD:throw_bad_alloc.obj
 0002:00045300       ??0bad_array_new_length@std@@QAE@ABV01@@Z 00469300 f i MSVCRTD:throw_bad_alloc.obj
 0002:00045330       ??0bad_array_new_length@std@@QAE@XZ 00469330 f i MSVCRTD:throw_bad_alloc.obj
 0002:00045360       ??1bad_alloc@std@@UAE@XZ   00469360 f i MSVCRTD:throw_bad_alloc.obj
 0002:00045380       ??1bad_array_new_length@std@@UAE@XZ 00469380 f i MSVCRTD:throw_bad_alloc.obj
 0002:000453a0       ??_Ebad_alloc@std@@UAEPAXI@Z 004693a0 f i MSVCRTD:throw_bad_alloc.obj
 0002:000453a0       ??_Gbad_alloc@std@@UAEPAXI@Z 004693a0 f i MSVCRTD:throw_bad_alloc.obj
 0002:000453e0       ??_Gbad_array_new_length@std@@UAEPAXI@Z 004693e0 f i MSVCRTD:throw_bad_alloc.obj
 0002:000453e0       ??_Ebad_array_new_length@std@@UAEPAXI@Z 004693e0 f i MSVCRTD:throw_bad_alloc.obj
 0002:00045420       ?__scrt_throw_std_bad_alloc@@YAXXZ 00469420 f   MSVCRTD:throw_bad_alloc.obj
 0002:00045450       ?__scrt_throw_std_bad_array_new_length@@YAXXZ 00469450 f   MSVCRTD:throw_bad_alloc.obj
 0002:00045620       ?_RTC_AllocaFailure@@YAXPAXPAU_RTC_ALLOCA_NODE@@H@Z 00469620 f   MSVCRTD:_error_.obj
 0002:00045740       ?_RTC_Failure@@YAXPAXH@Z   00469740 f   MSVCRTD:_error_.obj
 0002:000457b0       ?_RTC_StackFailure@@YAXPAXPBD@Z 004697b0 f   MSVCRTD:_error_.obj
 0002:00045bd0       __RTC_UninitUse            00469bd0 f   MSVCRTD:_error_.obj
 0002:00045cb0       __vsprintf_s_l             00469cb0 f i MSVCRTD:_error_.obj
 0002:00045cf0       _sprintf_s                 00469cf0 f i MSVCRTD:_error_.obj
 0002:00045d20       ___raise_securityfailure   00469d20 f   MSVCRTD:gs_report.obj
 0002:00045d60       ___report_gsfailure        00469d60 f   MSVCRTD:gs_report.obj
 0002:00045eb0       ___report_rangecheckfailure 00469eb0 f   MSVCRTD:gs_report.obj
 0002:00045ec0       ___report_securityfailure  00469ec0 f   MSVCRTD:gs_report.obj
 0002:00045fd0       ___report_securityfailureEx 00469fd0 f   MSVCRTD:gs_report.obj
 0002:00046140       ?_RTC_GetErrorFunc@@YAP6AHHPBDH00ZZPBX@Z 0046a140 f   MSVCRTD:_userapi_.obj
 0002:00046150       ?_RTC_GetErrorFuncW@@YAP6AHHPB_WH00ZZPBX@Z 0046a150 f   MSVCRTD:_userapi_.obj
 0002:00046160       __RTC_GetErrDesc           0046a160 f   MSVCRTD:_userapi_.obj
 0002:00046180       __RTC_NumErrors            0046a180 f   MSVCRTD:_userapi_.obj
 0002:00046190       __RTC_SetErrorFunc         0046a190 f   MSVCRTD:_userapi_.obj
 0002:000461c0       __RTC_SetErrorFuncW        0046a1c0 f   MSVCRTD:_userapi_.obj
 0002:000461f0       __RTC_SetErrorType         0046a1f0 f   MSVCRTD:_userapi_.obj
 0002:00046220       ___isa_available_init      0046a220 f   MSVCRTD:_cpu_disp_.obj
 0002:000465b0       __get_startup_argv_mode    0046a5b0 f   MSVCRTD:argv_mode.obj
 0002:000465c0       ___scrt_is_ucrt_dll_in_use 0046a5c0 f   MSVCRTD:ucrt_detection.obj
 0002:000465f0       ___scrt_fastfail           0046a5f0 f   MSVCRTD:utility_desktop.obj
 0002:00046780       ___scrt_get_show_window_mode 0046a780 f   MSVCRTD:utility_desktop.obj
 0002:000467d0       ___scrt_initialize_winrt   0046a7d0 f   MSVCRTD:utility_desktop.obj
 0002:000467e0       ___scrt_is_managed_app     0046a7e0 f   MSVCRTD:utility_desktop.obj
 0002:00046890       ___scrt_set_unhandled_exception_filter 0046a890 f   MSVCRTD:utility_desktop.obj
 0002:000468b0       ___scrt_unhandled_exception_filter@4 0046a8b0 f   MSVCRTD:utility_desktop.obj
 0002:00046930       __crt_debugger_hook        0046a930 f   MSVCRTD:utility_desktop.obj
 0002:00046950       __except_handler4          0046a950 f   MSVCRTD:_chandler4gs_.obj
 0002:00046980       ___security_init_cookie    0046a980 f   MSVCRTD:gs_support.obj
 0002:00046aa0       __matherr                  0046aaa0 f   MSVCRTD:matherr.obj
 0002:00046ab0       __get_startup_commit_mode  0046aab0 f   MSVCRTD:commit_mode.obj
 0002:00046ac0       __get_startup_file_mode    0046aac0 f   MSVCRTD:file_mode.obj
 0002:00046ad0       __get_startup_new_mode     0046aad0 f   MSVCRTD:new_mode.obj
 0002:00046ae0       __get_startup_thread_locale_mode 0046aae0 f   MSVCRTD:thread_locale.obj
 0002:00046af0       ?__scrt_initialize_type_info@@YAXXZ 0046aaf0 f   MSVCRTD:tncleanup.obj
 0002:00046b10       ?__scrt_uninitialize_type_info@@YAXXZ 0046ab10 f   MSVCRTD:tncleanup.obj
 0002:00046b30       __should_initialize_environment 0046ab30 f   MSVCRTD:env_mode.obj
 0002:00046b40       __initialize_default_precision 0046ab40 f   MSVCRTD:default_precision.obj
 0002:00046b70       __initialize_invalid_parameter_handler 0046ab70 f   MSVCRTD:invalid_parameter_handler.obj
 0002:00046b80       __initialize_denormal_control 0046ab80 f   MSVCRTD:denormal_control.obj
 0002:00046b90       ___local_stdio_scanf_options 0046ab90 f i MSVCRTD:default_local_stdio_options.obj
 0002:00046ba0       ___scrt_initialize_default_local_stdio_options 0046aba0 f   MSVCRTD:default_local_stdio_options.obj
 0002:00046bf0       ___scrt_is_user_matherr_present 0046abf0 f   MSVCRTD:matherr_detection.obj
 0002:00046c20       ___scrt_get_dyn_tls_init_callback 0046ac20 f   MSVCRTD:dyn_tls_init.obj
 0002:00046c30       ___scrt_get_dyn_tls_dtor_callback 0046ac30 f   MSVCRTD:dyn_tls_dtor.obj
 0002:00046c40       __RTC_Initialize           0046ac40 f   MSVCRTD:_initsect_.obj
 0002:00046c80       __RTC_Terminate            0046ac80 f   MSVCRTD:_initsect_.obj
 0002:00046cc0       @_guard_check_icall_nop@4  0046acc0 f i MSVCRTD:guard_support.obj
 0002:00046cd0       __guard_icall_checks_enforced 0046acd0 f i MSVCRTD:guard_support.obj
 0002:000472c0       ?_RTC_GetSrcLine@@YAHPAEPA_WKPAH1K@Z 0046b2c0 f   MSVCRTD:_pdblkup_.obj
 0002:000476e6       _memcpy                    0046b6e6 f   vcruntimed:VCRUNTIME140D.dll
 0002:000476ec       _memmove                   0046b6ec f   vcruntimed:VCRUNTIME140D.dll
 0002:000476f2       ___CxxFrameHandler3        0046b6f2 f   vcruntimed:VCRUNTIME140D.dll
 0002:000476f8       _memset                    0046b6f8 f   vcruntimed:VCRUNTIME140D.dll
 0002:000476fe       ___std_exception_copy      0046b6fe f   vcruntimed:VCRUNTIME140D.dll
 0002:00047704       ___std_exception_destroy   0046b704 f   vcruntimed:VCRUNTIME140D.dll
 0002:0004770a       __CxxThrowException@8      0046b70a f   vcruntimed:VCRUNTIME140D.dll
 0002:00047710       ___RTDynamicCast           0046b710 f   vcruntimed:VCRUNTIME140D.dll
 0002:00047716       _memcmp                    0046b716 f   vcruntimed:VCRUNTIME140D.dll
 0002:0004771c       __except_handler4_common   0046b71c f   vcruntimed:VCRUNTIME140D.dll
 0002:00047722       ___std_type_info_destroy_list 0046b722 f   vcruntimed:VCRUNTIME140D.dll
 0002:00047728       ___vcrt_GetModuleFileNameW 0046b728 f   vcruntimed:VCRUNTIME140D.dll
 0002:0004772e       ___vcrt_GetModuleHandleW   0046b72e f   vcruntimed:VCRUNTIME140D.dll
 0002:00047734       ___vcrt_LoadLibraryExW     0046b734 f   vcruntimed:VCRUNTIME140D.dll
 0002:0004773a       __invalid_parameter        0046b73a f   ucrtd:ucrtbased.dll
 0002:00047740       _atan                      0046b740 f   ucrtd:ucrtbased.dll
 0002:00047746       _strlen                    0046b746 f   ucrtd:ucrtbased.dll
 0002:0004774c       __CrtDbgReportW            0046b74c f   ucrtd:ucrtbased.dll
 0002:00047752       __invalid_parameter_noinfo 0046b752 f   ucrtd:ucrtbased.dll
 0002:00047758       __errno                    0046b758 f   ucrtd:ucrtbased.dll
 0002:0004775e       _system                    0046b75e f   ucrtd:ucrtbased.dll
 0002:00047764       __get_stream_buffer_pointers 0046b764 f   ucrtd:ucrtbased.dll
 0002:0004776a       _fclose                    0046b76a f   ucrtd:ucrtbased.dll
 0002:00047770       _fflush                    0046b770 f   ucrtd:ucrtbased.dll
 0002:00047776       _fgetc                     0046b776 f   ucrtd:ucrtbased.dll
 0002:0004777c       _fgetpos                   0046b77c f   ucrtd:ucrtbased.dll
 0002:00047782       _fputc                     0046b782 f   ucrtd:ucrtbased.dll
 0002:00047788       _fsetpos                   0046b788 f   ucrtd:ucrtbased.dll
 0002:0004778e       __fseeki64                 0046b78e f   ucrtd:ucrtbased.dll
 0002:00047794       _fwrite                    0046b794 f   ucrtd:ucrtbased.dll
 0002:0004779a       _setvbuf                   0046b79a f   ucrtd:ucrtbased.dll
 0002:000477a0       _ungetc                    0046b7a0 f   ucrtd:ucrtbased.dll
 0002:000477a6       __lock_file                0046b7a6 f   ucrtd:ucrtbased.dll
 0002:000477ac       __unlock_file              0046b7ac f   ucrtd:ucrtbased.dll
 0002:000477b2       _srand                     0046b7b2 f   ucrtd:ucrtbased.dll
 0002:000477b8       _rand                      0046b7b8 f   ucrtd:ucrtbased.dll
 0002:000477be       __time64                   0046b7be f   ucrtd:ucrtbased.dll
 0002:000477c4       __wassert                  0046b7c4 f   ucrtd:ucrtbased.dll
 0002:000477ca       ___acrt_iob_func           0046b7ca f   ucrtd:ucrtbased.dll
 0002:000477d0       ___stdio_common_vfprintf   0046b7d0 f   ucrtd:ucrtbased.dll
 0002:000477d6       _free                      0046b7d6 f   ucrtd:ucrtbased.dll
 0002:000477dc       _malloc                    0046b7dc f   ucrtd:ucrtbased.dll
 0002:000477e2       _sqrt                      0046b7e2 f   ucrtd:ucrtbased.dll
 0002:000477e8       __free_dbg                 0046b7e8 f   ucrtd:ucrtbased.dll
 0002:000477ee       __malloc_dbg               0046b7ee f   ucrtd:ucrtbased.dll
 0002:000477f4       __callnewh                 0046b7f4 f   ucrtd:ucrtbased.dll
 0002:000477fa       __CrtDbgReport             0046b7fa f   ucrtd:ucrtbased.dll
 0002:00047800       __seh_filter_dll           0046b800 f   ucrtd:ucrtbased.dll
 0002:00047806       __configure_narrow_argv    0046b806 f   ucrtd:ucrtbased.dll
 0002:0004780c       __initialize_narrow_environment 0046b80c f   ucrtd:ucrtbased.dll
 0002:00047812       __initialize_onexit_table  0046b812 f   ucrtd:ucrtbased.dll
 0002:00047818       __register_onexit_function 0046b818 f   ucrtd:ucrtbased.dll
 0002:0004781e       __execute_onexit_table     0046b81e f   ucrtd:ucrtbased.dll
 0002:00047824       __crt_atexit               0046b824 f   ucrtd:ucrtbased.dll
 0002:0004782a       __crt_at_quick_exit        0046b82a f   ucrtd:ucrtbased.dll
 0002:00047830       __cexit                    0046b830 f   ucrtd:ucrtbased.dll
 0002:00047836       __seh_filter_exe           0046b836 f   ucrtd:ucrtbased.dll
 0002:0004783c       __set_app_type             0046b83c f   ucrtd:ucrtbased.dll
 0002:00047842       ___setusermatherr          0046b842 f   ucrtd:ucrtbased.dll
 0002:00047848       __get_initial_narrow_environment 0046b848 f   ucrtd:ucrtbased.dll
 0002:0004784e       __initterm                 0046b84e f   ucrtd:ucrtbased.dll
 0002:00047854       __initterm_e               0046b854 f   ucrtd:ucrtbased.dll
 0002:0004785a       _exit                      0046b85a f   ucrtd:ucrtbased.dll
 0002:00047860       __exit                     0046b860 f   ucrtd:ucrtbased.dll
 0002:00047866       __set_fmode                0046b866 f   ucrtd:ucrtbased.dll
 0002:0004786c       ___p___argc                0046b86c f   ucrtd:ucrtbased.dll
 0002:00047872       ___p___argv                0046b872 f   ucrtd:ucrtbased.dll
 0002:00047878       __c_exit                   0046b878 f   ucrtd:ucrtbased.dll
 0002:0004787e       __register_thread_local_exe_atexit_callback 0046b87e f   ucrtd:ucrtbased.dll
 0002:00047884       __configthreadlocale       0046b884 f   ucrtd:ucrtbased.dll
 0002:0004788a       __set_new_mode             0046b88a f   ucrtd:ucrtbased.dll
 0002:00047890       ___p__commode              0046b890 f   ucrtd:ucrtbased.dll
 0002:00047896       __except1                  0046b896 f   ucrtd:ucrtbased.dll
 0002:0004789c       _strcpy_s                  0046b89c f   ucrtd:ucrtbased.dll
 0002:000478a2       _strcat_s                  0046b8a2 f   ucrtd:ucrtbased.dll
 0002:000478a8       ___stdio_common_vsprintf_s 0046b8a8 f   ucrtd:ucrtbased.dll
 0002:000478ae       _terminate                 0046b8ae f   ucrtd:ucrtbased.dll
 0002:000478b4       __controlfp_s              0046b8b4 f   ucrtd:ucrtbased.dll
 0002:000478ba       __wmakepath_s              0046b8ba f   ucrtd:ucrtbased.dll
 0002:000478c0       __wsplitpath_s             0046b8c0 f   ucrtd:ucrtbased.dll
 0002:000478c6       _wcscpy_s                  0046b8c6 f   ucrtd:ucrtbased.dll
 0002:000478cc       _IsDebuggerPresent@0       0046b8cc f   kernel32:KERNEL32.dll
 0002:000478d2       _RaiseException@16         0046b8d2 f   kernel32:KERNEL32.dll
 0002:000478d8       _MultiByteToWideChar@24    0046b8d8 f   kernel32:KERNEL32.dll
 0002:000478de       _WideCharToMultiByte@32    0046b8de f   kernel32:KERNEL32.dll
 0002:000478e4       _UnhandledExceptionFilter@4 0046b8e4 f   kernel32:KERNEL32.dll
 0002:000478ea       _SetUnhandledExceptionFilter@4 0046b8ea f   kernel32:KERNEL32.dll
 0002:000478f0       _GetCurrentProcess@0       0046b8f0 f   kernel32:KERNEL32.dll
 0002:000478f6       _TerminateProcess@8        0046b8f6 f   kernel32:KERNEL32.dll
 0002:000478fc       _IsProcessorFeaturePresent@4 0046b8fc f   kernel32:KERNEL32.dll
 0002:00047902       _GetStartupInfoW@4         0046b902 f   kernel32:KERNEL32.dll
 0002:00047908       _GetModuleHandleW@4        0046b908 f   kernel32:KERNEL32.dll
 0002:0004790e       _GetCurrentProcessId@0     0046b90e f   kernel32:KERNEL32.dll
 0002:00047914       _GetCurrentThreadId@0      0046b914 f   kernel32:KERNEL32.dll
 0002:0004791a       _GetSystemTimeAsFileTime@4 0046b91a f   kernel32:KERNEL32.dll
 0002:00047920       _InitializeSListHead@4     0046b920 f   kernel32:KERNEL32.dll
 0002:00047926       _GetLastError@0            0046b926 f   kernel32:KERNEL32.dll
 0002:0004792c       _HeapAlloc@12              0046b92c f   kernel32:KERNEL32.dll
 0002:00047932       _HeapFree@12               0046b932 f   kernel32:KERNEL32.dll
 0002:00047938       _GetProcessHeap@0          0046b938 f   kernel32:KERNEL32.dll
 0002:0004793e       _VirtualQuery@12           0046b93e f   kernel32:KERNEL32.dll
 0002:00047944       _FreeLibrary@4             0046b944 f   kernel32:KERNEL32.dll
 0002:0004794a       _GetProcAddress@8          0046b94a f   kernel32:KERNEL32.dll
 0002:00047950       ___scrt_stub_for_acrt_initialize 0046b950 f   MSVCRTD:ucrt_stubs.obj
 0002:00047950       ___vcrt_initialize         0046b950 f   MSVCRTD:ucrt_stubs.obj
 0002:00047950       ___acrt_initialize         0046b950 f   MSVCRTD:ucrt_stubs.obj
 0002:00047960       ___vcrt_thread_attach      0046b960 f   MSVCRTD:ucrt_stubs.obj
 0002:00047960       ___scrt_stub_for_acrt_thread_attach 0046b960 f   MSVCRTD:ucrt_stubs.obj
 0002:00047960       ___acrt_thread_attach      0046b960 f   MSVCRTD:ucrt_stubs.obj
 0002:00047970       ___scrt_stub_for_acrt_thread_detach 0046b970 f   MSVCRTD:ucrt_stubs.obj
 0002:00047970       ___vcrt_thread_detach      0046b970 f   MSVCRTD:ucrt_stubs.obj
 0002:00047970       ___acrt_thread_detach      0046b970 f   MSVCRTD:ucrt_stubs.obj
 0002:00047980       ___acrt_uninitialize       0046b980 f   MSVCRTD:ucrt_stubs.obj
 0002:00047980       ___scrt_stub_for_acrt_uninitialize 0046b980 f   MSVCRTD:ucrt_stubs.obj
 0002:00047980       ___vcrt_uninitialize       0046b980 f   MSVCRTD:ucrt_stubs.obj
 0002:00047990       ___acrt_uninitialize_critical 0046b990 f   MSVCRTD:ucrt_stubs.obj
 0002:00047990       ___vcrt_uninitialize_critical 0046b990 f   MSVCRTD:ucrt_stubs.obj
 0002:00047990       ___scrt_stub_for_acrt_uninitialize_critical 0046b990 f   MSVCRTD:ucrt_stubs.obj
 0002:000479a0       ___scrt_stub_for_is_c_termination_complete 0046b9a0 f   MSVCRTD:ucrt_stubs.obj
 0002:000479a0       __is_c_termination_complete 0046b9a0 f   MSVCRTD:ucrt_stubs.obj
 0003:00000000       ___xc_a                    00473000     MSVCRTD:initializers.obj
 0003:00000438       ___xc_z                    00473438     MSVCRTD:initializers.obj
 0003:0000053c       ___xi_a                    0047353c     MSVCRTD:initializers.obj
 0003:00000848       ___xi_z                    00473848     MSVCRTD:initializers.obj
 0003:0000094c       ___xp_a                    0047394c     MSVCRTD:initializers.obj
 0003:00000a50       ___xp_z                    00473a50     MSVCRTD:initializers.obj
 0003:00000b54       ___xt_a                    00473b54     MSVCRTD:initializers.obj
 0003:00000c58       ___xt_z                    00473c58     MSVCRTD:initializers.obj
 0003:00000d6c       ??_C@_0BE@LMNLACIC@_Ptr_container?5?$CB?$DN?50?$AA@ 00473d6c     Editor.obj
 0003:00000d84       ??_C@_1DG@HGDKEBPG@?$AA?$CC?$AA_?$AAP?$AAt?$AAr?$AA_?$AAc?$AAo?$AAn?$AAt?$AAa?$AAi?$AAn?$AAe?$AAr?$AA?5?$AA?$CB?$AA?$DN?$AA?5?$AA0?$AA?$CC?$AA?5?$AA?$CG?$AA?$CG?$AA?5?$AA0?$AA?$AA@ 00473d84     Editor.obj
 0003:00000dc4       ??_C@_17CNPHIMPH@?$AA?$CF?$AAl?$AAs?$AA?$AA@ 00473dc4     Editor.obj
 0003:00000dd0       ??_C@_1NC@HDPOGPLN@?$AAc?$AA?3?$AA?2?$AAp?$AAr?$AAo?$AAg?$AAr?$AAa?$AAm?$AA?5?$AAf?$AAi?$AAl?$AAe?$AAs?$AA?5?$AA?$CI?$AAx?$AA8?$AA6?$AA?$CJ?$AA?2?$AAm?$AAi?$AAc?$AAr?$AAo?$AAs?$AAo?$AAf?$AAt@ 00473dd0     Editor.obj
 0003:00000ecc       ??_C@_1BO@NKFMJPA@?$AAs?$AAt?$AAd?$AA?3?$AA?3?$AA_?$AAA?$AAl?$AAl?$AAo?$AAc?$AAa?$AAt?$AAe?$AA?$AA@ 00473ecc     Editor.obj
 0003:00000ef0       ??_C@_1CG@JNLFBNGN@?$AA?$CC?$AAi?$AAn?$AAv?$AAa?$AAl?$AAi?$AAd?$AA?5?$AAa?$AAr?$AAg?$AAu?$AAm?$AAe?$AAn?$AAt?$AA?$CC?$AA?$AA@ 00473ef0     Editor.obj
 0003:00000f20       ??_C@_09GLJCAGLP@_Ptr?5?$CB?$DN?50?$AA@ 00473f20     Editor.obj
 0003:00000f2c       ??_C@_1CC@GKJLLHIM@?$AA?$CC?$AA_?$AAP?$AAt?$AAr?$AA?5?$AA?$CB?$AA?$DN?$AA?5?$AA0?$AA?$CC?$AA?5?$AA?$CG?$AA?$CG?$AA?5?$AA0?$AA?$AA@ 00473f2c     Editor.obj
 0003:00000f54       ??_C@_0BN@HMCJOMKN@_Count?5?$DM?$DN?5?$CIsize_t?$CJ?$CI?91?$CJ?5?1?5_Sz?$AA@ 00473f54     Editor.obj
 0003:00000f78       ??_C@_1EI@MLOBABC@?$AA?$CC?$AA_?$AAC?$AAo?$AAu?$AAn?$AAt?$AA?5?$AA?$DM?$AA?$DN?$AA?5?$AA?$CI?$AAs?$AAi?$AAz?$AAe?$AA_?$AAt?$AA?$CJ?$AA?$CI?$AA?9?$AA1?$AA?$CJ?$AA?5?$AA?1?$AA?5?$AA_?$AAS?$AAz?$AA?$CC?$AA?5?$AA?$CG@ 00473f78     Editor.obj
 0003:00000fd0       ??_C@_1CC@LOFJFFDB@?$AAs?$AAt?$AAd?$AA?3?$AA?3?$AA_?$AAD?$AAe?$AAa?$AAl?$AAl?$AAo?$AAc?$AAa?$AAt?$AAe?$AA?$AA@ 00473fd0     Editor.obj
 0003:00000ff8       ??_C@_0DD@GBGGGKGG@?$CI_Ptr_user?5?$CG?5?$CI_BIG_ALLOCATION_AL@ 00473ff8     Editor.obj
 0003:00001038       ??_C@_1HE@CDMBFOKC@?$AA?$CC?$AA?$CI?$AA_?$AAP?$AAt?$AAr?$AA_?$AAu?$AAs?$AAe?$AAr?$AA?5?$AA?$CG?$AA?5?$AA?$CI?$AA_?$AAB?$AAI?$AAG?$AA_?$AAA?$AAL?$AAL?$AAO?$AAC?$AAA?$AAT?$AAI?$AAO?$AAN?$AA_?$AAA@ 00474038     Editor.obj
 0003:000010c8       ??_C@_0EI@NOJHEJCJ@reinterpret_cast?$DMuintptr_t?5?$CK?$DO?$CI_P@ 004740c8     Editor.obj
 0003:00001120       ??_C@_1JO@EKLKIEHP@?$AA?$CC?$AAr?$AAe?$AAi?$AAn?$AAt?$AAe?$AAr?$AAp?$AAr?$AAe?$AAt?$AA_?$AAc?$AAa?$AAs?$AAt?$AA?$DM?$AAu?$AAi?$AAn?$AAt?$AAp?$AAt?$AAr?$AA_?$AAt?$AA?5?$AA?$CK?$AA?$DO?$AA?$CI?$AA_@ 00474120     Editor.obj
 0003:000011e0       ??_C@_0BL@OCKMEJON@_Ptr_container?5?$DM?5_Ptr_user?$AA@ 004741e0     Editor.obj
 0003:00001200       ??_C@_1EE@PDHAHDDC@?$AA?$CC?$AA_?$AAP?$AAt?$AAr?$AA_?$AAc?$AAo?$AAn?$AAt?$AAa?$AAi?$AAn?$AAe?$AAr?$AA?5?$AA?$DM?$AA?5?$AA_?$AAP?$AAt?$AAr?$AA_?$AAu?$AAs?$AAe?$AAr?$AA?$CC?$AA?5?$AA?$CG?$AA?$CG?$AA?5@ 00474200     Editor.obj
 0003:00001254       ??_C@_0DB@GLFJLNCE@2?5?$CK?5sizeof?$CIvoid?5?$CK?$CJ?5?$DM?$DN?5_Ptr_user?5@ 00474254     Editor.obj
 0003:00001290       ??_C@_1HA@NAPGMHAO@?$AA?$CC?$AA2?$AA?5?$AA?$CK?$AA?5?$AAs?$AAi?$AAz?$AAe?$AAo?$AAf?$AA?$CI?$AAv?$AAo?$AAi?$AAd?$AA?5?$AA?$CK?$AA?$CJ?$AA?5?$AA?$DM?$AA?$DN?$AA?5?$AA_?$AAP?$AAt?$AAr?$AA_?$AAu?$AAs?$AAe?$AAr@ 00474290     Editor.obj
 0003:00001318       ??_C@_0CN@BLHJCAL@_Ptr_user?5?9?5_Ptr_container?5?$DM?$DN?5_N@ 00474318     Editor.obj
 0003:00001350       ??_C@_1GI@DHJGPFNI@?$AA?$CC?$AA_?$AAP?$AAt?$AAr?$AA_?$AAu?$AAs?$AAe?$AAr?$AA?5?$AA?9?$AA?5?$AA_?$AAP?$AAt?$AAr?$AA_?$AAc?$AAo?$AAn?$AAt?$AAa?$AAi?$AAn?$AAe?$AAr?$AA?5?$AA?$DM?$AA?$DN?$AA?5?$AA_@ 00474350     Editor.obj
 0003:000013d0       ??_7Editor@@6B@            004743d0     Editor.obj
 0003:000013f0       ??_C@_0O@LJOHIBP@wallpaper?4bmp?$AA@ 004743f0     Editor.obj
 0003:00001400       ??_C@_0BA@JFNIOLAK@string?5too?5long?$AA@ 00474400     Editor.obj
 0003:00001414       ??_C@_0BI@CFPLBAOH@invalid?5string?5position?$AA@ 00474414     Editor.obj
 0003:00001430       __real@3ff0000000000000    00474430     Editor.obj
 0003:00001440       __real@4010000000000000    00474440     Editor.obj
 0003:00001450       ??_7exception@std@@6B@     00474450     main.obj
 0003:0000145c       ??_C@_0BC@EOODALEL@Unknown?5exception?$AA@ 0047445c     main.obj
 0003:00001478       ??_C@_1NC@IOBFLKBO@?$AAc?$AA?3?$AA?2?$AAp?$AAr?$AAo?$AAg?$AAr?$AAa?$AAm?$AA?5?$AAf?$AAi?$AAl?$AAe?$AAs?$AA?5?$AA?$CI?$AAx?$AA8?$AA6?$AA?$CJ?$AA?2?$AAm?$AAi?$AAc?$AAr?$AAo?$AAs?$AAo?$AAf?$AAt@ 00474478     main.obj
 0003:00001574       ??_C@_1DC@POOIKBAO@?$AAI?$AAT?$AAE?$AAR?$AAA?$AAT?$AAO?$AAR?$AA?5?$AAL?$AAI?$AAS?$AAT?$AA?5?$AAC?$AAO?$AAR?$AAR?$AAU?$AAP?$AAT?$AAE?$AAD?$AA?$CB?$AA?$AA@ 00474574     main.obj
 0003:000015b0       ??_C@_1EE@KLDMFDFL@?$AAs?$AAt?$AAd?$AA?3?$AA?3?$AA_?$AAI?$AAt?$AAe?$AAr?$AAa?$AAt?$AAo?$AAr?$AA_?$AAb?$AAa?$AAs?$AAe?$AA1?$AA2?$AA?3?$AA?3?$AA_?$AAO?$AAr?$AAp?$AAh?$AAa?$AAn?$AA_?$AAm@ 004745b0     main.obj
 0003:00001604       ??_C@_1DG@PLBPCAEM@?$AA?$CC?$AAI?$AAT?$AAE?$AAR?$AAA?$AAT?$AAO?$AAR?$AA?5?$AAL?$AAI?$AAS?$AAT?$AA?5?$AAC?$AAO?$AAR?$AAR?$AAU?$AAP?$AAT?$AAE?$AAD?$AA?$CB?$AA?$CC?$AA?$AA@ 00474604     main.obj
 0003:00001644       ?npos@?$basic_string@DU?$char_traits@D@std@@V?$allocator@D@2@@std@@2IB 00474644     main.obj
 0003:0000164c       ??_7bad_cast@std@@6B@      0047464c     main.obj
 0003:00001658       ??_C@_08EPJLHIJG@bad?5cast?$AA@ 00474658     main.obj
 0003:00001664       ??_C@_0N@KFGCJNCF@pathgrid?4txt?$AA@ 00474664     main.obj
 0003:00001678       ??_7?$basic_filebuf@DU?$char_traits@D@std@@@std@@6B@ 00474678     main.obj
 0003:000016c4       ??_7?$basic_ofstream@DU?$char_traits@D@std@@@std@@6B@ 004746c4     main.obj
 0003:000016cc       ??_8?$basic_ofstream@DU?$char_traits@D@std@@@std@@7B@ 004746cc     main.obj
 0003:000016dc       ??_7?$basic_ifstream@DU?$char_traits@D@std@@@std@@6B@ 004746dc     main.obj
 0003:000016e4       ??_8?$basic_ifstream@DU?$char_traits@D@std@@@std@@7B@ 004746e4     main.obj
 0003:000016f0       ??_C@_0N@HNPDNMDL@Grid?5saved?$CB?6?$AA@ 004746f0     main.obj
 0003:00001700       ??_C@_0O@OBPNDELL@Grid?5loaded?$CB?6?$AA@ 00474700     main.obj
 0003:00001710       ??_C@_05PDJBBECF@pause?$AA@ 00474710     main.obj
 0003:00001718       ??_C@_1NA@EKOCPBJE@?$AAc?$AA?3?$AA?2?$AAp?$AAr?$AAo?$AAg?$AAr?$AAa?$AAm?$AA?5?$AAf?$AAi?$AAl?$AAe?$AAs?$AA?5?$AA?$CI?$AAx?$AA8?$AA6?$AA?$CJ?$AA?2?$AAm?$AAi?$AAc?$AAr?$AAo?$AAs?$AAo?$AAf?$AAt@ 00474718     main.obj
 0003:00001818       ??_C@_1GK@EPFFCEAH@?$AAc?$AAa?$AAn?$AAn?$AAo?$AAt?$AA?5?$AAd?$AAe?$AAr?$AAe?$AAf?$AAe?$AAr?$AAe?$AAn?$AAc?$AAe?$AA?5?$AAv?$AAa?$AAl?$AAu?$AAe?$AA?9?$AAi?$AAn?$AAi?$AAt?$AAi?$AAa?$AAl@ 00474818     main.obj
 0003:00001898       ??_C@_1MG@GDGHDIKC@?$AAs?$AAt?$AAd?$AA?3?$AA?3?$AA_?$AAS?$AAt?$AAr?$AAi?$AAn?$AAg?$AA_?$AAc?$AAo?$AAn?$AAs?$AAt?$AA_?$AAi?$AAt?$AAe?$AAr?$AAa?$AAt?$AAo?$AAr?$AA?$DM?$AAc?$AAl?$AAa?$AAs@ 00474898     main.obj
 0003:00001988       ??_C@_1GO@PNALIMBD@?$AA?$CC?$AAc?$AAa?$AAn?$AAn?$AAo?$AAt?$AA?5?$AAd?$AAe?$AAr?$AAe?$AAf?$AAe?$AAr?$AAe?$AAn?$AAc?$AAe?$AA?5?$AAv?$AAa?$AAl?$AAu?$AAe?$AA?9?$AAi?$AAn?$AAi?$AAt?$AAi?$AAa@ 00474988     main.obj
 0003:00001a10       ??_C@_1BAE@HEEJFKO@?$AAc?$AAa?$AAn?$AAn?$AAo?$AAt?$AA?5?$AAd?$AAe?$AAr?$AAe?$AAf?$AAe?$AAr?$AAe?$AAn?$AAc?$AAe?$AA?5?$AAs?$AAt?$AAr?$AAi?$AAn?$AAg?$AA?5?$AAi?$AAt?$AAe?$AAr?$AAa?$AAt@ 00474a10     main.obj
 0003:00001b48       ??_C@_1BAO@BGLBIONH@?$AA?$CC?$AAc?$AAa?$AAn?$AAn?$AAo?$AAt?$AA?5?$AAd?$AAe?$AAr?$AAe?$AAf?$AAe?$AAr?$AAe?$AAn?$AAc?$AAe?$AA?5?$AAs?$AAt?$AAr?$AAi?$AAn?$AAg?$AA?5?$AAi?$AAt?$AAe?$AAr?$AAa@ 00474b48     main.obj
 0003:00001c90       ??_C@_1KK@GJPIMLCF@?$AAc?$AAa?$AAn?$AAn?$AAo?$AAt?$AA?5?$AAd?$AAe?$AAr?$AAe?$AAf?$AAe?$AAr?$AAe?$AAn?$AAc?$AAe?$AA?5?$AAs?$AAt?$AAr?$AAi?$AAn?$AAg?$AA?5?$AAi?$AAt?$AAe?$AAr?$AAa?$AAt@ 00474c90     main.obj
 0003:00001d60       ??_C@_1KO@CMPBFHAM@?$AA?$CC?$AAc?$AAa?$AAn?$AAn?$AAo?$AAt?$AA?5?$AAd?$AAe?$AAr?$AAe?$AAf?$AAe?$AAr?$AAe?$AAn?$AAc?$AAe?$AA?5?$AAs?$AAt?$AAr?$AAi?$AAn?$AAg?$AA?5?$AAi?$AAt?$AAe?$AAr?$AAa@ 00474d60     main.obj
 0003:00001e38       ??_7Game@@6B@              00474e38     CommonPathfindingLib:Game.obj
 0003:00001e58       ??_C@_0BP@NFOMDBJD@failed?5to?5initialize?5allegro?$CB?6?$AA@ 00474e58     CommonPathfindingLib:Game.obj
 0003:00001e80       ??_C@_0CN@NDCAIAOH@failed?5to?5initialize?5GraphicsSys@ 00474e80     CommonPathfindingLib:Game.obj
 0003:00001eb8       ??_C@_0BN@OFBNGFA@image?5addon?5failed?5to?5load?$CB?6?$AA@ 00474eb8     CommonPathfindingLib:Game.obj
 0003:00001edc       ??_C@_0BN@NHNICPGG@failed?5to?5initialize?5sound?$CB?6?$AA@ 00474edc     CommonPathfindingLib:Game.obj
 0003:00001f00       ??_C@_0CE@CPKCHMEC@failed?5to?5initialize?5audio?5codec@ 00474f00     CommonPathfindingLib:Game.obj
 0003:00001f2c       ??_C@_0BM@KCGEPDF@failed?5to?5reserve?5samples?$CB?6?$AA@ 00474f2c     CommonPathfindingLib:Game.obj
 0003:00001f50       ??_C@_0BJ@JPBGIMMC@Keyboard?5not?5installed?$CB?6?$AA@ 00474f50     CommonPathfindingLib:Game.obj
 0003:00001f70       ??_C@_0BG@BDBLLEFH@Mouse?5not?5installed?$CB?6?$AA@ 00474f70     CommonPathfindingLib:Game.obj
 0003:00001f8c       ??_C@_0CG@BLOOKPHC@ttf?5font?5addon?5not?5initted?5prope@ 00474f8c     CommonPathfindingLib:Game.obj
 0003:00001fbc       ??_C@_08HHJKBNGC@cour?4ttf?$AA@ 00474fbc     CommonPathfindingLib:Game.obj
 0003:00001fc8       ??_C@_0CE@KEIEBNEM@ttf?5font?5file?5not?5loaded?5properl@ 00474fc8     CommonPathfindingLib:Game.obj
 0003:00001ff4       ??_C@_0BN@GJEDGGAG@Primitives?5addon?5not?5added?$CB?6?$AA@ 00474ff4     CommonPathfindingLib:Game.obj
 0003:00002018       ??_C@_1MI@KCHKGMJG@?$AAf?$AA?3?$AA?2?$AAd?$AAo?$AAc?$AAu?$AAm?$AAe?$AAn?$AAt?$AAs?$AA?2?$AAc?$AAh?$AAa?$AAm?$AAp?$AAl?$AAa?$AAi?$AAn?$AA?2?$AAc?$AAl?$AAa?$AAs?$AAs?$AAe?$AAs?$AA?2?$AAe@ 00475018     CommonPathfindingLib:Game.obj
 0003:00002108       ??_C@_1BK@FCDNEEDD@?$AAs?$AAt?$AAa?$AAr?$AAt?$AA?5?$AA?$DM?$AA?$DN?$AA?5?$AAe?$AAn?$AAd?$AA?$AA@ 00475108     CommonPathfindingLib:Game.obj
 0003:00002128       __real@4000000000000000    00475128     CommonPathfindingLib:Game.obj
 0003:00002134       __real@46fffe00            00475134     CommonPathfindingLib:Game.obj
 0003:00002140       ??_C@_1MM@ENKBBKKG@?$AAc?$AA?3?$AA?2?$AAp?$AAr?$AAo?$AAg?$AAr?$AAa?$AAm?$AA?5?$AAf?$AAi?$AAl?$AAe?$AAs?$AA?5?$AA?$CI?$AAx?$AA8?$AA6?$AA?$CJ?$AA?2?$AAm?$AAi?$AAc?$AAr?$AAo?$AAs?$AAo?$AAf?$AAt@ 00475140     CommonPathfindingLib:GraphicsBufferManager.obj
 0003:00002234       ??_C@_1DO@CFEEPGGJ@?$AAm?$AAa?$AAp?$AA?1?$AAs?$AAe?$AAt?$AA?5?$AAi?$AAt?$AAe?$AAr?$AAa?$AAt?$AAo?$AAr?$AAs?$AA?5?$AAi?$AAn?$AAc?$AAo?$AAm?$AAp?$AAa?$AAt?$AAi?$AAb?$AAl?$AAe?$AA?$AA@ 00475234     CommonPathfindingLib:GraphicsBufferManager.obj
 0003:00002280       ??_C@_1BKM@LBOFJKLH@?$AAs?$AAt?$AAd?$AA?3?$AA?3?$AA_?$AAT?$AAr?$AAe?$AAe?$AA_?$AAc?$AAo?$AAn?$AAs?$AAt?$AA_?$AAi?$AAt?$AAe?$AAr?$AAa?$AAt?$AAo?$AAr?$AA?$DM?$AAc?$AAl?$AAa?$AAs?$AAs?$AA?5@ 00475280     CommonPathfindingLib:GraphicsBufferManager.obj
 0003:00002488       ??_C@_1EC@JLIDLCDH@?$AA?$CC?$AAm?$AAa?$AAp?$AA?1?$AAs?$AAe?$AAt?$AA?5?$AAi?$AAt?$AAe?$AAr?$AAa?$AAt?$AAo?$AAr?$AAs?$AA?5?$AAi?$AAn?$AAc?$AAo?$AAm?$AAp?$AAa?$AAt?$AAi?$AAb?$AAl?$AAe?$AA?$CC@ 00475488     CommonPathfindingLib:GraphicsBufferManager.obj
 0003:000024d8       ??_C@_1EK@PPDBPCAN@?$AAm?$AAa?$AAp?$AA?1?$AAs?$AAe?$AAt?$AA?5?$AAe?$AAr?$AAa?$AAs?$AAe?$AA?5?$AAi?$AAt?$AAe?$AAr?$AAa?$AAt?$AAo?$AAr?$AA?5?$AAo?$AAu?$AAt?$AAs?$AAi?$AAd?$AAe?$AA?5?$AAr@ 004754d8     CommonPathfindingLib:GraphicsBufferManager.obj
 0003:00002530       ??_C@_1DAE@KNBKOAAE@?$AAs?$AAt?$AAd?$AA?3?$AA?3?$AA_?$AAT?$AAr?$AAe?$AAe?$AA?$DM?$AAc?$AAl?$AAa?$AAs?$AAs?$AA?5?$AAs?$AAt?$AAd?$AA?3?$AA?3?$AA_?$AAT?$AAm?$AAa?$AAp?$AA_?$AAt?$AAr?$AAa?$AAi@ 00475530     CommonPathfindingLib:GraphicsBufferManager.obj
 0003:000028d0       ??_C@_1EO@CEDAEPC@?$AA?$CC?$AAm?$AAa?$AAp?$AA?1?$AAs?$AAe?$AAt?$AA?5?$AAe?$AAr?$AAa?$AAs?$AAe?$AA?5?$AAi?$AAt?$AAe?$AAr?$AAa?$AAt?$AAo?$AAr?$AA?5?$AAo?$AAu?$AAt?$AAs?$AAi?$AAd?$AAe?$AA?5@ 004758d0     CommonPathfindingLib:GraphicsBufferManager.obj
 0003:00002930       ??_C@_1BCK@OJKBJFLO@?$AAs?$AAt?$AAd?$AA?3?$AA?3?$AA_?$AAT?$AAr?$AAe?$AAe?$AA_?$AAc?$AAo?$AAn?$AAs?$AAt?$AA_?$AAi?$AAt?$AAe?$AAr?$AAa?$AAt?$AAo?$AAr?$AA?$DM?$AAc?$AAl?$AAa?$AAs?$AAs?$AA?5@ 00475930     CommonPathfindingLib:GraphicsBufferManager.obj
 0003:00002a98       ??_C@_1BFG@GHKNDGGN@?$AAs?$AAt?$AAd?$AA?3?$AA?3?$AA_?$AAT?$AAr?$AAe?$AAe?$AA?$DM?$AAc?$AAl?$AAa?$AAs?$AAs?$AA?5?$AAs?$AAt?$AAd?$AA?3?$AA?3?$AA_?$AAT?$AAm?$AAa?$AAp?$AA_?$AAt?$AAr?$AAa?$AAi@ 00475a98     CommonPathfindingLib:GraphicsBufferManager.obj
 0003:00002c38       ??_C@_1EG@EHJFMBHJ@?$AAm?$AAa?$AAp?$AA?1?$AAs?$AAe?$AAt?$AA?5?$AAi?$AAt?$AAe?$AAr?$AAa?$AAt?$AAo?$AAr?$AA?5?$AAn?$AAo?$AAt?$AA?5?$AAi?$AAn?$AAc?$AAr?$AAe?$AAm?$AAe?$AAn?$AAt?$AAa?$AAb@ 00475c38     CommonPathfindingLib:GraphicsBufferManager.obj
 0003:00002c90       ??_C@_1BKM@BBBIHDHC@?$AAs?$AAt?$AAd?$AA?3?$AA?3?$AA_?$AAT?$AAr?$AAe?$AAe?$AA_?$AAc?$AAo?$AAn?$AAs?$AAt?$AA_?$AAi?$AAt?$AAe?$AAr?$AAa?$AAt?$AAo?$AAr?$AA?$DM?$AAc?$AAl?$AAa?$AAs?$AAs?$AA?5@ 00475c90     CommonPathfindingLib:GraphicsBufferManager.obj
 0003:00002e98       ??_C@_1EK@BCPDGOMC@?$AA?$CC?$AAm?$AAa?$AAp?$AA?1?$AAs?$AAe?$AAt?$AA?5?$AAi?$AAt?$AAe?$AAr?$AAa?$AAt?$AAo?$AAr?$AA?5?$AAn?$AAo?$AAt?$AA?5?$AAi?$AAn?$AAc?$AAr?$AAe?$AAm?$AAe?$AAn?$AAt?$AAa@ 00475e98     CommonPathfindingLib:GraphicsBufferManager.obj
 0003:00002ef0       ??_C@_1BCK@EJFMHMHL@?$AAs?$AAt?$AAd?$AA?3?$AA?3?$AA_?$AAT?$AAr?$AAe?$AAe?$AA_?$AAc?$AAo?$AAn?$AAs?$AAt?$AA_?$AAi?$AAt?$AAe?$AAr?$AAa?$AAt?$AAo?$AAr?$AA?$DM?$AAc?$AAl?$AAa?$AAs?$AAs?$AA?5@ 00475ef0     CommonPathfindingLib:GraphicsBufferManager.obj
 0003:00003058       ??_C@_1EI@FHEHNNNM@?$AAm?$AAa?$AAp?$AA?1?$AAs?$AAe?$AAt?$AA?5?$AAi?$AAt?$AAe?$AAr?$AAa?$AAt?$AAo?$AAr?$AA?5?$AAn?$AAo?$AAt?$AA?5?$AAd?$AAe?$AAr?$AAe?$AAf?$AAe?$AAr?$AAe?$AAn?$AAc?$AAa@ 00476058     CommonPathfindingLib:GraphicsBufferManager.obj
 0003:000030b0       ??_C@_1BKK@NKNEDAJK@?$AAs?$AAt?$AAd?$AA?3?$AA?3?$AA_?$AAT?$AAr?$AAe?$AAe?$AA_?$AAc?$AAo?$AAn?$AAs?$AAt?$AA_?$AAi?$AAt?$AAe?$AAr?$AAa?$AAt?$AAo?$AAr?$AA?$DM?$AAc?$AAl?$AAa?$AAs?$AAs?$AA?5@ 004760b0     CommonPathfindingLib:GraphicsBufferManager.obj
 0003:000032b0       ??_C@_1EM@KEKCOCNI@?$AA?$CC?$AAm?$AAa?$AAp?$AA?1?$AAs?$AAe?$AAt?$AA?5?$AAi?$AAt?$AAe?$AAr?$AAa?$AAt?$AAo?$AAr?$AA?5?$AAn?$AAo?$AAt?$AA?5?$AAd?$AAe?$AAr?$AAe?$AAf?$AAe?$AAr?$AAe?$AAn?$AAc@ 004762b0     CommonPathfindingLib:GraphicsBufferManager.obj
 0003:00003310       ??_C@_1BCI@EAFCIGCE@?$AAs?$AAt?$AAd?$AA?3?$AA?3?$AA_?$AAT?$AAr?$AAe?$AAe?$AA_?$AAc?$AAo?$AAn?$AAs?$AAt?$AA_?$AAi?$AAt?$AAe?$AAr?$AAa?$AAt?$AAo?$AAr?$AA?$DM?$AAc?$AAl?$AAa?$AAs?$AAs?$AA?5@ 00476310     CommonPathfindingLib:GraphicsBufferManager.obj
 0003:00003474       ??_C@_1CG@LEJCKCBB@?$AAi?$AAn?$AAv?$AAa?$AAl?$AAi?$AAd?$AA?5?$AAc?$AAo?$AAm?$AAp?$AAa?$AAr?$AAa?$AAt?$AAo?$AAr?$AA?$AA@ 00476474     CommonPathfindingLib:GraphicsBufferManager.obj
 0003:000034a4       ??_C@_1CI@JONCLBEJ@?$AAs?$AAt?$AAd?$AA?3?$AA?3?$AA_?$AAD?$AAe?$AAb?$AAu?$AAg?$AA_?$AAl?$AAt?$AA_?$AAp?$AAr?$AAe?$AAd?$AA?$AA@ 004764a4     CommonPathfindingLib:GraphicsBufferManager.obj
 0003:000034d4       ??_C@_1CK@NDNHPKPI@?$AA?$CC?$AAi?$AAn?$AAv?$AAa?$AAl?$AAi?$AAd?$AA?5?$AAc?$AAo?$AAm?$AAp?$AAa?$AAr?$AAa?$AAt?$AAo?$AAr?$AA?$CC?$AA?$AA@ 004764d4     CommonPathfindingLib:GraphicsBufferManager.obj
 0003:00003508       ??_C@_1MI@OGPPJEMP@?$AAc?$AA?3?$AA?2?$AAp?$AAr?$AAo?$AAg?$AAr?$AAa?$AAm?$AA?5?$AAf?$AAi?$AAl?$AAe?$AAs?$AA?5?$AA?$CI?$AAx?$AA8?$AA6?$AA?$CJ?$AA?2?$AAm?$AAi?$AAc?$AAr?$AAo?$AAs?$AAo?$AAf?$AAt@ 00476508     CommonPathfindingLib:GraphicsBufferManager.obj
 0003:000035f8       ??_C@_1EM@MHOKKPFH@?$AAm?$AAa?$AAp?$AA?1?$AAs?$AAe?$AAt?$AA?5?$AAi?$AAn?$AAs?$AAe?$AAr?$AAt?$AA?5?$AAi?$AAt?$AAe?$AAr?$AAa?$AAt?$AAo?$AAr?$AA?5?$AAo?$AAu?$AAt?$AAs?$AAi?$AAd?$AAe?$AA?5@ 004765f8     CommonPathfindingLib:GraphicsBufferManager.obj
 0003:00003658       ??_C@_1DBC@OHPOMKKH@?$AAs?$AAt?$AAd?$AA?3?$AA?3?$AA_?$AAT?$AAr?$AAe?$AAe?$AA?$DM?$AAc?$AAl?$AAa?$AAs?$AAs?$AA?5?$AAs?$AAt?$AAd?$AA?3?$AA?3?$AA_?$AAT?$AAm?$AAa?$AAp?$AA_?$AAt?$AAr?$AAa?$AAi@ 00476658     CommonPathfindingLib:GraphicsBufferManager.obj
 0003:00003a08       ??_C@_1FA@HNFOKDLB@?$AA?$CC?$AAm?$AAa?$AAp?$AA?1?$AAs?$AAe?$AAt?$AA?5?$AAi?$AAn?$AAs?$AAe?$AAr?$AAt?$AA?5?$AAi?$AAt?$AAe?$AAr?$AAa?$AAt?$AAo?$AAr?$AA?5?$AAo?$AAu?$AAt?$AAs?$AAi?$AAd?$AAe@ 00476a08     CommonPathfindingLib:GraphicsBufferManager.obj
 0003:00003a68       ??_C@_1BGE@IPAALDOK@?$AAs?$AAt?$AAd?$AA?3?$AA?3?$AA_?$AAT?$AAr?$AAe?$AAe?$AA?$DM?$AAc?$AAl?$AAa?$AAs?$AAs?$AA?5?$AAs?$AAt?$AAd?$AA?3?$AA?3?$AA_?$AAT?$AAm?$AAa?$AAp?$AA_?$AAt?$AAr?$AAa?$AAi@ 00476a68     CommonPathfindingLib:GraphicsBufferManager.obj
 0003:00003c18       ??_C@_1EG@OKCGOALM@?$AAm?$AAa?$AAp?$AA?1?$AAs?$AAe?$AAt?$AA?5?$AAi?$AAt?$AAe?$AAr?$AAa?$AAt?$AAo?$AAr?$AA?5?$AAn?$AAo?$AAt?$AA?5?$AAd?$AAe?$AAc?$AAr?$AAe?$AAm?$AAe?$AAn?$AAt?$AAa?$AAb@ 00476c18     CommonPathfindingLib:GraphicsBufferManager.obj
 0003:00003c70       ??_C@_1BKM@OCCKMPLD@?$AAs?$AAt?$AAd?$AA?3?$AA?3?$AA_?$AAT?$AAr?$AAe?$AAe?$AA_?$AAc?$AAo?$AAn?$AAs?$AAt?$AA_?$AAi?$AAt?$AAe?$AAr?$AAa?$AAt?$AAo?$AAr?$AA?$DM?$AAc?$AAl?$AAa?$AAs?$AAs?$AA?5@ 00476c70     CommonPathfindingLib:GraphicsBufferManager.obj
 0003:00003e78       ??_C@_1EK@OIBHPACE@?$AA?$CC?$AAm?$AAa?$AAp?$AA?1?$AAs?$AAe?$AAt?$AA?5?$AAi?$AAt?$AAe?$AAr?$AAa?$AAt?$AAo?$AAr?$AA?5?$AAn?$AAo?$AAt?$AA?5?$AAd?$AAe?$AAc?$AAr?$AAe?$AAm?$AAe?$AAn?$AAt?$AAa@ 00476e78     CommonPathfindingLib:GraphicsBufferManager.obj
 0003:00003ed0       ??_C@_1BCK@LKGOMALK@?$AAs?$AAt?$AAd?$AA?3?$AA?3?$AA_?$AAT?$AAr?$AAe?$AAe?$AA_?$AAc?$AAo?$AAn?$AAs?$AAt?$AA_?$AAi?$AAt?$AAe?$AAr?$AAa?$AAt?$AAo?$AAr?$AA?$DM?$AAc?$AAl?$AAa?$AAs?$AAs?$AA?5@ 00476ed0     CommonPathfindingLib:GraphicsBufferManager.obj
 0003:00004038       ??_C@_0BE@JONHPENG@map?1set?$DMT?$DO?5too?5long?$AA@ 00477038     CommonPathfindingLib:GraphicsBufferManager.obj
 0003:00004054       ??_C@_01CLKCMJKC@?5?$AA@   00477054     CommonPathfindingLib:Grid.obj
 0003:00004058       ??_C@_0BD@OLBABOEK@vector?$DMT?$DO?5too?5long?$AA@ 00477058     CommonPathfindingLib:Grid.obj
 0003:00004088       ??_C@_1CBA@CCNHNPBA@?$AAs?$AAt?$AAd?$AA?3?$AA?3?$AA_?$AAT?$AAr?$AAe?$AAe?$AA?$DM?$AAc?$AAl?$AAa?$AAs?$AAs?$AA?5?$AAs?$AAt?$AAd?$AA?3?$AA?3?$AA_?$AAT?$AAm?$AAa?$AAp?$AA_?$AAt?$AAr?$AAa?$AAi@ 00477088     CommonPathfindingLib:GridVisualizer.obj
 0003:00004308       ??_C@_1MO@EBMJMLLF@?$AAc?$AA?3?$AA?2?$AAp?$AAr?$AAo?$AAg?$AAr?$AAa?$AAm?$AA?5?$AAf?$AAi?$AAl?$AAe?$AAs?$AA?5?$AA?$CI?$AAx?$AA8?$AA6?$AA?$CJ?$AA?2?$AAm?$AAi?$AAc?$AAr?$AAo?$AAs?$AAo?$AAf?$AAt@ 00477308     CommonPathfindingLib:GridVisualizer.obj
 0003:00004400       ??_C@_1DM@LHGCHCBA@?$AAv?$AAe?$AAc?$AAt?$AAo?$AAr?$AA?5?$AAs?$AAu?$AAb?$AAs?$AAc?$AAr?$AAi?$AAp?$AAt?$AA?5?$AAo?$AAu?$AAt?$AA?5?$AAo?$AAf?$AA?5?$AAr?$AAa?$AAn?$AAg?$AAe?$AA?$AA@ 00477400     CommonPathfindingLib:GridVisualizer.obj
 0003:00004448       ??_C@_1HC@HBCEAHKD@?$AAs?$AAt?$AAd?$AA?3?$AA?3?$AAv?$AAe?$AAc?$AAt?$AAo?$AAr?$AA?$DM?$AAi?$AAn?$AAt?$AA?0?$AAc?$AAl?$AAa?$AAs?$AAs?$AA?5?$AAs?$AAt?$AAd?$AA?3?$AA?3?$AAa?$AAl?$AAl?$AAo?$AAc@ 00477448     CommonPathfindingLib:GridVisualizer.obj
 0003:000044d0       ??_C@_1EA@LEKOKFNB@?$AA?$CC?$AAv?$AAe?$AAc?$AAt?$AAo?$AAr?$AA?5?$AAs?$AAu?$AAb?$AAs?$AAc?$AAr?$AAi?$AAp?$AAt?$AA?5?$AAo?$AAu?$AAt?$AA?5?$AAo?$AAf?$AA?5?$AAr?$AAa?$AAn?$AAg?$AAe?$AA?$CC?$AA?$AA@ 004774d0     CommonPathfindingLib:GridVisualizer.obj
 0003:00004520       ??_C@_1BIE@CKJBPEOB@?$AAs?$AAt?$AAd?$AA?3?$AA?3?$AA_?$AAT?$AAr?$AAe?$AAe?$AA_?$AAc?$AAo?$AAn?$AAs?$AAt?$AA_?$AAi?$AAt?$AAe?$AAr?$AAa?$AAt?$AAo?$AAr?$AA?$DM?$AAc?$AAl?$AAa?$AAs?$AAs?$AA?5@ 00477520     CommonPathfindingLib:GridVisualizer.obj
 0003:000046f8       ??_C@_1BIE@IKGMBNCE@?$AAs?$AAt?$AAd?$AA?3?$AA?3?$AA_?$AAT?$AAr?$AAe?$AAe?$AA_?$AAc?$AAo?$AAn?$AAs?$AAt?$AA_?$AAi?$AAt?$AAe?$AAr?$AAa?$AAt?$AAo?$AAr?$AA?$DM?$AAc?$AAl?$AAa?$AAs?$AAs?$AA?5@ 004776f8     CommonPathfindingLib:GridVisualizer.obj
 0003:000048d0       ??_C@_1BIC@KMEIKKAA@?$AAs?$AAt?$AAd?$AA?3?$AA?3?$AA_?$AAT?$AAr?$AAe?$AAe?$AA_?$AAc?$AAo?$AAn?$AAs?$AAt?$AA_?$AAi?$AAt?$AAe?$AAr?$AAa?$AAt?$AAo?$AAr?$AA?$DM?$AAc?$AAl?$AAa?$AAs?$AAs?$AA?5@ 004778d0     CommonPathfindingLib:GridVisualizer.obj
 0003:00004aa0       ??_C@_1CO@DGLIKNHI@?$AAi?$AAn?$AAv?$AAa?$AAl?$AAi?$AAd?$AA?5?$AAi?$AAt?$AAe?$AAr?$AAa?$AAt?$AAo?$AAr?$AA?5?$AAr?$AAa?$AAn?$AAg?$AAe?$AA?$AA@ 00477aa0     CommonPathfindingLib:GridVisualizer.obj
 0003:00004ad8       ??_C@_1CG@MDICLDJA@?$AAs?$AAt?$AAd?$AA?3?$AA?3?$AA_?$AAD?$AAe?$AAb?$AAu?$AAg?$AA_?$AAr?$AAa?$AAn?$AAg?$AAe?$AA2?$AA?$AA@ 00477ad8     CommonPathfindingLib:GridVisualizer.obj
 0003:00004b08       ??_C@_1DC@CHPPODDE@?$AA?$CC?$AAi?$AAn?$AAv?$AAa?$AAl?$AAi?$AAd?$AA?5?$AAi?$AAt?$AAe?$AAr?$AAa?$AAt?$AAo?$AAr?$AA?5?$AAr?$AAa?$AAn?$AAg?$AAe?$AA?$CC?$AA?$AA@ 00477b08     CommonPathfindingLib:GridVisualizer.obj
 0003:00004b48       ??_C@_1CBO@JCPLFJGN@?$AAs?$AAt?$AAd?$AA?3?$AA?3?$AA_?$AAT?$AAr?$AAe?$AAe?$AA?$DM?$AAc?$AAl?$AAa?$AAs?$AAs?$AA?5?$AAs?$AAt?$AAd?$AA?3?$AA?3?$AA_?$AAT?$AAm?$AAa?$AAp?$AA_?$AAt?$AAr?$AAa?$AAi@ 00477b48     CommonPathfindingLib:GridVisualizer.obj
 0003:00004dd8       ??_C@_1BIE@HJFOKBOF@?$AAs?$AAt?$AAd?$AA?3?$AA?3?$AA_?$AAT?$AAr?$AAe?$AAe?$AA_?$AAc?$AAo?$AAn?$AAs?$AAt?$AA_?$AAi?$AAt?$AAe?$AAr?$AAa?$AAt?$AAo?$AAr?$AA?$DM?$AAc?$AAl?$AAa?$AAs?$AAs?$AA?5@ 00477dd8     CommonPathfindingLib:GridVisualizer.obj
 0003:00004fb0       ??_C@_1BDG@FMPDPFCM@?$AAs?$AAt?$AAd?$AA?3?$AA?3?$AA_?$AAT?$AAr?$AAe?$AAe?$AA?$DM?$AAc?$AAl?$AAa?$AAs?$AAs?$AA?5?$AAs?$AAt?$AAd?$AA?3?$AA?3?$AA_?$AAT?$AAm?$AAa?$AAp?$AA_?$AAt?$AAr?$AAa?$AAi@ 00477fb0     CommonPathfindingLib:SpriteManager.obj
 0003:00005128       ??_C@_1BBK@NOPGMEMI@?$AAs?$AAt?$AAd?$AA?3?$AA?3?$AA_?$AAT?$AAr?$AAe?$AAe?$AA_?$AAc?$AAo?$AAn?$AAs?$AAt?$AA_?$AAi?$AAt?$AAe?$AAr?$AAa?$AAt?$AAo?$AAr?$AA?$DM?$AAc?$AAl?$AAa?$AAs?$AAs?$AA?5@ 00478128     CommonPathfindingLib:SpriteManager.obj
 0003:00005280       ??_C@_1BBK@HOALCNAN@?$AAs?$AAt?$AAd?$AA?3?$AA?3?$AA_?$AAT?$AAr?$AAe?$AAe?$AA_?$AAc?$AAo?$AAn?$AAs?$AAt?$AA_?$AAi?$AAt?$AAe?$AAr?$AAa?$AAt?$AAo?$AAr?$AA?$DM?$AAc?$AAl?$AAa?$AAs?$AAs?$AA?5@ 00478280     CommonPathfindingLib:SpriteManager.obj
 0003:000053d8       ??_C@_1BBI@EPEKJCPI@?$AAs?$AAt?$AAd?$AA?3?$AA?3?$AA_?$AAT?$AAr?$AAe?$AAe?$AA_?$AAc?$AAo?$AAn?$AAs?$AAt?$AA_?$AAi?$AAt?$AAe?$AAr?$AAa?$AAt?$AAo?$AAr?$AA?$DM?$AAc?$AAl?$AAa?$AAs?$AAs?$AA?5@ 004783d8     CommonPathfindingLib:SpriteManager.obj
 0003:00005528       ??_C@_1BEE@CNJKDIFF@?$AAs?$AAt?$AAd?$AA?3?$AA?3?$AA_?$AAT?$AAr?$AAe?$AAe?$AA?$DM?$AAc?$AAl?$AAa?$AAs?$AAs?$AA?5?$AAs?$AAt?$AAd?$AA?3?$AA?3?$AA_?$AAT?$AAm?$AAa?$AAp?$AA_?$AAt?$AAr?$AAa?$AAi@ 00478528     CommonPathfindingLib:SpriteManager.obj
 0003:000056b0       ??_C@_1BBK@INDJJBMM@?$AAs?$AAt?$AAd?$AA?3?$AA?3?$AA_?$AAT?$AAr?$AAe?$AAe?$AA_?$AAc?$AAo?$AAn?$AAs?$AAt?$AA_?$AAi?$AAt?$AAe?$AAr?$AAa?$AAt?$AAo?$AAr?$AA?$DM?$AAc?$AAl?$AAa?$AAs?$AAs?$AA?5@ 004786b0     CommonPathfindingLib:SpriteManager.obj
 0003:00005804       ??_C@_0CL@CGPALMN@GraphicsSystem?3?3failed?5to?5create@ 00478804     CommonPathfindingLib:GraphicsSystem.obj
 0003:00005838       __real@3f800000            00478838     CommonPathfindingLib:GraphicsSystem.obj
 0003:0000583c       __real@00000000            0047883c     CommonPathfindingLib:Sprite.obj
 0003:00005840       __real@0000000000000000    00478840     DeanLib:Timer.obj
 0003:00005850       __real@4024000000000000    00478850     DeanLib:Timer.obj
 0003:00005860       __real@408f400000000000    00478860     DeanLib:Timer.obj
 0003:00005870       ??_C@_1NC@LGJMFBHG@?$AAc?$AA?3?$AA?2?$AAp?$AAr?$AAo?$AAg?$AAr?$AAa?$AAm?$AA?5?$AAf?$AAi?$AAl?$AAe?$AAs?$AA?5?$AA?$CI?$AAx?$AA8?$AA6?$AA?$CJ?$AA?2?$AAm?$AAi?$AAc?$AAr?$AAo?$AAs?$AAo?$AAf?$AAt@ 00478870     DeanLib:MemoryTracker.obj
 0003:00005970       ??_C@_1NC@ELHHIENF@?$AAc?$AA?3?$AA?2?$AAp?$AAr?$AAo?$AAg?$AAr?$AAa?$AAm?$AA?5?$AAf?$AAi?$AAl?$AAe?$AAs?$AA?5?$AA?$CI?$AAx?$AA8?$AA6?$AA?$CJ?$AA?2?$AAm?$AAi?$AAc?$AAr?$AAo?$AAs?$AAo?$AAf?$AAt@ 00478970     DeanLib:MemoryTracker.obj
 0003:00005a6c       ??_C@_0DI@GKEBKCHH@MemoryTracker?5being?5deleted?3?5fin@ 00478a6c     DeanLib:MemoryTracker.obj
 0003:00005ab0       ??_C@_0BN@IJFAENGF@Current?5memory?5allocations?3?6?$AA@ 00478ab0     DeanLib:MemoryTracker.obj
 0003:00005ad4       ??_C@_05FGNEEEOC@?5num?3?$AA@ 00478ad4     DeanLib:MemoryTracker.obj
 0003:00005adc       ??_C@_06NLINOEAE@?5size?3?$AA@ 00478adc     DeanLib:MemoryTracker.obj
 0003:00005ae4       ??_C@_08GEBKOLPE@address?3?$AA@ 00478ae4     DeanLib:MemoryTracker.obj
 0003:00005af0       ??_C@_1MM@JPKBOFNK@?$AAc?$AA?3?$AA?2?$AAp?$AAr?$AAo?$AAg?$AAr?$AAa?$AAm?$AA?5?$AAf?$AAi?$AAl?$AAe?$AAs?$AA?5?$AA?$CI?$AAx?$AA8?$AA6?$AA?$CJ?$AA?2?$AAm?$AAi?$AAc?$AAr?$AAo?$AAs?$AAo?$AAf?$AAt@ 00478af0     DeanLib:MemoryTracker.obj
 0003:00005be8       ??_C@_1BDA@PAJOLEOP@?$AAs?$AAt?$AAd?$AA?3?$AA?3?$AA_?$AAT?$AAr?$AAe?$AAe?$AA_?$AAc?$AAo?$AAn?$AAs?$AAt?$AA_?$AAi?$AAt?$AAe?$AAr?$AAa?$AAt?$AAo?$AAr?$AA?$DM?$AAc?$AAl?$AAa?$AAs?$AAs?$AA?5@ 00478be8     DeanLib:MemoryTracker.obj
 0003:00005d58       ??_C@_1BDA@FAGDFNCK@?$AAs?$AAt?$AAd?$AA?3?$AA?3?$AA_?$AAT?$AAr?$AAe?$AAe?$AA_?$AAc?$AAo?$AAn?$AAs?$AAt?$AA_?$AAi?$AAt?$AAe?$AAr?$AAa?$AAt?$AAo?$AAr?$AA?$DM?$AAc?$AAl?$AAa?$AAs?$AAs?$AA?5@ 00478d58     DeanLib:MemoryTracker.obj
 0003:00005ec8       ??_C@_1BCO@OEOBCANG@?$AAs?$AAt?$AAd?$AA?3?$AA?3?$AA_?$AAT?$AAr?$AAe?$AAe?$AA_?$AAc?$AAo?$AAn?$AAs?$AAt?$AA_?$AAi?$AAt?$AAe?$AAr?$AAa?$AAt?$AAo?$AAr?$AA?$DM?$AAc?$AAl?$AAa?$AAs?$AAs?$AA?5@ 00478ec8     DeanLib:MemoryTracker.obj
 0003:00006038       ??_C@_1BGK@MALKCOLG@?$AAs?$AAt?$AAd?$AA?3?$AA?3?$AA_?$AAT?$AAr?$AAe?$AAe?$AA?$DM?$AAc?$AAl?$AAa?$AAs?$AAs?$AA?5?$AAs?$AAt?$AAd?$AA?3?$AA?3?$AA_?$AAT?$AAm?$AAa?$AAp?$AA_?$AAt?$AAr?$AAa?$AAi@ 00479038     DeanLib:MemoryTracker.obj
 0003:000061f0       ??_C@_1BDA@KDFBOBOL@?$AAs?$AAt?$AAd?$AA?3?$AA?3?$AA_?$AAT?$AAr?$AAe?$AAe?$AA_?$AAc?$AAo?$AAn?$AAs?$AAt?$AA_?$AAi?$AAt?$AAe?$AAr?$AAa?$AAt?$AAo?$AAr?$AA?$DM?$AAc?$AAl?$AAa?$AAs?$AAs?$AA?5@ 004791f0     DeanLib:MemoryTracker.obj
 0003:0000635c       __real@00800000            0047935c     DeanLib:Vector2D.obj
 0003:00006360       ??_C@_0CM@OKINAFCK@f?3?2dd?2vctools?2crt?2crtw32?2stdcpp?2@ 00479360     msvcprtd:locale0_implib.obj
 0003:00006398       ??_7type_info@@6B@         00479398     MSVCRTD:std_type_info_static.obj
 0003:00006440       ??_7bad_alloc@std@@6B@     00479440     MSVCRTD:throw_bad_alloc.obj
 0003:0000644c       ??_C@_0P@GHFPNOJB@bad?5allocation?$AA@ 0047944c     MSVCRTD:throw_bad_alloc.obj
 0003:00006464       ??_7bad_array_new_length@std@@6B@ 00479464     MSVCRTD:throw_bad_alloc.obj
 0003:00006470       ??_C@_0BF@KINCDENJ@bad?5array?5new?5length?$AA@ 00479470     MSVCRTD:throw_bad_alloc.obj
 0003:00006548       ??_C@_0NN@NGPKDKPD@The?5value?5of?5ESP?5was?5not?5properl@ 00479548     MSVCRTD:_error_.obj
 0003:00006658       ??_C@_0BBN@GPMLNJCF@A?5cast?5to?5a?5smaller?5data?5type?5ha@ 00479658     MSVCRTD:_error_.obj
 0003:000067b0       ??_C@_0BN@FFOINMNJ@Stack?5memory?5was?5corrupted?6?$AN?$AA@ 004797b0     MSVCRTD:_error_.obj
 0003:000067d4       ??_C@_0DG@HKJMLLLP@A?5local?5variable?5was?5used?5before@ 004797d4     MSVCRTD:_error_.obj
 0003:00006814       ??_C@_0CM@NGINOKPC@Stack?5memory?5around?5_alloca?5was?5@ 00479814     MSVCRTD:_error_.obj
 0003:00006848       ??_C@_0BO@GNIAFIKK@Unknown?5Runtime?5Check?5Error?6?$AN?$AA@ 00479848     MSVCRTD:_error_.obj
 0003:00006870       ??_C@_1GM@OLMCBDMB@?$AAR?$AAu?$AAn?$AAt?$AAi?$AAm?$AAe?$AA?5?$AAC?$AAh?$AAe?$AAc?$AAk?$AA?5?$AAE?$AAr?$AAr?$AAo?$AAr?$AA?4?$AA?6?$AA?$AN?$AA?5?$AAU?$AAn?$AAa?$AAb?$AAl?$AAe?$AA?5?$AAt?$AAo@ 00479870     MSVCRTD:_error_.obj
 0003:000068f8       ??_C@_1EA@NFKNIFJP@?$AAR?$AAu?$AAn?$AA?9?$AAT?$AAi?$AAm?$AAe?$AA?5?$AAC?$AAh?$AAe?$AAc?$AAk?$AA?5?$AAF?$AAa?$AAi?$AAl?$AAu?$AAr?$AAe?$AA?5?$AA?$CD?$AA?$CF?$AAd?$AA?5?$AA?9?$AA?5?$AA?$CF?$AAs?$AA?$AA@ 004798f8     MSVCRTD:_error_.obj
 0003:00006944       ??_C@_0BB@PFFGGCJP@Unknown?5Filename?$AA@ 00479944     MSVCRTD:_error_.obj
 0003:00006958       ??_C@_0BE@GNBOBNCK@Unknown?5Module?5Name?$AA@ 00479958     MSVCRTD:_error_.obj
 0003:00006970       ??_C@_0CA@IODNCDPG@Run?9Time?5Check?5Failure?5?$CD?$CFd?5?9?5?$CFs?$AA@ 00479970     MSVCRTD:_error_.obj
 0003:00006998       ??_C@_0CG@IAFNJNEE@Stack?5corrupted?5near?5unknown?5var@ 00479998     MSVCRTD:_error_.obj
 0003:000069c8       ??_C@_05MKKEDADM@?$CF?42X?5?$AA@ 004799c8     MSVCRTD:_error_.obj
 0003:000069d0       ??_C@_0EJ@LJKNEOLN@Stack?5area?5around?5_alloca?5memory@ 004799d0     MSVCRTD:_error_.obj
 0003:00006a28       ??_C@_01EEMJAFIK@?6?$AA@   00479a28     MSVCRTD:_error_.obj
 0003:00006a2c       ??_C@_02LLMPMKNF@?$DO?5?$AA@ 00479a2c     MSVCRTD:_error_.obj
 0003:00006a30       ??_C@_08OMAHNMHJ@?6Data?3?5?$DM?$AA@ 00479a30     MSVCRTD:_error_.obj
 0003:00006a3c       ??_C@_0CK@DKGBICFE@?6Allocation?5number?5within?5this?5f@ 00479a3c     MSVCRTD:_error_.obj
 0003:00006a70       ??_C@_07DFDJCKFN@?6Size?3?5?$AA@ 00479a70     MSVCRTD:_error_.obj
 0003:00006a7c       ??_C@_0N@MHFFIMFG@?6Address?3?50x?$AA@ 00479a7c     MSVCRTD:_error_.obj
 0003:00006a90       ??_C@_0EI@CLEPFNGI@Stack?5area?5around?5_alloca?5memory@ 00479a90     MSVCRTD:_error_.obj
 0003:00006ae8       ??_C@_0BK@ODNDAGKB@?$CFs?$CFs?$CFp?$CFs?$CFzd?$CFs?$CFd?$CFs?$CFs?$CFs?$CFs?$CFs?$AA@ 00479ae8     MSVCRTD:_error_.obj
 0003:00006b08       ??_C@_0DE@OHJBPMBP@A?5variable?5is?5being?5used?5without@ 00479b08     MSVCRTD:_error_.obj
 0003:00006b6c       ??_C@_0BJ@HEGAHDFO@Stack?5pointer?5corruption?$AA@ 00479b6c     MSVCRTD:_userapi_.obj
 0003:00006b8c       ??_C@_0CK@FEGOIOPB@Cast?5to?5smaller?5type?5causing?5los@ 00479b8c     MSVCRTD:_userapi_.obj
 0003:00006bc0       ??_C@_0BI@CIGMDCBH@Stack?5memory?5corruption?$AA@ 00479bc0     MSVCRTD:_userapi_.obj
 0003:00006bdc       ??_C@_0CK@CNLNOEPB@Local?5variable?5used?5before?5initi@ 00479bdc     MSVCRTD:_userapi_.obj
 0003:00006c10       ??_C@_0BP@OGBCLIBO@Stack?5around?5_alloca?5corrupted?$AA@ 00479c10     MSVCRTD:_userapi_.obj
 0003:00006c90       ??_C@_1EI@MLPKHBGE@?$AAa?$AAp?$AAi?$AA?9?$AAm?$AAs?$AA?9?$AAw?$AAi?$AAn?$AA?9?$AAc?$AAo?$AAr?$AAe?$AA?9?$AAr?$AAe?$AAg?$AAi?$AAs?$AAt?$AAr?$AAy?$AA?9?$AAl?$AA1?$AA?9?$AA1?$AA?9?$AA0?$AA?4@ 00479c90     MSVCRTD:_pdblkup_.obj
 0003:00006ce8       ??_C@_1BK@JHLNAEJL@?$AAa?$AAd?$AAv?$AAa?$AAp?$AAi?$AA3?$AA2?$AA?4?$AAd?$AAl?$AAl?$AA?$AA@ 00479ce8     MSVCRTD:_pdblkup_.obj
 0003:00006d08       ??_C@_0O@COHOBMLB@RegOpenKeyExW?$AA@ 00479d08     MSVCRTD:_pdblkup_.obj
 0003:00006d18       ??_C@_0BB@GLNAEDBD@RegQueryValueExW?$AA@ 00479d18     MSVCRTD:_pdblkup_.obj
 0003:00006d2c       ??_C@_0M@HLOHPNFA@RegCloseKey?$AA@ 00479d2c     MSVCRTD:_pdblkup_.obj
 0003:00006d40       ??_C@_1HE@EBEAGLFB@?$AAS?$AAO?$AAF?$AAT?$AAW?$AAA?$AAR?$AAE?$AA?2?$AAW?$AAo?$AAw?$AA6?$AA4?$AA3?$AA2?$AAN?$AAo?$AAd?$AAe?$AA?2?$AAM?$AAi?$AAc?$AAr?$AAo?$AAs?$AAo?$AAf?$AAt?$AA?2?$AAV@ 00479d40     MSVCRTD:_pdblkup_.obj
 0003:00006dcc       ??_C@_1BG@EABPBLLF@?$AAP?$AAr?$AAo?$AAd?$AAu?$AAc?$AAt?$AAD?$AAi?$AAr?$AA?$AA@ 00479dcc     MSVCRTD:_pdblkup_.obj
 0003:00006e0c       ??_C@_1BC@JINFINNJ@?$AAM?$AAS?$AAP?$AAD?$AAB?$AA1?$AA4?$AA0?$AA?$AA@ 00479e0c     MSVCRTD:_pdblkup_.obj
 0003:00006e24       ??_C@_0BB@KCIACLNC@PDBOpenValidate5?$AA@ 00479e24     MSVCRTD:_pdblkup_.obj
 0003:00006e38       ??_C@_01KDCPPGHE@r?$AA@    00479e38     MSVCRTD:_pdblkup_.obj
 0003:00006e78       __load_config_used         00479e78     MSVCRTD:loadcfg.obj
 0003:000070b4       ??_R4Editor@@6B@           0047a0b4     Editor.obj
 0003:000070cc       ??_R3Editor@@8             0047a0cc     Editor.obj
 0003:000070e0       ??_R2Editor@@8             0047a0e0     Editor.obj
 0003:000070f0       ??_R1A@?0A@EA@Editor@@8    0047a0f0     Editor.obj
 0003:00007114       ??_R1A@?0A@EA@Game@@8      0047a114     Editor.obj
 0003:00007138       ??_R3Game@@8               0047a138     Editor.obj
 0003:0000714c       ??_R2Game@@8               0047a14c     Editor.obj
 0003:00007158       ??_R13?0A@EA@Trackable@@8  0047a158     Editor.obj
 0003:0000717c       ??_R3Trackable@@8          0047a17c     Editor.obj
 0003:00007190       ??_R2Trackable@@8          0047a190     Editor.obj
 0003:00007198       ??_R1A@?0A@EA@Trackable@@8 0047a198     Editor.obj
 0003:000071bc       ??_R4exception@std@@6B@    0047a1bc     main.obj
 0003:000071d4       ??_R3exception@std@@8      0047a1d4     main.obj
 0003:000071e8       ??_R2exception@std@@8      0047a1e8     main.obj
 0003:000071f0       ??_R1A@?0A@EA@exception@std@@8 0047a1f0     main.obj
 0003:00007214       ??_R4?$basic_filebuf@DU?$char_traits@D@std@@@std@@6B@ 0047a214     main.obj
 0003:0000722c       ??_R3?$basic_filebuf@DU?$char_traits@D@std@@@std@@8 0047a22c     main.obj
 0003:00007240       ??_R2?$basic_filebuf@DU?$char_traits@D@std@@@std@@8 0047a240     main.obj
 0003:0000724c       ??_R1A@?0A@EA@?$basic_filebuf@DU?$char_traits@D@std@@@std@@8 0047a24c     main.obj
 0003:00007270       ??_R1A@?0A@EA@?$basic_streambuf@DU?$char_traits@D@std@@@std@@8 0047a270     main.obj
 0003:00007294       ??_R3?$basic_streambuf@DU?$char_traits@D@std@@@std@@8 0047a294     main.obj
 0003:000072a8       ??_R2?$basic_streambuf@DU?$char_traits@D@std@@@std@@8 0047a2a8     main.obj
 0003:000072b0       ??_R4?$basic_ifstream@DU?$char_traits@D@std@@@std@@6B@ 0047a2b0     main.obj
 0003:000072c8       ??_R3?$basic_ifstream@DU?$char_traits@D@std@@@std@@8 0047a2c8     main.obj
 0003:000072dc       ??_R2?$basic_ifstream@DU?$char_traits@D@std@@@std@@8 0047a2dc     main.obj
 0003:000072f8       ??_R1A@?0A@EA@?$basic_ifstream@DU?$char_traits@D@std@@@std@@8 0047a2f8     main.obj
 0003:0000731c       ??_R1A@?0A@EA@?$basic_istream@DU?$char_traits@D@std@@@std@@8 0047a31c     main.obj
 0003:00007340       ??_R3?$basic_istream@DU?$char_traits@D@std@@@std@@8 0047a340     main.obj
 0003:00007354       ??_R2?$basic_istream@DU?$char_traits@D@std@@@std@@8 0047a354     main.obj
 0003:00007368       ??_R1A@A@3FA@?$basic_ios@DU?$char_traits@D@std@@@std@@8 0047a368     main.obj
 0003:0000738c       ??_R3?$basic_ios@DU?$char_traits@D@std@@@std@@8 0047a38c     main.obj
 0003:000073a0       ??_R2?$basic_ios@DU?$char_traits@D@std@@@std@@8 0047a3a0     main.obj
 0003:000073b0       ??_R1A@?0A@EA@?$basic_ios@DU?$char_traits@D@std@@@std@@8 0047a3b0     main.obj
 0003:000073d4       ??_R1A@?0A@EA@ios_base@std@@8 0047a3d4     main.obj
 0003:000073f8       ??_R3ios_base@std@@8       0047a3f8     main.obj
 0003:0000740c       ??_R2ios_base@std@@8       0047a40c     main.obj
 0003:00007418       ??_R17?0A@EA@?$_Iosb@H@std@@8 0047a418     main.obj
 0003:0000743c       ??_R3?$_Iosb@H@std@@8      0047a43c     main.obj
 0003:00007450       ??_R2?$_Iosb@H@std@@8      0047a450     main.obj
 0003:00007458       ??_R1A@?0A@EA@?$_Iosb@H@std@@8 0047a458     main.obj
 0003:0000747c       ??_R1A@A@3EA@ios_base@std@@8 0047a47c     main.obj
 0003:000074a0       ??_R17A@3EA@?$_Iosb@H@std@@8 0047a4a0     main.obj
 0003:000074c4       ??_R4?$basic_ofstream@DU?$char_traits@D@std@@@std@@6B@ 0047a4c4     main.obj
 0003:000074dc       ??_R3?$basic_ofstream@DU?$char_traits@D@std@@@std@@8 0047a4dc     main.obj
 0003:000074f0       ??_R2?$basic_ofstream@DU?$char_traits@D@std@@@std@@8 0047a4f0     main.obj
 0003:0000750c       ??_R1A@?0A@EA@?$basic_ofstream@DU?$char_traits@D@std@@@std@@8 0047a50c     main.obj
 0003:00007530       ??_R1A@?0A@EA@?$basic_ostream@DU?$char_traits@D@std@@@std@@8 0047a530     main.obj
 0003:00007554       ??_R3?$basic_ostream@DU?$char_traits@D@std@@@std@@8 0047a554     main.obj
 0003:00007568       ??_R2?$basic_ostream@DU?$char_traits@D@std@@@std@@8 0047a568     main.obj
 0003:0000757c       ??_R4bad_cast@std@@6B@     0047a57c     main.obj
 0003:00007594       ??_R3bad_cast@std@@8       0047a594     main.obj
 0003:000075a8       ??_R2bad_cast@std@@8       0047a5a8     main.obj
 0003:000075b4       ??_R1A@?0A@EA@bad_cast@std@@8 0047a5b4     main.obj
 0003:000075d8       ??_R4Game@@6B@             0047a5d8     CommonPathfindingLib:Game.obj
 0003:000075f0       ??_R4type_info@@6B@        0047a5f0     MSVCRTD:std_type_info_static.obj
 0003:00007608       ??_R3type_info@@8          0047a608     MSVCRTD:std_type_info_static.obj
 0003:0000761c       ??_R2type_info@@8          0047a61c     MSVCRTD:std_type_info_static.obj
 0003:00007624       ??_R1A@?0A@EA@type_info@@8 0047a624     MSVCRTD:std_type_info_static.obj
 0003:00007648       ??_R4bad_alloc@std@@6B@    0047a648     MSVCRTD:throw_bad_alloc.obj
 0003:00007660       ??_R3bad_alloc@std@@8      0047a660     MSVCRTD:throw_bad_alloc.obj
 0003:00007674       ??_R2bad_alloc@std@@8      0047a674     MSVCRTD:throw_bad_alloc.obj
 0003:00007680       ??_R1A@?0A@EA@bad_alloc@std@@8 0047a680     MSVCRTD:throw_bad_alloc.obj
 0003:000076a4       ??_R4bad_array_new_length@std@@6B@ 0047a6a4     MSVCRTD:throw_bad_alloc.obj
 0003:000076bc       ??_R3bad_array_new_length@std@@8 0047a6bc     MSVCRTD:throw_bad_alloc.obj
 0003:000076d0       ??_R2bad_array_new_length@std@@8 0047a6d0     MSVCRTD:throw_bad_alloc.obj
 0003:000076e0       ??_R1A@?0A@EA@bad_array_new_length@std@@8 0047a6e0     MSVCRTD:throw_bad_alloc.obj
 0003:000079d0       ___rtc_iaa                 0047a9d0     MSVCRTD:_initsect_.obj
 0003:00007c18       ___rtc_izz                 0047ac18     MSVCRTD:_initsect_.obj
 0003:00007d1c       ___rtc_taa                 0047ad1c     MSVCRTD:_initsect_.obj
 0003:00007f64       ___rtc_tzz                 0047af64     MSVCRTD:_initsect_.obj
 0003:00008714       __CT??_R0?AVexception@std@@@8??0exception@std@@QAE@ABV01@@Z12 0047b714     main.obj
 0003:00008734       __TI2?AVbad_cast@std@@     0047b734     main.obj
 0003:00008748       __CTA2?AVbad_cast@std@@    0047b748     main.obj
 0003:00008758       __CT??_R0?AVbad_cast@std@@@8??0bad_cast@std@@QAE@ABV01@@Z12 0047b758     main.obj
 0003:0000af98       __TI2?AVbad_alloc@std@@    0047df98     MSVCRTD:throw_bad_alloc.obj
 0003:0000afac       __CTA2?AVbad_alloc@std@@   0047dfac     MSVCRTD:throw_bad_alloc.obj
 0003:0000afbc       __CT??_R0?AVbad_alloc@std@@@8??0bad_alloc@std@@QAE@ABV01@@Z12 0047dfbc     MSVCRTD:throw_bad_alloc.obj
 0003:0000afdc       __TI3?AVbad_array_new_length@std@@ 0047dfdc     MSVCRTD:throw_bad_alloc.obj
 0003:0000aff0       __CTA3?AVbad_array_new_length@std@@ 0047dff0     MSVCRTD:throw_bad_alloc.obj
 0003:0000b004       __CT??_R0?AVbad_array_new_length@std@@@8??0bad_array_new_length@std@@QAE@ABV01@@Z12 0047e004     MSVCRTD:throw_bad_alloc.obj
 0004:00000000       ?__LINE__Var@?0??_Allocate@std@@YAPAXII_N@Z@4JA 0047f000     Editor.obj
 0004:00000004       ?__LINE__Var@?0??_Deallocate@std@@YAXPAXII@Z@4JA 0047f004     Editor.obj
 0004:00000008       ?__LINE__Var@?0??lerp@@YAMHHH@Z@4JA 0047f008     CommonPathfindingLib:Game.obj
 0004:00000058       ___security_cookie_complement 0047f058     MSVCRTD:gs_cookie.obj
 0004:0000005c       ___security_cookie         0047f05c     MSVCRTD:gs_cookie.obj
 0004:00000064       __fltused                  0047f064     MSVCRTD:fltused.obj
 0004:00000068       ___scrt_native_dllmain_reason 0047f068     MSVCRTD:utility.obj
 0004:00000070       ?_RTC_ErrorLevels@@3PAHA   0047f070     MSVCRTD:_error_.obj
 0004:00000088       ___isa_enabled             0047f088     MSVCRTD:_cpu_disp_.obj
 0004:0000008c       ___scrt_default_matherr    0047f08c     MSVCRTD:matherr.obj
 0004:00000090       ___scrt_ucrt_dll_is_in_use 0047f090     MSVCRTD:ucrt_stubs.obj
 0004:000001a0       ??_R0?AVEditor@@@8         0047f1a0     Editor.obj
 0004:000001bc       ??_R0?AVGame@@@8           0047f1bc     Editor.obj
 0004:000001d4       ??_R0?AVTrackable@@@8      0047f1d4     Editor.obj
 0004:000001f0       ??_R0?AVexception@std@@@8  0047f1f0     main.obj
 0004:00000214       ??_R0?AVbad_cast@std@@@8   0047f214     main.obj
 0004:00000234       ??_R0?AV?$basic_filebuf@DU?$char_traits@D@std@@@std@@@8 0047f234     main.obj
 0004:0000027c       ??_R0?AV?$basic_streambuf@DU?$char_traits@D@std@@@std@@@8 0047f27c     main.obj
 0004:000002c4       ??_R0?AV?$basic_ifstream@DU?$char_traits@D@std@@@std@@@8 0047f2c4     main.obj
 0004:0000030c       ??_R0?AV?$basic_istream@DU?$char_traits@D@std@@@std@@@8 0047f30c     main.obj
 0004:00000354       ??_R0?AV?$basic_ios@DU?$char_traits@D@std@@@std@@@8 0047f354     main.obj
 0004:00000394       ??_R0?AVios_base@std@@@8   0047f394     main.obj
 0004:000003b4       ??_R0?AV?$_Iosb@H@std@@@8  0047f3b4     main.obj
 0004:000003d8       ??_R0?AV?$basic_ofstream@DU?$char_traits@D@std@@@std@@@8 0047f3d8     main.obj
 0004:00000420       ??_R0?AV?$basic_ostream@DU?$char_traits@D@std@@@std@@@8 0047f420     main.obj
 0004:00000468       ??_R0?AVtype_info@@@8      0047f468     MSVCRTD:std_type_info_static.obj
 0004:00000484       ??_R0?AVbad_alloc@std@@@8  0047f484     MSVCRTD:throw_bad_alloc.obj
 0004:000004a8       ??_R0?AVbad_array_new_length@std@@@8 0047f4a8     MSVCRTD:throw_bad_alloc.obj
 0004:00000628       ?_Stinit@?1??_Init@?$basic_filebuf@DU?$char_traits@D@std@@@std@@IAEXPAU_iobuf@@W4_Initfl@23@@Z@4U_Mbstatet@@A 0047f628     main.obj
 0004:00000634       ?_Psave@?$_Facetptr@V?$codecvt@DDU_Mbstatet@@@std@@@std@@2PBVfacet@locale@2@B 0047f634     main.obj
 0004:00000638       ?gpGame@@3PAVGame@@A       0047f638     CommonPathfindingLib:Game.obj
 0004:00000650       ?_OptionsStorage@?1??__local_stdio_printf_options@@9@4_KA 0047f650     CommonPathfindingLib:Game.obj
 0004:00000660       ?msNextID@GraphicsBufferManager@@0HA 0047f660     CommonPathfindingLib:GraphicsBufferManager.obj
 0004:00000684       ?msAllocationNum@MemoryTracker@@0HA 0047f684     DeanLib:MemoryTracker.obj
 0004:00000688       ?gMemoryTracker@@3VMemoryTracker@@A 0047f688     DeanLib:MemoryTracker.obj
 0004:00000698       ?gZeroVector2D@@3VVector2D@@A 0047f698     DeanLib:Vector2D.obj
 0004:000006ac       ___scrt_current_native_startup_state 0047f6ac     MSVCRTD:utility.obj
 0004:000006b0       ___scrt_native_startup_lock 0047f6b0     MSVCRTD:utility.obj
 0004:00000aa0       ___isa_available           0047faa0     MSVCRTD:_cpu_disp_.obj
 0004:00000aa4       ___favor                   0047faa4     MSVCRTD:_cpu_disp_.obj
 0004:00000aac       ___scrt_debugger_hook_flag 0047faac     MSVCRTD:utility_desktop.obj
 0004:00000ab0       ?__type_info_root_node@@3U__type_info_node@@A 0047fab0     MSVCRTD:tncleanup.obj
 0004:00000ac0       ?_OptionsStorage@?1??__local_stdio_scanf_options@@9@4_KA 0047fac0     MSVCRTD:default_local_stdio_options.obj
 0004:00000ad4       ___dyn_tls_dtor_callback   0047fad4     <common>
 0004:00000ae0       ___dyn_tls_init_callback   0047fae0     <common>
 0005:00000000       __imp__GetProcAddress@8    00480000     kernel32:KERNEL32.dll
 0005:00000004       __imp__FreeLibrary@4       00480004     kernel32:KERNEL32.dll
 0005:00000008       __imp__VirtualQuery@12     00480008     kernel32:KERNEL32.dll
 0005:0000000c       __imp__GetProcessHeap@0    0048000c     kernel32:KERNEL32.dll
 0005:00000010       __imp__HeapFree@12         00480010     kernel32:KERNEL32.dll
 0005:00000014       __imp__HeapAlloc@12        00480014     kernel32:KERNEL32.dll
 0005:00000018       __imp__GetLastError@0      00480018     kernel32:KERNEL32.dll
 0005:0000001c       __imp__InitializeSListHead@4 0048001c     kernel32:KERNEL32.dll
 0005:00000020       __imp__GetSystemTimeAsFileTime@4 00480020     kernel32:KERNEL32.dll
 0005:00000024       __imp__GetCurrentThreadId@0 00480024     kernel32:KERNEL32.dll
 0005:00000028       __imp__GetCurrentProcessId@0 00480028     kernel32:KERNEL32.dll
 0005:0000002c       __imp__GetModuleHandleW@4  0048002c     kernel32:KERNEL32.dll
 0005:00000030       __imp__GetStartupInfoW@4   00480030     kernel32:KERNEL32.dll
 0005:00000034       __imp__IsProcessorFeaturePresent@4 00480034     kernel32:KERNEL32.dll
 0005:00000038       __imp__TerminateProcess@8  00480038     kernel32:KERNEL32.dll
 0005:0000003c       __imp__GetCurrentProcess@0 0048003c     kernel32:KERNEL32.dll
 0005:00000040       __imp__SetUnhandledExceptionFilter@4 00480040     kernel32:KERNEL32.dll
 0005:00000044       __imp__UnhandledExceptionFilter@4 00480044     kernel32:KERNEL32.dll
 0005:00000048       __imp__WideCharToMultiByte@32 00480048     kernel32:KERNEL32.dll
 0005:0000004c       __imp__MultiByteToWideChar@24 0048004c     kernel32:KERNEL32.dll
 0005:00000050       __imp__RaiseException@16   00480050     kernel32:KERNEL32.dll
 0005:00000054       __imp__IsDebuggerPresent@0 00480054     kernel32:KERNEL32.dll
 0005:00000058       __imp__QueryPerformanceFrequency@4 00480058     kernel32:KERNEL32.dll
 0005:0000005c       __imp__QueryPerformanceCounter@4 0048005c     kernel32:KERNEL32.dll
 0005:00000060       __imp__Sleep@4             00480060     kernel32:KERNEL32.dll
 0005:00000064       \177KERNEL32_NULL_THUNK_DATA 00480064     kernel32:KERNEL32.dll
 0005:000000a4       __imp_??6?$basic_ostream@DU?$char_traits@D@std@@@std@@QAEAAV01@P6AAAV01@AAV01@@Z@Z 004800a4     msvcprtd:MSVCP140D.dll
 0005:000000a8       __imp_?widen@?$basic_ios@DU?$char_traits@D@std@@@std@@QBEDD@Z 004800a8     msvcprtd:MSVCP140D.dll
 0005:000000ac       __imp_??5?$basic_istream@DU?$char_traits@D@std@@@std@@QAEAAV01@AAH@Z 004800ac     msvcprtd:MSVCP140D.dll
 0005:000000b0       __imp_??6?$basic_ostream@DU?$char_traits@D@std@@@std@@QAEAAV01@H@Z 004800b0     msvcprtd:MSVCP140D.dll
 0005:000000b4       __imp_?cout@std@@3V?$basic_ostream@DU?$char_traits@D@std@@@1@A 004800b4     msvcprtd:MSVCP140D.dll
 0005:000000b8       __imp_?id@?$codecvt@DDU_Mbstatet@@@std@@2V0locale@2@A 004800b8     msvcprtd:MSVCP140D.dll
 0005:000000bc       __imp_?_BADOFF@std@@3_JB   004800bc     msvcprtd:MSVCP140D.dll
 0005:000000c0       __imp_?xsputn@?$basic_streambuf@DU?$char_traits@D@std@@@std@@MAE_JPBD_J@Z 004800c0     msvcprtd:MSVCP140D.dll
 0005:000000c4       __imp_?xsgetn@?$basic_streambuf@DU?$char_traits@D@std@@@std@@MAE_JPAD_J@Z 004800c4     msvcprtd:MSVCP140D.dll
 0005:000000c8       __imp_?showmanyc@?$basic_streambuf@DU?$char_traits@D@std@@@std@@MAE_JXZ 004800c8     msvcprtd:MSVCP140D.dll
 0005:000000cc       __imp_?_Fiopen@std@@YAPAU_iobuf@@PBDHH@Z 004800cc     msvcprtd:MSVCP140D.dll
 0005:000000d0       __imp_??1?$basic_istream@DU?$char_traits@D@std@@@std@@UAE@XZ 004800d0     msvcprtd:MSVCP140D.dll
 0005:000000d4       __imp_??0?$basic_istream@DU?$char_traits@D@std@@@std@@QAE@PAV?$basic_streambuf@DU?$char_traits@D@std@@@1@_N@Z 004800d4     msvcprtd:MSVCP140D.dll
 0005:000000d8       __imp_?flush@?$basic_ostream@DU?$char_traits@D@std@@@std@@QAEAAV12@XZ 004800d8     msvcprtd:MSVCP140D.dll
 0005:000000dc       __imp_?_Osfx@?$basic_ostream@DU?$char_traits@D@std@@@std@@QAEXXZ 004800dc     msvcprtd:MSVCP140D.dll
 0005:000000e0       __imp_??6?$basic_ostream@DU?$char_traits@D@std@@@std@@QAEAAV01@I@Z 004800e0     msvcprtd:MSVCP140D.dll
 0005:000000e4       __imp_??6?$basic_ostream@DU?$char_traits@D@std@@@std@@QAEAAV01@PBX@Z 004800e4     msvcprtd:MSVCP140D.dll
 0005:000000e8       __imp_?put@?$basic_ostream@DU?$char_traits@D@std@@@std@@QAEAAV12@D@Z 004800e8     msvcprtd:MSVCP140D.dll
 0005:000000ec       __imp_??0_Lockit@std@@QAE@H@Z 004800ec     msvcprtd:MSVCP140D.dll
 0005:000000f0       __imp_??1_Lockit@std@@QAE@XZ 004800f0     msvcprtd:MSVCP140D.dll
 0005:000000f4       __imp_?_Xbad_alloc@std@@YAXXZ 004800f4     msvcprtd:MSVCP140D.dll
 0005:000000f8       __imp_?_Xlength_error@std@@YAXPBD@Z 004800f8     msvcprtd:MSVCP140D.dll
 0005:000000fc       __imp_?_Xout_of_range@std@@YAXPBD@Z 004800fc     msvcprtd:MSVCP140D.dll
 0005:00000100       __imp_?uncaught_exception@std@@YA_NXZ 00480100     msvcprtd:MSVCP140D.dll
 0005:00000104       __imp_?_Debug_message@std@@YAXPB_W0I@Z 00480104     msvcprtd:MSVCP140D.dll
 0005:00000108       __imp_??Bid@locale@std@@QAEIXZ 00480108     msvcprtd:MSVCP140D.dll
 0005:0000010c       __imp_?_Getgloballocale@locale@std@@CAPAV_Locimp@12@XZ 0048010c     msvcprtd:MSVCP140D.dll
 0005:00000110       __imp_?always_noconv@codecvt_base@std@@QBE_NXZ 00480110     msvcprtd:MSVCP140D.dll
 0005:00000114       __imp_?in@?$codecvt@DDU_Mbstatet@@@std@@QBEHAAU_Mbstatet@@PBD1AAPBDPAD3AAPAD@Z 00480114     msvcprtd:MSVCP140D.dll
 0005:00000118       __imp_?out@?$codecvt@DDU_Mbstatet@@@std@@QBEHAAU_Mbstatet@@PBD1AAPBDPAD3AAPAD@Z 00480118     msvcprtd:MSVCP140D.dll
 0005:0000011c       __imp_?unshift@?$codecvt@DDU_Mbstatet@@@std@@QBEHAAU_Mbstatet@@PAD1AAPAD@Z 0048011c     msvcprtd:MSVCP140D.dll
 0005:00000120       __imp_?_Getcat@?$codecvt@DDU_Mbstatet@@@std@@SAIPAPBVfacet@locale@2@PBV42@@Z 00480120     msvcprtd:MSVCP140D.dll
 0005:00000124       __imp_?good@ios_base@std@@QBE_NXZ 00480124     msvcprtd:MSVCP140D.dll
 0005:00000128       __imp_?flags@ios_base@std@@QBEHXZ 00480128     msvcprtd:MSVCP140D.dll
 0005:0000012c       __imp_?width@ios_base@std@@QBE_JXZ 0048012c     msvcprtd:MSVCP140D.dll
 0005:00000130       __imp_?width@ios_base@std@@QAE_J_J@Z 00480130     msvcprtd:MSVCP140D.dll
 0005:00000134       __imp_??0?$basic_streambuf@DU?$char_traits@D@std@@@std@@IAE@XZ 00480134     msvcprtd:MSVCP140D.dll
 0005:00000138       __imp_??1?$basic_streambuf@DU?$char_traits@D@std@@@std@@UAE@XZ 00480138     msvcprtd:MSVCP140D.dll
 0005:0000013c       __imp_?getloc@?$basic_streambuf@DU?$char_traits@D@std@@@std@@QBE?AVlocale@2@XZ 0048013c     msvcprtd:MSVCP140D.dll
 0005:00000140       __imp_?sputc@?$basic_streambuf@DU?$char_traits@D@std@@@std@@QAEHD@Z 00480140     msvcprtd:MSVCP140D.dll
 0005:00000144       __imp_?sputn@?$basic_streambuf@DU?$char_traits@D@std@@@std@@QAE_JPBD_J@Z 00480144     msvcprtd:MSVCP140D.dll
 0005:00000148       __imp_?eback@?$basic_streambuf@DU?$char_traits@D@std@@@std@@IBEPADXZ 00480148     msvcprtd:MSVCP140D.dll
 0005:0000014c       __imp_?gptr@?$basic_streambuf@DU?$char_traits@D@std@@@std@@IBEPADXZ 0048014c     msvcprtd:MSVCP140D.dll
 0005:00000150       __imp_?pptr@?$basic_streambuf@DU?$char_traits@D@std@@@std@@IBEPADXZ 00480150     msvcprtd:MSVCP140D.dll
 0005:00000154       __imp_?egptr@?$basic_streambuf@DU?$char_traits@D@std@@@std@@IBEPADXZ 00480154     msvcprtd:MSVCP140D.dll
 0005:00000158       __imp_?setg@?$basic_streambuf@DU?$char_traits@D@std@@@std@@IAEXPAD00@Z 00480158     msvcprtd:MSVCP140D.dll
 0005:0000015c       __imp_?epptr@?$basic_streambuf@DU?$char_traits@D@std@@@std@@IBEPADXZ 0048015c     msvcprtd:MSVCP140D.dll
 0005:00000160       __imp_?_Gndec@?$basic_streambuf@DU?$char_traits@D@std@@@std@@IAEPADXZ 00480160     msvcprtd:MSVCP140D.dll
 0005:00000164       __imp_?_Gninc@?$basic_streambuf@DU?$char_traits@D@std@@@std@@IAEPADXZ 00480164     msvcprtd:MSVCP140D.dll
 0005:00000168       __imp_?_Pninc@?$basic_streambuf@DU?$char_traits@D@std@@@std@@IAEPADXZ 00480168     msvcprtd:MSVCP140D.dll
 0005:0000016c       __imp_?_Init@?$basic_streambuf@DU?$char_traits@D@std@@@std@@IAEXXZ 0048016c     msvcprtd:MSVCP140D.dll
 0005:00000170       __imp_?_Init@?$basic_streambuf@DU?$char_traits@D@std@@@std@@IAEXPAPAD0PAH001@Z 00480170     msvcprtd:MSVCP140D.dll
 0005:00000174       __imp_??1?$basic_ios@DU?$char_traits@D@std@@@std@@UAE@XZ 00480174     msvcprtd:MSVCP140D.dll
 0005:00000178       __imp_?setstate@?$basic_ios@DU?$char_traits@D@std@@@std@@QAEXH_N@Z 00480178     msvcprtd:MSVCP140D.dll
 0005:0000017c       __imp_?tie@?$basic_ios@DU?$char_traits@D@std@@@std@@QBEPAV?$basic_ostream@DU?$char_traits@D@std@@@2@XZ 0048017c     msvcprtd:MSVCP140D.dll
 0005:00000180       __imp_?rdbuf@?$basic_ios@DU?$char_traits@D@std@@@std@@QBEPAV?$basic_streambuf@DU?$char_traits@D@std@@@2@XZ 00480180     msvcprtd:MSVCP140D.dll
 0005:00000184       __imp_?fill@?$basic_ios@DU?$char_traits@D@std@@@std@@QBEDXZ 00480184     msvcprtd:MSVCP140D.dll
 0005:00000188       __imp_??0?$basic_ios@DU?$char_traits@D@std@@@std@@IAE@XZ 00480188     msvcprtd:MSVCP140D.dll
 0005:0000018c       __imp_??0?$basic_ostream@DU?$char_traits@D@std@@@std@@QAE@PAV?$basic_streambuf@DU?$char_traits@D@std@@@1@_N@Z 0048018c     msvcprtd:MSVCP140D.dll
 0005:00000190       __imp_??1?$basic_ostream@DU?$char_traits@D@std@@@std@@UAE@XZ 00480190     msvcprtd:MSVCP140D.dll
 0005:00000194       \177MSVCP140D_NULL_THUNK_DATA 00480194     msvcprtd:MSVCP140D.dll
 0005:000001f0       __imp____vcrt_GetModuleHandleW 004801f0     vcruntimed:VCRUNTIME140D.dll
 0005:000001f4       __imp____vcrt_GetModuleFileNameW 004801f4     vcruntimed:VCRUNTIME140D.dll
 0005:000001f8       __imp____std_type_info_destroy_list 004801f8     vcruntimed:VCRUNTIME140D.dll
 0005:000001fc       __imp___except_handler4_common 004801fc     vcruntimed:VCRUNTIME140D.dll
 0005:00000200       __imp__memcmp              00480200     vcruntimed:VCRUNTIME140D.dll
 0005:00000204       __imp____RTDynamicCast     00480204     vcruntimed:VCRUNTIME140D.dll
 0005:00000208       __imp___CxxThrowException@8 00480208     vcruntimed:VCRUNTIME140D.dll
 0005:0000020c       __imp____std_exception_destroy 0048020c     vcruntimed:VCRUNTIME140D.dll
 0005:00000210       __imp____std_exception_copy 00480210     vcruntimed:VCRUNTIME140D.dll
 0005:00000214       __imp__memset              00480214     vcruntimed:VCRUNTIME140D.dll
 0005:00000218       __imp____CxxFrameHandler3  00480218     vcruntimed:VCRUNTIME140D.dll
 0005:0000021c       __imp__memmove             0048021c     vcruntimed:VCRUNTIME140D.dll
 0005:00000220       __imp__memcpy              00480220     vcruntimed:VCRUNTIME140D.dll
 0005:00000224       __imp____vcrt_LoadLibraryExW 00480224     vcruntimed:VCRUNTIME140D.dll
 0005:00000228       \177VCRUNTIME140D_NULL_THUNK_DATA 00480228     vcruntimed:VCRUNTIME140D.dll
 0005:0000025c       __imp__al_draw_filled_rectangle 0048025c     allegro-5.0.10-monolith-md:allegro-5.0.10-monolith-md.dll
 0005:00000260       __imp__al_create_display   00480260     allegro-5.0.10-monolith-md:allegro-5.0.10-monolith-md.dll
 0005:00000264       __imp__al_init_primitives_addon 00480264     allegro-5.0.10-monolith-md:allegro-5.0.10-monolith-md.dll
 0005:00000268       __imp__al_shutdown_ttf_addon 00480268     allegro-5.0.10-monolith-md:allegro-5.0.10-monolith-md.dll
 0005:0000026c       __imp__al_destroy_display  0048026c     allegro-5.0.10-monolith-md:allegro-5.0.10-monolith-md.dll
 0005:00000270       __imp__al_set_target_bitmap 00480270     allegro-5.0.10-monolith-md:allegro-5.0.10-monolith-md.dll
 0005:00000274       __imp__al_get_backbuffer   00480274     allegro-5.0.10-monolith-md:allegro-5.0.10-monolith-md.dll
 0005:00000278       __imp__al_get_target_bitmap 00480278     allegro-5.0.10-monolith-md:allegro-5.0.10-monolith-md.dll
 0005:0000027c       __imp__al_flip_display     0048027c     allegro-5.0.10-monolith-md:allegro-5.0.10-monolith-md.dll
 0005:00000280       __imp__al_create_sub_bitmap 00480280     allegro-5.0.10-monolith-md:allegro-5.0.10-monolith-md.dll
 0005:00000284       __imp__al_draw_bitmap      00480284     allegro-5.0.10-monolith-md:allegro-5.0.10-monolith-md.dll
 0005:00000288       __imp__al_draw_rotated_bitmap 00480288     allegro-5.0.10-monolith-md:allegro-5.0.10-monolith-md.dll
 0005:0000028c       __imp__al_create_bitmap    0048028c     allegro-5.0.10-monolith-md:allegro-5.0.10-monolith-md.dll
 0005:00000290       __imp__al_destroy_bitmap   00480290     allegro-5.0.10-monolith-md:allegro-5.0.10-monolith-md.dll
 0005:00000294       __imp__al_clone_bitmap     00480294     allegro-5.0.10-monolith-md:allegro-5.0.10-monolith-md.dll
 0005:00000298       __imp__al_load_bitmap      00480298     allegro-5.0.10-monolith-md:allegro-5.0.10-monolith-md.dll
 0005:0000029c       __imp__al_clear_to_color   0048029c     allegro-5.0.10-monolith-md:allegro-5.0.10-monolith-md.dll
 0005:000002a0       __imp__al_shutdown_primitives_addon 004802a0     allegro-5.0.10-monolith-md:allegro-5.0.10-monolith-md.dll
 0005:000002a4       __imp__al_get_bitmap_height 004802a4     allegro-5.0.10-monolith-md:allegro-5.0.10-monolith-md.dll
 0005:000002a8       __imp__al_get_mouse_state  004802a8     allegro-5.0.10-monolith-md:allegro-5.0.10-monolith-md.dll
 0005:000002ac       __imp__al_mouse_button_down 004802ac     allegro-5.0.10-monolith-md:allegro-5.0.10-monolith-md.dll
 0005:000002b0       __imp__al_get_keyboard_state 004802b0     allegro-5.0.10-monolith-md:allegro-5.0.10-monolith-md.dll
 0005:000002b4       __imp__al_key_down         004802b4     allegro-5.0.10-monolith-md:allegro-5.0.10-monolith-md.dll
 0005:000002b8       __imp__al_install_keyboard 004802b8     allegro-5.0.10-monolith-md:allegro-5.0.10-monolith-md.dll
 0005:000002bc       __imp__al_uninstall_keyboard 004802bc     allegro-5.0.10-monolith-md:allegro-5.0.10-monolith-md.dll
 0005:000002c0       __imp__al_install_mouse    004802c0     allegro-5.0.10-monolith-md:allegro-5.0.10-monolith-md.dll
 0005:000002c4       __imp__al_uninstall_mouse  004802c4     allegro-5.0.10-monolith-md:allegro-5.0.10-monolith-md.dll
 0005:000002c8       __imp__al_install_system   004802c8     allegro-5.0.10-monolith-md:allegro-5.0.10-monolith-md.dll
 0005:000002cc       __imp__al_install_audio    004802cc     allegro-5.0.10-monolith-md:allegro-5.0.10-monolith-md.dll
 0005:000002d0       __imp__al_uninstall_audio  004802d0     allegro-5.0.10-monolith-md:allegro-5.0.10-monolith-md.dll
 0005:000002d4       __imp__al_reserve_samples  004802d4     allegro-5.0.10-monolith-md:allegro-5.0.10-monolith-md.dll
 0005:000002d8       __imp__al_init_acodec_addon 004802d8     allegro-5.0.10-monolith-md:allegro-5.0.10-monolith-md.dll
 0005:000002dc       __imp__al_init_image_addon 004802dc     allegro-5.0.10-monolith-md:allegro-5.0.10-monolith-md.dll
 0005:000002e0       __imp__al_shutdown_image_addon 004802e0     allegro-5.0.10-monolith-md:allegro-5.0.10-monolith-md.dll
 0005:000002e4       __imp__al_destroy_font     004802e4     allegro-5.0.10-monolith-md:allegro-5.0.10-monolith-md.dll
 0005:000002e8       __imp__al_init_font_addon  004802e8     allegro-5.0.10-monolith-md:allegro-5.0.10-monolith-md.dll
 0005:000002ec       __imp__al_shutdown_font_addon 004802ec     allegro-5.0.10-monolith-md:allegro-5.0.10-monolith-md.dll
 0005:000002f0       __imp__al_load_ttf_font    004802f0     allegro-5.0.10-monolith-md:allegro-5.0.10-monolith-md.dll
 0005:000002f4       __imp__al_init_ttf_addon   004802f4     allegro-5.0.10-monolith-md:allegro-5.0.10-monolith-md.dll
 0005:000002f8       __imp__al_get_bitmap_width 004802f8     allegro-5.0.10-monolith-md:allegro-5.0.10-monolith-md.dll
 0005:000002fc       \177allegro-5.0.10-monolith-md_NULL_THUNK_DATA 004802fc     allegro-5.0.10-monolith-md:allegro-5.0.10-monolith-md.dll
 0005:00000348       __imp___time64             00480348     ucrtd:ucrtbased.dll
 0005:0000034c       __imp___wassert            0048034c     ucrtd:ucrtbased.dll
 0005:00000350       __imp____acrt_iob_func     00480350     ucrtd:ucrtbased.dll
 0005:00000354       __imp____stdio_common_vfprintf 00480354     ucrtd:ucrtbased.dll
 0005:00000358       __imp__free                00480358     ucrtd:ucrtbased.dll
 0005:0000035c       __imp__malloc              0048035c     ucrtd:ucrtbased.dll
 0005:00000360       __imp__rand                00480360     ucrtd:ucrtbased.dll
 0005:00000364       __imp___free_dbg           00480364     ucrtd:ucrtbased.dll
 0005:00000368       __imp___malloc_dbg         00480368     ucrtd:ucrtbased.dll
 0005:0000036c       __imp___callnewh           0048036c     ucrtd:ucrtbased.dll
 0005:00000370       __imp___CrtDbgReport       00480370     ucrtd:ucrtbased.dll
 0005:00000374       __imp___seh_filter_dll     00480374     ucrtd:ucrtbased.dll
 0005:00000378       __imp___configure_narrow_argv 00480378     ucrtd:ucrtbased.dll
 0005:0000037c       __imp___initialize_narrow_environment 0048037c     ucrtd:ucrtbased.dll
 0005:00000380       __imp___initialize_onexit_table 00480380     ucrtd:ucrtbased.dll
 0005:00000384       __imp___register_onexit_function 00480384     ucrtd:ucrtbased.dll
 0005:00000388       __imp___execute_onexit_table 00480388     ucrtd:ucrtbased.dll
 0005:0000038c       __imp___crt_atexit         0048038c     ucrtd:ucrtbased.dll
 0005:00000390       __imp___crt_at_quick_exit  00480390     ucrtd:ucrtbased.dll
 0005:00000394       __imp___cexit              00480394     ucrtd:ucrtbased.dll
 0005:00000398       __imp___seh_filter_exe     00480398     ucrtd:ucrtbased.dll
 0005:0000039c       __imp___set_app_type       0048039c     ucrtd:ucrtbased.dll
 0005:000003a0       __imp____setusermatherr    004803a0     ucrtd:ucrtbased.dll
 0005:000003a4       __imp___get_initial_narrow_environment 004803a4     ucrtd:ucrtbased.dll
 0005:000003a8       __imp___initterm           004803a8     ucrtd:ucrtbased.dll
 0005:000003ac       __imp___initterm_e         004803ac     ucrtd:ucrtbased.dll
 0005:000003b0       __imp__exit                004803b0     ucrtd:ucrtbased.dll
 0005:000003b4       __imp___exit               004803b4     ucrtd:ucrtbased.dll
 0005:000003b8       __imp___set_fmode          004803b8     ucrtd:ucrtbased.dll
 0005:000003bc       __imp____p___argc          004803bc     ucrtd:ucrtbased.dll
 0005:000003c0       __imp____p___argv          004803c0     ucrtd:ucrtbased.dll
 0005:000003c4       __imp___c_exit             004803c4     ucrtd:ucrtbased.dll
 0005:000003c8       __imp___register_thread_local_exe_atexit_callback 004803c8     ucrtd:ucrtbased.dll
 0005:000003cc       __imp___configthreadlocale 004803cc     ucrtd:ucrtbased.dll
 0005:000003d0       __imp___set_new_mode       004803d0     ucrtd:ucrtbased.dll
 0005:000003d4       __imp____p__commode        004803d4     ucrtd:ucrtbased.dll
 0005:000003d8       __imp___except1            004803d8     ucrtd:ucrtbased.dll
 0005:000003dc       __imp__strcpy_s            004803dc     ucrtd:ucrtbased.dll
 0005:000003e0       __imp__strcat_s            004803e0     ucrtd:ucrtbased.dll
 0005:000003e4       __imp____stdio_common_vsprintf_s 004803e4     ucrtd:ucrtbased.dll
 0005:000003e8       __imp__terminate           004803e8     ucrtd:ucrtbased.dll
 0005:000003ec       __imp___controlfp_s        004803ec     ucrtd:ucrtbased.dll
 0005:000003f0       __imp___wmakepath_s        004803f0     ucrtd:ucrtbased.dll
 0005:000003f4       __imp___wsplitpath_s       004803f4     ucrtd:ucrtbased.dll
 0005:000003f8       __imp__wcscpy_s            004803f8     ucrtd:ucrtbased.dll
 0005:000003fc       __imp__srand               004803fc     ucrtd:ucrtbased.dll
 0005:00000400       __imp___unlock_file        00480400     ucrtd:ucrtbased.dll
 0005:00000404       __imp___lock_file          00480404     ucrtd:ucrtbased.dll
 0005:00000408       __imp__ungetc              00480408     ucrtd:ucrtbased.dll
 0005:0000040c       __imp__setvbuf             0048040c     ucrtd:ucrtbased.dll
 0005:00000410       __imp__fwrite              00480410     ucrtd:ucrtbased.dll
 0005:00000414       __imp___fseeki64           00480414     ucrtd:ucrtbased.dll
 0005:00000418       __imp__fsetpos             00480418     ucrtd:ucrtbased.dll
 0005:0000041c       __imp__fputc               0048041c     ucrtd:ucrtbased.dll
 0005:00000420       __imp__fgetpos             00480420     ucrtd:ucrtbased.dll
 0005:00000424       __imp__fgetc               00480424     ucrtd:ucrtbased.dll
 0005:00000428       __imp__fflush              00480428     ucrtd:ucrtbased.dll
 0005:0000042c       __imp__fclose              0048042c     ucrtd:ucrtbased.dll
 0005:00000430       __imp___get_stream_buffer_pointers 00480430     ucrtd:ucrtbased.dll
 0005:00000434       __imp__system              00480434     ucrtd:ucrtbased.dll
 0005:00000438       __imp___errno              00480438     ucrtd:ucrtbased.dll
 0005:0000043c       __imp___invalid_parameter_noinfo 0048043c     ucrtd:ucrtbased.dll
 0005:00000440       __imp___CrtDbgReportW      00480440     ucrtd:ucrtbased.dll
 0005:00000444       __imp__strlen              00480444     ucrtd:ucrtbased.dll
 0005:00000448       __imp__atan                00480448     ucrtd:ucrtbased.dll
 0005:0000044c       __imp___invalid_parameter  0048044c     ucrtd:ucrtbased.dll
 0005:00000450       __imp__sqrt                00480450     ucrtd:ucrtbased.dll
 0005:00000454       \177ucrtbased_NULL_THUNK_DATA 00480454     ucrtd:ucrtbased.dll
 0005:000004b4       __IMPORT_DESCRIPTOR_allegro-5.0.10-monolith-md 004804b4     allegro-5.0.10-monolith-md:allegro-5.0.10-monolith-md.dll
 0005:000004c8       __IMPORT_DESCRIPTOR_KERNEL32 004804c8     kernel32:KERNEL32.dll
 0005:000004dc       __IMPORT_DESCRIPTOR_MSVCP140D 004804dc     msvcprtd:MSVCP140D.dll
 0005:000004f0       __IMPORT_DESCRIPTOR_VCRUNTIME140D 004804f0     vcruntimed:VCRUNTIME140D.dll
 0005:00000504       __IMPORT_DESCRIPTOR_ucrtbased 00480504     ucrtd:ucrtbased.dll
 0005:00000518       __NULL_IMPORT_DESCRIPTOR   00480518     allegro-5.0.10-monolith-md:allegro-5.0.10-monolith-md.dll
 0006:00000000       ___guard_check_icall_fptr  00483000     MSVCRTD:guard_support.obj
