 Editor

 Timestamp is 5a0732da (Sat Nov 11 12:26:50 2017)

 Preferred load address is 00400000

 Start         Length     Name                   Class
 0001:00000000 0001ee89H .textbss                DATA
 0002:00000000 00005d10H .text$di                CODE
 0002:00005d10 0003c320H .text$mn                CODE
 0002:00042030 000042a0H .text$x                 CODE
 0002:000462d0 00001106H .text$yd                CODE
 0003:00000000 00000104H .CRT$XCA                DATA
 0003:00000104 00000104H .CRT$XCAA               DATA
 0003:00000208 00000104H .CRT$XCL                DATA
 0003:0000030c 0000012cH .CRT$XCU                DATA
 0003:00000438 00000104H .CRT$XCZ                DATA
 0003:0000053c 00000104H .CRT$XIA                DATA
 0003:00000640 00000104H .CRT$XIAA               DATA
 0003:00000744 00000104H .CRT$XIAC               DATA
 0003:00000848 00000104H .CRT$XIZ                DATA
 0003:0000094c 00000104H .CRT$XPA                DATA
 0003:00000a50 00000104H .CRT$XPZ                DATA
 0003:00000b54 00000104H .CRT$XTA                DATA
 0003:00000c58 00000108H .CRT$XTZ                DATA
 0003:00000d60 00005f68H .rdata                  DATA
 0003:00006cc8 0000077cH .rdata$r                DATA
 0003:00007444 000001a8H .rdata$zzzdbg           DATA
 0003:000075ec 00000104H .rtc$IAA                DATA
 0003:000076f0 00000144H .rtc$IMZ                DATA
 0003:00007834 00000104H .rtc$IZZ                DATA
 0003:00007938 00000104H .rtc$TAA                DATA
 0003:00007a3c 00000144H .rtc$TMZ                DATA
 0003:00007b80 00000108H .rtc$TZZ                DATA
 0003:00007c88 00003424H .xdata$x                DATA
 0003:0000b0ac 00000000H .edata                  DATA
 0004:00000000 00000180H .data                   DATA
 0004:00000180 00000448H .data$r                 DATA
 0004:000005c8 00000504H .bss                    DATA
 0005:00000000 000004b4H .idata$5                DATA
 0005:000004b4 00000064H .idata$2                DATA
 0005:00000518 00000014H .idata$3                DATA
 0005:0000052c 000004b4H .idata$4                DATA
 0005:000009e0 00001c5fH .idata$6                DATA
 0006:00000000 00000104H .00cfg                  DATA
 0007:00000000 00000170H .rsrc$01                DATA
 0007:00000170 000002ccH .rsrc$02                DATA

  Address         Publics by Value              Rva+Base       Lib:Object

 0000:00000000       ___enclave_config          00000000     <absolute>
 0000:00000000       ___guard_longjmp_table     00000000     <absolute>
 0000:00000000       ___guard_fids_count        00000000     <absolute>
 0000:00000000       ___guard_iat_table         00000000     <absolute>
 0000:00000000       ___guard_longjmp_count     00000000     <absolute>
 0000:00000000       ___guard_iat_count         00000000     <absolute>
 0000:00000000       ___safe_se_handler_table   00000000     <absolute>
 0000:00000000       ___hybrid_code_map         00000000     <absolute>
 0000:00000000       ___safe_se_handler_count   00000000     <absolute>
 0000:00000000       ___hybrid_auxiliary_iat    00000000     <absolute>
 0000:00000000       ___hybrid_code_map_count   00000000     <absolute>
 0000:00000000       ___guard_fids_table        00000000     <absolute>
 0000:00000000       ___dynamic_value_reloc_table 00000000     <absolute>
 0000:00000100       ___guard_flags             00000100     <absolute>
 0000:00000000       ___ImageBase               00400000     <linker-defined>
 0001:00000000       __enc$textbss$begin        00401000     <linker-defined>
 0001:0001ee89       __enc$textbss$end          0041fe89     <linker-defined>
 0002:00005d10       ??$?0$$V@?$_Compressed_pair@V?$allocator@D@std@@V?$_String_val@U?$_Simple_types@D@std@@@2@$00@std@@QAE@U_Zero_then_variadic_args_t@1@@Z 00425d10 f i Editor.obj
 0002:00005d70       ??$?0D@?$allocator@U_Container_proxy@std@@@std@@QAE@ABV?$allocator@D@1@@Z 00425d70 f i Editor.obj
 0002:00005db0       ??$_Convert_size@I@std@@YAII@Z 00425db0 f i Editor.obj
 0002:00005df0       ??$_Deallocate_plain@V?$allocator@U_Container_proxy@std@@@std@@$0A@@std@@YAXAAV?$allocator@U_Container_proxy@std@@@0@QAU_Container_proxy@0@@Z 00425df0 f i Editor.obj
 0002:00005e50       ??$_Max_value@I@std@@YAABIABI0@Z 00425e50 f i Editor.obj
 0002:00005ec0       ??$_Min_value@I@std@@YAABIABI0@Z 00425ec0 f i Editor.obj
 0002:000060c0       ??$_Unfancy@D@std@@YAPADPAD@Z 004260c0 f i Editor.obj
 0002:00006100       ??$_Unfancy@U_Container_proxy@std@@@std@@YAPAU_Container_proxy@0@PAU10@@Z 00426100 f i Editor.obj
 0002:00006140       ??$addressof@PAD@std@@YAPAPADAAPAD@Z 00426140 f i Editor.obj
 0002:00006180       ??$addressof@V?$_String_val@U?$_Simple_types@D@std@@@std@@@std@@YAPAV?$_String_val@U?$_Simple_types@D@std@@@0@AAV10@@Z 00426180 f i Editor.obj
 0002:000061c0       ??$construct@PADABQAD@?$_Default_allocator_traits@V?$allocator@D@std@@@std@@SAXAAV?$allocator@D@1@QAPADABQAD@Z 004261c0 f i Editor.obj
 0002:00006240       ??$construct@U_Container_proxy@std@@U12@@?$_Default_allocator_traits@V?$allocator@U_Container_proxy@std@@@std@@@std@@SAXAAV?$allocator@U_Container_proxy@std@@@1@QAU_Container_proxy@1@$$QAU31@@Z 00426240 f i Editor.obj
 0002:000062c0       ??$destroy@PAD@?$_Default_allocator_traits@V?$allocator@D@std@@@std@@SAXAAV?$allocator@D@1@QAPAD@Z 004262c0 f i Editor.obj
 0002:000062f0       ??$destroy@U_Container_proxy@std@@@?$_Default_allocator_traits@V?$allocator@U_Container_proxy@std@@@std@@@std@@SAXAAV?$allocator@U_Container_proxy@std@@@1@QAU_Container_proxy@1@@Z 004262f0 f i Editor.obj
 0002:00006320       ??$forward@ABQAD@std@@YAABQADABQAD@Z 00426320 f i Editor.obj
 0002:00006360       ??$forward@U_Container_proxy@std@@@std@@YA$$QAU_Container_proxy@0@AAU10@@Z 00426360 f i Editor.obj
 0002:000063a0       ??0?$_String_alloc@U?$_String_base_types@DV?$allocator@D@std@@@std@@@std@@QAE@XZ 004263a0 f i Editor.obj
 0002:00006450       ??0?$_String_val@U?$_Simple_types@D@std@@@std@@QAE@XZ 00426450 f i Editor.obj
 0002:00006510       ??0?$allocator@D@std@@QAE@XZ 00426510 f i Editor.obj
 0002:00006550       ??0?$basic_string@DU?$char_traits@D@std@@V?$allocator@D@2@@std@@QAE@QBD@Z 00426550 f i Editor.obj
 0002:00006610       ??0Editor@@QAE@XZ          00426610 f   Editor.obj
 0002:00006690       ??0_Bxty@?$_String_val@U?$_Simple_types@D@std@@@std@@QAE@XZ 00426690 f i Editor.obj
 0002:000066d0       ??0_Container_base12@std@@QAE@XZ 004266d0 f i Editor.obj
 0002:00006720       ??0_Container_proxy@std@@QAE@XZ 00426720 f i Editor.obj
 0002:00006770       ??1?$_Compressed_pair@V?$allocator@D@std@@V?$_String_val@U?$_Simple_types@D@std@@@2@$00@std@@QAE@XZ 00426770 f i Editor.obj
 0002:000067c0       ??1?$_String_alloc@U?$_String_base_types@DV?$allocator@D@std@@@std@@@std@@QAE@XZ 004267c0 f i Editor.obj
 0002:00006850       ??1?$_String_val@U?$_Simple_types@D@std@@@std@@QAE@XZ 00426850 f i Editor.obj
 0002:000068b0       ??1?$basic_string@DU?$char_traits@D@std@@V?$allocator@D@2@@std@@QAE@XZ 004268b0 f i Editor.obj
 0002:00006940       ??1Editor@@UAE@XZ          00426940 f   Editor.obj
 0002:000069e0       ??1_Bxty@?$_String_val@U?$_Simple_types@D@std@@@std@@QAE@XZ 004269e0 f i Editor.obj
 0002:00006a20       ??1_Container_base12@std@@QAE@XZ 00426a20 f i Editor.obj
 0002:00006a70       ??2@YAPAXIPAX@Z            00426a70 f i Editor.obj
 0002:00006b40       ??_GEditor@@UAEPAXI@Z      00426b40 f i Editor.obj
 0002:00006b40       ??_EEditor@@UAEPAXI@Z      00426b40 f i Editor.obj
 0002:00006bd0       ??_GGrid@@QAEPAXI@Z        00426bd0 f i Editor.obj
 0002:00006c60       ??_GGridVisualizer@@QAEPAXI@Z 00426c60 f i Editor.obj
 0002:00006cf0       ?_Alloc_proxy@?$_String_alloc@U?$_String_base_types@DV?$allocator@D@std@@@std@@@std@@QAEXXZ 00426cf0 f i Editor.obj
 0002:00006e10       ?_Allocate@std@@YAPAXII_N@Z 00426e10 f i Editor.obj
 0002:00007060       ?_Calculate_growth@?$basic_string@DU?$char_traits@D@std@@V?$allocator@D@2@@std@@QBEII@Z 00427060 f i Editor.obj
 0002:00007170       ?_Deallocate@std@@YAXPAXII@Z 00427170 f i Editor.obj
 0002:000072b0       ?_Free_proxy@?$_String_alloc@U?$_String_base_types@DV?$allocator@D@std@@@std@@@std@@QAEXXZ 004272b0 f i Editor.obj
 0002:000073b0       ?_Get_data@?$_String_alloc@U?$_String_base_types@DV?$allocator@D@std@@@std@@@std@@QAEAAV?$_String_val@U?$_Simple_types@D@std@@@2@XZ 004273b0 f i Editor.obj
 0002:00007400       ?_Get_data@?$_String_alloc@U?$_String_base_types@DV?$allocator@D@std@@@std@@@std@@QBEABV?$_String_val@U?$_Simple_types@D@std@@@2@XZ 00427400 f i Editor.obj
 0002:00007450       ?_Get_first@?$_Compressed_pair@V?$allocator@D@std@@V?$_String_val@U?$_Simple_types@D@std@@@2@$00@std@@QAEAAV?$allocator@D@2@XZ 00427450 f i Editor.obj
 0002:00007490       ?_Get_first@?$_Compressed_pair@V?$allocator@D@std@@V?$_String_val@U?$_Simple_types@D@std@@@2@$00@std@@QBEABV?$allocator@D@2@XZ 00427490 f i Editor.obj
 0002:000074d0       ?_Get_second@?$_Compressed_pair@V?$allocator@D@std@@V?$_String_val@U?$_Simple_types@D@std@@@2@$00@std@@QAEAAV?$_String_val@U?$_Simple_types@D@std@@@2@XZ 004274d0 f i Editor.obj
 0002:00007510       ?_Get_second@?$_Compressed_pair@V?$allocator@D@std@@V?$_String_val@U?$_Simple_types@D@std@@@2@$00@std@@QBEABV?$_String_val@U?$_Simple_types@D@std@@@2@XZ 00427510 f i Editor.obj
 0002:00007550       ?_Getal@?$_String_alloc@U?$_String_base_types@DV?$allocator@D@std@@@std@@@std@@QAEAAV?$allocator@D@2@XZ 00427550 f i Editor.obj
 0002:000075a0       ?_Getal@?$_String_alloc@U?$_String_base_types@DV?$allocator@D@std@@@std@@@std@@QBEABV?$allocator@D@2@XZ 004275a0 f i Editor.obj
 0002:000075f0       ?_Large_string_engaged@?$_String_val@U?$_Simple_types@D@std@@@std@@QBE_NXZ 004275f0 f i Editor.obj
 0002:00007660       ?_Myproxy@?$_String_alloc@U?$_String_base_types@DV?$allocator@D@std@@@std@@@std@@QAEAAPAU_Container_proxy@2@XZ 00427660 f i Editor.obj
 0002:000076b0       ?_Myptr@?$_String_val@U?$_Simple_types@D@std@@@std@@QAEPADXZ 004276b0 f i Editor.obj
 0002:00007730       ?_Orphan_all@?$_String_alloc@U?$_String_base_types@DV?$allocator@D@std@@@std@@@std@@QAEXXZ 00427730 f i Editor.obj
 0002:00007790       ?_Orphan_all@_Container_base12@std@@QAEXXZ 00427790 f i Editor.obj
 0002:000078d0       ?_Tidy_deallocate@?$basic_string@DU?$char_traits@D@std@@V?$allocator@D@2@@std@@QAEXXZ 004278d0 f i Editor.obj
 0002:000079e0       ?_Tidy_init@?$basic_string@DU?$char_traits@D@std@@V?$allocator@D@2@@std@@QAEXXZ 004279e0 f i Editor.obj
 0002:00007a80       ?_Xlen@?$basic_string@DU?$char_traits@D@std@@V?$allocator@D@2@@std@@SAXXZ 00427a80 f i Editor.obj
 0002:00007ad0       ?__empty_global_delete@@YAXPAX@Z 00427ad0 f i Editor.obj
 0002:00007b00       ?__global_delete@@YAXPAXI@Z 00427b00 f i Editor.obj
 0002:00007b00       ?__empty_global_delete@@YAXPAXI@Z 00427b00 f i Editor.obj
 0002:00007b30       ?allocate@?$allocator@D@std@@QAEPADI@Z 00427b30 f i Editor.obj
 0002:00007b90       ?allocate@?$allocator@U_Container_proxy@std@@@std@@QAEPAU_Container_proxy@2@I@Z 00427b90 f i Editor.obj
 0002:00007bf0       ?assign@?$basic_string@DU?$char_traits@D@std@@V?$allocator@D@2@@std@@QAEAAV12@QBD@Z 00427bf0 f i Editor.obj
 0002:00007c70       ?assign@?$basic_string@DU?$char_traits@D@std@@V?$allocator@D@2@@std@@QAEAAV12@QBDI@Z 00427c70 f i Editor.obj
 0002:00007d60       ?assign@?$char_traits@D@std@@SAXAADABD@Z 00427d60 f i Editor.obj
 0002:00007da0       ?beginLoop@Editor@@UAEXXZ  00427da0 f   Editor.obj
 0002:00007df0       ?cleanup@Editor@@UAEXXZ    00427df0 f   Editor.obj
 0002:00007ef0       ?copy@?$char_traits@D@std@@SAPADQADQBDI@Z 00427ef0 f i Editor.obj
 0002:00007f50       ?deallocate@?$_Default_allocator_traits@V?$allocator@U_Container_proxy@std@@@std@@@std@@SAXAAV?$allocator@U_Container_proxy@std@@@2@QAU_Container_proxy@2@I@Z 00427f50 f i Editor.obj
 0002:00007fb0       ?deallocate@?$allocator@D@std@@QAEXQADI@Z 00427fb0 f i Editor.obj
 0002:00008010       ?endLoop@Editor@@UAE_NXZ   00428010 f   Editor.obj
 0002:00008060       ?getBackBuffer@GraphicsSystem@@QAEPAVGraphicsBuffer@@XZ 00428060 f i Editor.obj
 0002:000080a0       ?getHeight@GraphicsBuffer@@QBEHXZ 004280a0 f i Editor.obj
 0002:00008110       ?getHeight@GraphicsSystem@@QBEHXZ 00428110 f i Editor.obj
 0002:00008150       ?getWidth@GraphicsBuffer@@QBEHXZ 00428150 f i Editor.obj
 0002:000081c0       ?getWidth@GraphicsSystem@@QBEHXZ 004281c0 f i Editor.obj
 0002:00008200       ?init@Editor@@UAE_NXZ      00428200 f   Editor.obj
 0002:000084a0       ?length@?$char_traits@D@std@@SAIQBD@Z 004284a0 f i Editor.obj
 0002:000084f0       ?loadGrid@Editor@@QAEXAAV?$basic_ifstream@DU?$char_traits@D@std@@@std@@@Z 004284f0 f   Editor.obj
 0002:00008550       ?max@?$numeric_limits@H@std@@SAHXZ 00428550 f i Editor.obj
 0002:00008590       ?max_size@?$_Default_allocator_traits@V?$allocator@D@std@@@std@@SAIABV?$allocator@D@2@@Z 00428590 f i Editor.obj
 0002:000085d0       ?max_size@?$basic_string@DU?$char_traits@D@std@@V?$allocator@D@2@@std@@QBEIXZ 004285d0 f i Editor.obj
 0002:000086e0       ?move@?$char_traits@D@std@@SAPADQADQBDI@Z 004286e0 f i Editor.obj
 0002:00008740       ?processLoop@Editor@@UAEXXZ 00428740 f   Editor.obj
 0002:000088c0       ?saveGrid@Editor@@QAEXAAV?$basic_ofstream@DU?$char_traits@D@std@@@std@@@Z 004288c0 f   Editor.obj
 0002:00008920       ?setModified@GridVisualizer@@QAEXXZ 00428920 f i Editor.obj
 0002:00008960       ??$?6U?$char_traits@D@std@@@std@@YAAAV?$basic_ostream@DU?$char_traits@D@std@@@0@AAV10@PBD@Z 00428960 f i main.obj
 0002:00008f20       ??$_Fgetc@D@std@@YA_NAADPAU_iobuf@@@Z 00428f20 f i main.obj
 0002:00008fa0       ??$_Fputc@D@std@@YA_NDPAU_iobuf@@@Z 00428fa0 f i main.obj
 0002:00009540       ??$_Refancy@PAD$0A@@std@@YAPADPAD@Z 00429540 f i main.obj
 0002:00009580       ??$_Unfancy@$$CBD@std@@YAPBDPBD@Z 00429580 f i main.obj
 0002:000095c0       ??$_Ungetc@D@std@@YA_NABDPAU_iobuf@@@Z 004295c0 f i main.obj
 0002:00009650       ??$use_facet@V?$codecvt@DDU_Mbstatet@@@std@@@std@@YAABV?$codecvt@DDU_Mbstatet@@@0@ABVlocale@0@@Z 00429650 f i main.obj
 0002:00009850       ??0?$_String_const_iterator@V?$_String_val@U?$_Simple_types@D@std@@@std@@@std@@QAE@PBDPBU_Container_base12@1@@Z 00429850 f i main.obj
 0002:000098c0       ??0?$_String_iterator@V?$_String_val@U?$_Simple_types@D@std@@@std@@@std@@QAE@PADPBU_Container_base12@1@@Z 004298c0 f i main.obj
 0002:00009920       ??0?$basic_filebuf@DU?$char_traits@D@std@@@std@@QAE@PAU_iobuf@@@Z 00429920 f i main.obj
 0002:000099f0       ??0?$basic_ifstream@DU?$char_traits@D@std@@@std@@QAE@ABV?$basic_string@DU?$char_traits@D@std@@V?$allocator@D@2@@1@HH@Z 004299f0 f i main.obj
 0002:00009aa0       ??0?$basic_ifstream@DU?$char_traits@D@std@@@std@@QAE@PBDHH@Z 00429aa0 f i main.obj
 0002:00009c50       ??0?$basic_ofstream@DU?$char_traits@D@std@@@std@@QAE@ABV?$basic_string@DU?$char_traits@D@std@@V?$allocator@D@2@@1@HH@Z 00429c50 f i main.obj
 0002:00009d00       ??0?$basic_ofstream@DU?$char_traits@D@std@@@std@@QAE@PBDHH@Z 00429d00 f i main.obj
 0002:00009eb0       ??0?$basic_string@DU?$char_traits@D@std@@V?$allocator@D@2@@std@@QAE@ID@Z 00429eb0 f i main.obj
 0002:00009f70       ??0?$basic_string@DU?$char_traits@D@std@@V?$allocator@D@2@@std@@QAE@XZ 00429f70 f i main.obj
 0002:0000a010       ??0?$fpos@U_Mbstatet@@@std@@QAE@U_Mbstatet@@_J@Z 0042a010 f i main.obj
 0002:0000a090       ??0?$fpos@U_Mbstatet@@@std@@QAE@_J@Z 0042a090 f i main.obj
 0002:0000a110       ??0_Iterator_base12@std@@QAE@XZ 0042a110 f i main.obj
 0002:0000a160       ??0_Sentry_base@?$basic_ostream@DU?$char_traits@D@std@@@std@@QAE@AAV12@@Z 0042a160 f i main.obj
 0002:0000a250       ??0bad_cast@std@@QAE@ABV01@@Z 0042a250 f i main.obj
 0002:0000a2c0       ??0bad_cast@std@@QAE@XZ    0042a2c0 f i main.obj
 0002:0000a330       ??0exception@std@@QAE@ABV01@@Z 0042a330 f i main.obj
 0002:0000a3c0       ??0exception@std@@QAE@QBDH@Z 0042a3c0 f i main.obj
 0002:0000a430       ??0sentry@?$basic_ostream@DU?$char_traits@D@std@@@std@@QAE@AAV12@@Z 0042a430 f i main.obj
 0002:0000a5b0       ??1?$_String_const_iterator@V?$_String_val@U?$_Simple_types@D@std@@@std@@@std@@QAE@XZ 0042a5b0 f i main.obj
 0002:0000a600       ??1?$_String_iterator@V?$_String_val@U?$_Simple_types@D@std@@@std@@@std@@QAE@XZ 0042a600 f i main.obj
 0002:0000a650       ??1?$basic_filebuf@DU?$char_traits@D@std@@@std@@UAE@XZ 0042a650 f i main.obj
 0002:0000a720       ??1?$basic_ifstream@DU?$char_traits@D@std@@@std@@UAE@XZ 0042a720 f i main.obj
 0002:0000a7d0       ??1?$basic_ofstream@DU?$char_traits@D@std@@@std@@UAE@XZ 0042a7d0 f i main.obj
 0002:0000a880       ??1_Iterator_base12@std@@QAE@XZ 0042a880 f i main.obj
 0002:0000a970       ??1_Sentry_base@?$basic_ostream@DU?$char_traits@D@std@@@std@@QAE@XZ 0042a970 f i main.obj
 0002:0000aa90       ??1bad_cast@std@@UAE@XZ    0042aa90 f i main.obj
 0002:0000aae0       ??1exception@std@@UAE@XZ   0042aae0 f i main.obj
 0002:0000ab50       ??1locale@std@@QAE@XZ      0042ab50 f i main.obj
 0002:0000ac60       ??1sentry@?$basic_ostream@DU?$char_traits@D@std@@@std@@QAE@XZ 0042ac60 f i main.obj
 0002:0000ad10       ??B?$fpos@U_Mbstatet@@@std@@QBE_JXZ 0042ad10 f i main.obj
 0002:0000ad60       ??Bsentry@?$basic_ostream@DU?$char_traits@D@std@@@std@@QBE_NXZ 0042ad60 f i main.obj
 0002:0000ada0       ??D?$_String_const_iterator@V?$_String_val@U?$_Simple_types@D@std@@@std@@@std@@QBEABDXZ 0042ada0 f i main.obj
 0002:0000af40       ??D?$_String_iterator@V?$_String_val@U?$_Simple_types@D@std@@@std@@@std@@QBEAADXZ 0042af40 f i main.obj
 0002:0000b160       ??_D?$basic_ifstream@DU?$char_traits@D@std@@@std@@QAEXXZ 0042b160 f i main.obj
 0002:0000b1d0       ??_D?$basic_ofstream@DU?$char_traits@D@std@@@std@@QAEXXZ 0042b1d0 f i main.obj
 0002:0000b23c       ??_E?$basic_ifstream@DU?$char_traits@D@std@@@std@@$4PPPPPPPM@A@AEPAXI@Z 0042b23c f i main.obj
 0002:0000b246       ??_E?$basic_ofstream@DU?$char_traits@D@std@@@std@@$4PPPPPPPM@A@AEPAXI@Z 0042b246 f i main.obj
 0002:0000b250       ??_G?$basic_filebuf@DU?$char_traits@D@std@@@std@@UAEPAXI@Z 0042b250 f i main.obj
 0002:0000b250       ??_E?$basic_filebuf@DU?$char_traits@D@std@@@std@@UAEPAXI@Z 0042b250 f i main.obj
 0002:0000b2c0       ??_E?$basic_ifstream@DU?$char_traits@D@std@@@std@@UAEPAXI@Z 0042b2c0 f i main.obj
 0002:0000b2c0       ??_G?$basic_ifstream@DU?$char_traits@D@std@@@std@@UAEPAXI@Z 0042b2c0 f i main.obj
 0002:0000b340       ??_G?$basic_ofstream@DU?$char_traits@D@std@@@std@@UAEPAXI@Z 0042b340 f i main.obj
 0002:0000b340       ??_E?$basic_ofstream@DU?$char_traits@D@std@@@std@@UAEPAXI@Z 0042b340 f i main.obj
 0002:0000b3c0       ??_Gbad_cast@std@@UAEPAXI@Z 0042b3c0 f i main.obj
 0002:0000b3c0       ??_Ebad_cast@std@@UAEPAXI@Z 0042b3c0 f i main.obj
 0002:0000b430       ??_Gexception@std@@UAEPAXI@Z 0042b430 f i main.obj
 0002:0000b430       ??_Eexception@std@@UAEPAXI@Z 0042b430 f i main.obj
 0002:0000b4a0       ?_Adopt@_Iterator_base12@std@@QAEXPBU_Container_base12@2@@Z 0042b4a0 f i main.obj
 0002:0000b630       ?_Check_offset@?$_String_val@U?$_Simple_types@D@std@@@std@@QBEXI@Z 0042b630 f i main.obj
 0002:0000b690       ?_Clamp_suffix_size@?$_String_val@U?$_Simple_types@D@std@@@std@@QBEIII@Z 0042b690 f i main.obj
 0002:0000b710       ?_Endwrite@?$basic_filebuf@DU?$char_traits@D@std@@@std@@IAE_NXZ 0042b710 f i main.obj
 0002:0000bbf0       ?_Getcont@_Iterator_base12@std@@QBEPBU_Container_base12@2@XZ 0042bbf0 f i main.obj
 0002:0000bc60       ?_Getfacet@locale@std@@QBEPBVfacet@12@I@Z 0042bc60 f i main.obj
 0002:0000bd60       ?_Init@?$basic_filebuf@DU?$char_traits@D@std@@@std@@IAEXPAU_iobuf@@W4_Initfl@12@@Z 0042bd60 f i main.obj
 0002:0000bf20       ?_Initcvt@?$basic_filebuf@DU?$char_traits@D@std@@@std@@IAEXPBV?$codecvt@DDU_Mbstatet@@@2@@Z 0042bf20 f i main.obj
 0002:0000bfc0       ?_Lock@?$basic_filebuf@DU?$char_traits@D@std@@@std@@UAEXXZ 0042bfc0 f i main.obj
 0002:0000c030       ?_Myptr@?$_String_val@U?$_Simple_types@D@std@@@std@@QBEPBDXZ 0042c030 f i main.obj
 0002:0000c0b0       ?_Orphan_me@_Iterator_base12@std@@QAEXXZ 0042c0b0 f i main.obj
 0002:0000c1e0       ?_Reset_back@?$basic_filebuf@DU?$char_traits@D@std@@@std@@AAEXXZ 0042c1e0 f i main.obj
 0002:0000c280       ?_Set_back@?$basic_filebuf@DU?$char_traits@D@std@@@std@@AAEXXZ 0042c280 f i main.obj
 0002:0000c360       ?_Unlock@?$basic_filebuf@DU?$char_traits@D@std@@@std@@UAEXXZ 0042c360 f i main.obj
 0002:0000c3d0       ?_Xran@?$_String_val@U?$_Simple_types@D@std@@@std@@SAXXZ 0042c3d0 f i main.obj
 0002:0000c420       ?append@?$basic_string@DU?$char_traits@D@std@@V?$allocator@D@2@@std@@QAEAAV12@ID@Z 0042c420 f i main.obj
 0002:0000c530       ?assign@?$basic_string@DU?$char_traits@D@std@@V?$allocator@D@2@@std@@QAEAAV12@ID@Z 0042c530 f i main.obj
 0002:0000c620       ?assign@?$char_traits@D@std@@SAPADQADID@Z 0042c620 f i main.obj
 0002:0000c680       ?begin@?$basic_string@DU?$char_traits@D@std@@V?$allocator@D@2@@std@@QAE?AV?$_String_iterator@V?$_String_val@U?$_Simple_types@D@std@@@std@@@2@XZ 0042c680 f i main.obj
 0002:0000c740       ?c_str@?$basic_string@DU?$char_traits@D@std@@V?$allocator@D@2@@std@@QBEPBDXZ 0042c740 f i main.obj
 0002:0000c7d0       ?close@?$basic_filebuf@DU?$char_traits@D@std@@@std@@QAEPAV12@XZ 0042c7d0 f i main.obj
 0002:0000c890       ?close@?$basic_ifstream@DU?$char_traits@D@std@@@std@@QAEXXZ 0042c890 f i main.obj
 0002:0000c910       ?close@?$basic_ofstream@DU?$char_traits@D@std@@@std@@QAEXXZ 0042c910 f i main.obj
 0002:0000c990       ?eof@?$char_traits@D@std@@SAHXZ 0042c990 f i main.obj
 0002:0000c9d0       ?eq_int_type@?$char_traits@D@std@@SA_NABH0@Z 0042c9d0 f i main.obj
 0002:0000ca30       ?erase@?$basic_string@DU?$char_traits@D@std@@V?$allocator@D@2@@std@@QAEAAV12@II@Z 0042ca30 f i main.obj
 0002:0000cb10       ?getGridVisualizer@Editor@@QAEPAVGridVisualizer@@XZ 0042cb10 f i main.obj
 0002:0000cb50       ?imbue@?$basic_filebuf@DU?$char_traits@D@std@@@std@@MAEXABVlocale@2@@Z 0042cb50 f i main.obj
 0002:0000cbc0       ?markForExit@Game@@QAEXXZ  0042cbc0 f i main.obj
 0002:0000cc00       ?not_eof@?$char_traits@D@std@@SAHABH@Z 0042cc00 f i main.obj
 0002:0000cca0       ?open@?$basic_filebuf@DU?$char_traits@D@std@@@std@@QAEPAV12@PBDHH@Z 0042cca0 f i main.obj
 0002:0000cde0       ?overflow@?$basic_filebuf@DU?$char_traits@D@std@@@std@@MAEHH@Z 0042cde0 f i main.obj
 0002:0000d470       ?pbackfail@?$basic_filebuf@DU?$char_traits@D@std@@@std@@MAEHH@Z 0042d470 f i main.obj
 0002:0000d6c0       ?seekoff@?$basic_filebuf@DU?$char_traits@D@std@@@std@@MAE?AV?$fpos@U_Mbstatet@@@2@_JHH@Z 0042d6c0 f i main.obj
 0002:0000d870       ?seekpos@?$basic_filebuf@DU?$char_traits@D@std@@@std@@MAE?AV?$fpos@U_Mbstatet@@@2@V32@H@Z 0042d870 f i main.obj
 0002:0000da50       ?seekpos@?$fpos@U_Mbstatet@@@std@@QBE_JXZ 0042da50 f i main.obj
 0002:0000da90       ?setbuf@?$basic_filebuf@DU?$char_traits@D@std@@@std@@MAEPAV?$basic_streambuf@DU?$char_traits@D@std@@@2@PAD_J@Z 0042da90 f i main.obj
 0002:0000db70       ?size@?$basic_string@DU?$char_traits@D@std@@V?$allocator@D@2@@std@@QBEIXZ 0042db70 f i main.obj
 0002:0000dbd0       ?state@?$fpos@U_Mbstatet@@@std@@QBE?AU_Mbstatet@@XZ 0042dbd0 f i main.obj
 0002:0000dc20       ?sync@?$basic_filebuf@DU?$char_traits@D@std@@@std@@MAEHXZ 0042dc20 f i main.obj
 0002:0000dd20       ?to_char_type@?$char_traits@D@std@@SADABH@Z 0042dd20 f i main.obj
 0002:0000dd60       ?to_int_type@?$char_traits@D@std@@SAHABD@Z 0042dd60 f i main.obj
 0002:0000dda0       ?uflow@?$basic_filebuf@DU?$char_traits@D@std@@@std@@MAEHXZ 0042dda0 f i main.obj
 0002:0000e3c0       ?underflow@?$basic_filebuf@DU?$char_traits@D@std@@@std@@MAEHXZ 0042e3c0 f i main.obj
 0002:0000e530       ?what@exception@std@@UBEPBDXZ 0042e530 f i main.obj
 0002:0000e5a0       _main                      0042e5a0 f   main.obj
 0002:0000ecb0       ??$__vcrt_va_start_verify_argument_type@QBD@@YAXXZ 0042ecb0 f i CommonPathfindingLib:Game.obj
 0002:0000ece0       ??0Game@@QAE@XZ            0042ece0 f   CommonPathfindingLib:Game.obj
 0002:0000ed90       ??1Game@@UAE@XZ            0042ed90 f   CommonPathfindingLib:Game.obj
 0002:0000ee20       ??_EGame@@UAEPAXI@Z        0042ee20 f i CommonPathfindingLib:Game.obj
 0002:0000ee20       ??_GGame@@UAEPAXI@Z        0042ee20 f i CommonPathfindingLib:Game.obj
 0002:0000eeb0       ??_GGraphicsBufferManager@@QAEPAXI@Z 0042eeb0 f i CommonPathfindingLib:Game.obj
 0002:0000ef40       ??_GGraphicsSystem@@QAEPAXI@Z 0042ef40 f i CommonPathfindingLib:Game.obj
 0002:0000efd0       ??_GSpriteManager@@QAEPAXI@Z 0042efd0 f i CommonPathfindingLib:Game.obj
 0002:0000f060       ??_GTimer@@QAEPAXI@Z       0042f060 f i CommonPathfindingLib:Game.obj
 0002:0000f0f0       ?beginLoop@Game@@UAEXXZ    0042f0f0 f   CommonPathfindingLib:Game.obj
 0002:0000f1a0       ?cleanup@Game@@UAEXXZ      0042f1a0 f   CommonPathfindingLib:Game.obj
 0002:0000f470       ?endLoop@Game@@UAE_NXZ     0042f470 f   CommonPathfindingLib:Game.obj
 0002:0000f4e0       ?genRandomBinomial@@YAMXZ  0042f4e0 f   CommonPathfindingLib:Game.obj
 0002:0000f580       ?genRandomFloat@@YAMXZ     0042f580 f   CommonPathfindingLib:Game.obj
 0002:0000f5f0       ?init@Game@@UAE_NXZ        0042f5f0 f   CommonPathfindingLib:Game.obj
 0002:0000fc00       ?lerp@@YAMHHH@Z            0042fc00 f   CommonPathfindingLib:Game.obj
 0002:0000fcc0       ?mapRotationToRange@@YAMMMM@Z 0042fcc0 f   CommonPathfindingLib:Game.obj
 0002:0000fd70       ?processLoop@Game@@UAEXXZ  0042fd70 f   CommonPathfindingLib:Game.obj
 0002:0000fdd0       ___local_stdio_printf_options 0042fdd0 f i CommonPathfindingLib:Game.obj
 0002:0000fe10       __vfprintf_l               0042fe10 f i CommonPathfindingLib:Game.obj
 0002:0000fe90       _fprintf                   0042fe90 f i CommonPathfindingLib:Game.obj
 0002:0000ff10       _printf                    0042ff10 f i CommonPathfindingLib:Game.obj
 0002:00010000       ??$?0$$V@?$_Compressed_pair@V?$allocator@U?$_Tree_node@U?$pair@$$CBHPAVGraphicsBuffer@@@std@@PAX@std@@@std@@V?$_Tree_val@U?$_Tree_simple_types@U?$pair@$$CBHPAVGraphicsBuffer@@@std@@@std@@@2@$00@std@@QAE@U_Zero_then_variadic_args_t@1@@Z 00430000 f i CommonPathfindingLib:GraphicsBufferManager.obj
 0002:00010060       ??$?0$$V@?$_Compressed_pair@V?$allocator@U?$_Tree_node@U?$pair@$$CBV?$basic_string@DU?$char_traits@D@std@@V?$allocator@D@2@@std@@H@std@@PAX@std@@@std@@V?$_Tree_val@U?$_Tree_simple_types@U?$pair@$$CBV?$basic_string@DU?$char_traits@D@std@@V?$allocator@D@2@@std@@H@std@@@std@@@2@$00@std@@QAE@U_Zero_then_variadic_args_t@1@@Z 00430060 f i CommonPathfindingLib:GraphicsBufferManager.obj
 0002:000100c0       ??$?0AAV?$_Tree_iterator@V?$_Tree_val@U?$_Tree_simple_types@U?$pair@$$CBHPAVGraphicsBuffer@@@std@@@std@@@std@@@std@@_NX$0A@@?$pair@V?$_Tree_iterator@V?$_Tree_val@U?$_Tree_simple_types@U?$pair@$$CBHPAVGraphicsBuffer@@@std@@@std@@@std@@@std@@_N@std@@QAE@AAV?$_Tree_iterator@V?$_Tree_val@U?$_Tree_simple_types@U?$pair@$$CBHPAVGraphicsBuffer@@@std@@@std@@@std@@@1@$$QA_N@Z 004300c0 f i CommonPathfindingLib:GraphicsBufferManager.obj
 0002:00010140       ??$?0AAV?$_Tree_iterator@V?$_Tree_val@U?$_Tree_simple_types@U?$pair@$$CBV?$basic_string@DU?$char_traits@D@std@@V?$allocator@D@2@@std@@H@std@@@std@@@std@@@std@@_NX$0A@@?$pair@V?$_Tree_iterator@V?$_Tree_val@U?$_Tree_simple_types@U?$pair@$$CBV?$basic_string@DU?$char_traits@D@std@@V?$allocator@D@2@@std@@H@std@@@std@@@std@@@std@@_N@std@@QAE@AAV?$_Tree_iterator@V?$_Tree_val@U?$_Tree_simple_types@U?$pair@$$CBV?$basic_string@DU?$char_traits@D@std@@V?$allocator@D@2@@std@@H@std@@@std@@@std@@@1@$$QA_N@Z 00430140 f i CommonPathfindingLib:GraphicsBufferManager.obj
 0002:000101c0       ??$?0ABH$$Z$$V@?$pair@$$CBHPAVGraphicsBuffer@@@std@@QAE@Upiecewise_construct_t@1@V?$tuple@ABH@1@V?$tuple@$$V@1@@Z 004301c0 f i CommonPathfindingLib:GraphicsBufferManager.obj
 0002:00010240       ??$?0ABH$0A@@?$tuple@ABH@std@@QAE@ABH@Z 00430240 f i CommonPathfindingLib:GraphicsBufferManager.obj
 0002:000102b0       ??$?0ABH@?$_Tuple_val@ABH@std@@QAE@ABH@Z 004302b0 f i CommonPathfindingLib:GraphicsBufferManager.obj
 0002:00010310       ??$?0ABU?$less@H@std@@U_Zero_then_variadic_args_t@1@@?$_Compressed_pair@U?$less@H@std@@V?$_Compressed_pair@V?$allocator@U?$_Tree_node@U?$pair@$$CBHPAVGraphicsBuffer@@@std@@PAX@std@@@std@@V?$_Tree_val@U?$_Tree_simple_types@U?$pair@$$CBHPAVGraphicsBuffer@@@std@@@std@@@2@$00@2@$00@std@@QAE@U_One_then_variadic_args_t@1@ABU?$less@H@1@$$QAU_Zero_then_variadic_args_t@1@@Z 00430310 f i CommonPathfindingLib:GraphicsBufferManager.obj
 0002:00010390       ??$?0ABU?$less@V?$basic_string@DU?$char_traits@D@std@@V?$allocator@D@2@@std@@@std@@U_Zero_then_variadic_args_t@1@@?$_Compressed_pair@U?$less@V?$basic_string@DU?$char_traits@D@std@@V?$allocator@D@2@@std@@@std@@V?$_Compressed_pair@V?$allocator@U?$_Tree_node@U?$pair@$$CBV?$basic_string@DU?$char_traits@D@std@@V?$allocator@D@2@@std@@H@std@@PAX@std@@@std@@V?$_Tree_val@U?$_Tree_simple_types@U?$pair@$$CBV?$basic_string@DU?$char_traits@D@std@@V?$allocator@D@2@@std@@H@std@@@std@@@2@$00@2@$00@std@@QAE@U_One_then_variadic_args_t@1@ABU?$less@V?$basic_string@DU?$char_traits@D@std@@V?$allocator@D@2@@std@@@1@$$QAU_Zero_then_variadic_args_t@1@@Z 00430390 f i CommonPathfindingLib:GraphicsBufferManager.obj
 0002:00010410       ??$?0ABV?$basic_string@DU?$char_traits@D@std@@V?$allocator@D@2@@std@@$$Z$$V@?$pair@$$CBV?$basic_string@DU?$char_traits@D@std@@V?$allocator@D@2@@std@@H@std@@QAE@Upiecewise_construct_t@1@V?$tuple@ABV?$basic_string@DU?$char_traits@D@std@@V?$allocator@D@2@@std@@@1@V?$tuple@$$V@1@@Z 00430410 f i CommonPathfindingLib:GraphicsBufferManager.obj
 0002:00010490       ??$?0ABV?$basic_string@DU?$char_traits@D@std@@V?$allocator@D@2@@std@@$0A@@?$tuple@ABV?$basic_string@DU?$char_traits@D@std@@V?$allocator@D@2@@std@@@std@@QAE@ABV?$basic_string@DU?$char_traits@D@std@@V?$allocator@D@2@@1@@Z 00430490 f i CommonPathfindingLib:GraphicsBufferManager.obj
 0002:00010500       ??$?0ABV?$basic_string@DU?$char_traits@D@std@@V?$allocator@D@2@@std@@@?$_Tuple_val@ABV?$basic_string@DU?$char_traits@D@std@@V?$allocator@D@2@@std@@@std@@QAE@ABV?$basic_string@DU?$char_traits@D@std@@V?$allocator@D@2@@1@@Z 00430500 f i CommonPathfindingLib:GraphicsBufferManager.obj
 0002:00010560       ??$?0U?$_Tree_node@U?$pair@$$CBHPAVGraphicsBuffer@@@std@@PAX@std@@@?$allocator@U_Container_proxy@std@@@std@@QAE@ABV?$allocator@U?$_Tree_node@U?$pair@$$CBHPAVGraphicsBuffer@@@std@@PAX@std@@@1@@Z 00430560 f i CommonPathfindingLib:GraphicsBufferManager.obj
 0002:000105a0       ??$?0U?$_Tree_node@U?$pair@$$CBV?$basic_string@DU?$char_traits@D@std@@V?$allocator@D@2@@std@@H@std@@PAX@std@@@?$allocator@U_Container_proxy@std@@@std@@QAE@ABV?$allocator@U?$_Tree_node@U?$pair@$$CBV?$basic_string@DU?$char_traits@D@std@@V?$allocator@D@2@@std@@H@std@@PAX@std@@@1@@Z 004305a0 f i CommonPathfindingLib:GraphicsBufferManager.obj
 0002:000105e0       ??$?0U_Exact_args_t@std@@$0A@@?$tuple@$$V@std@@QAE@U_Exact_args_t@1@@Z 004305e0 f i CommonPathfindingLib:GraphicsBufferManager.obj
 0002:00010620       ??$?0U_Exact_args_t@std@@ABH$$V$0A@@?$tuple@ABH@std@@QAE@U_Exact_args_t@1@ABH@Z 00430620 f i CommonPathfindingLib:GraphicsBufferManager.obj
 0002:000106b0       ??$?0U_Exact_args_t@std@@ABV?$basic_string@DU?$char_traits@D@std@@V?$allocator@D@2@@1@$$V$0A@@?$tuple@ABV?$basic_string@DU?$char_traits@D@std@@V?$allocator@D@2@@std@@@std@@QAE@U_Exact_args_t@1@ABV?$basic_string@DU?$char_traits@D@std@@V?$allocator@D@2@@1@@Z 004306b0 f i CommonPathfindingLib:GraphicsBufferManager.obj
 0002:00010740       ??$?0V?$_Tree_iterator@V?$_Tree_val@U?$_Tree_simple_types@U?$pair@$$CBHPAVGraphicsBuffer@@@std@@@std@@@std@@@std@@_NX$0A@@?$pair@V?$_Tree_iterator@V?$_Tree_val@U?$_Tree_simple_types@U?$pair@$$CBHPAVGraphicsBuffer@@@std@@@std@@@std@@@std@@_N@std@@QAE@$$QAV?$_Tree_iterator@V?$_Tree_val@U?$_Tree_simple_types@U?$pair@$$CBHPAVGraphicsBuffer@@@std@@@std@@@std@@@1@$$QA_N@Z 00430740 f i CommonPathfindingLib:GraphicsBufferManager.obj
 0002:000107c0       ??$?0V?$_Tree_iterator@V?$_Tree_val@U?$_Tree_simple_types@U?$pair@$$CBV?$basic_string@DU?$char_traits@D@std@@V?$allocator@D@2@@std@@H@std@@@std@@@std@@@std@@_NX$0A@@?$pair@V?$_Tree_iterator@V?$_Tree_val@U?$_Tree_simple_types@U?$pair@$$CBV?$basic_string@DU?$char_traits@D@std@@V?$allocator@D@2@@std@@H@std@@@std@@@std@@@std@@_N@std@@QAE@$$QAV?$_Tree_iterator@V?$_Tree_val@U?$_Tree_simple_types@U?$pair@$$CBV?$basic_string@DU?$char_traits@D@std@@V?$allocator@D@2@@std@@H@std@@@std@@@std@@@1@$$QA_N@Z 004307c0 f i CommonPathfindingLib:GraphicsBufferManager.obj
 0002:00010840       ??$?0V?$allocator@D@std@@$$V@?$_Compressed_pair@V?$allocator@D@std@@V?$_String_val@U?$_Simple_types@D@std@@@2@$00@std@@QAE@U_One_then_variadic_args_t@1@$$QAV?$allocator@D@1@@Z 00430840 f i CommonPathfindingLib:GraphicsBufferManager.obj
 0002:000108b0       ??$?0V?$allocator@D@std@@X@?$_String_alloc@U?$_String_base_types@DV?$allocator@D@std@@@std@@@std@@QAE@$$QAV?$allocator@D@1@@Z 004308b0 f i CommonPathfindingLib:GraphicsBufferManager.obj
 0002:00010970       ??$?0V?$tuple@ABH@std@@V?$tuple@$$V@1@$0A@$$Z$S@?$pair@$$CBHPAVGraphicsBuffer@@@std@@QAE@AAV?$tuple@ABH@1@AAV?$tuple@$$V@1@U?$integer_sequence@I$0A@@1@U?$integer_sequence@I$S@1@@Z 00430970 f i CommonPathfindingLib:GraphicsBufferManager.obj
 0002:000109f0       ??$?0V?$tuple@ABV?$basic_string@DU?$char_traits@D@std@@V?$allocator@D@2@@std@@@std@@V?$tuple@$$V@1@$0A@$$Z$S@?$pair@$$CBV?$basic_string@DU?$char_traits@D@std@@V?$allocator@D@2@@std@@H@std@@QAE@AAV?$tuple@ABV?$basic_string@DU?$char_traits@D@std@@V?$allocator@D@2@@std@@@1@AAV?$tuple@$$V@1@U?$integer_sequence@I$0A@@1@U?$integer_sequence@I$S@1@@Z 004309f0 f i CommonPathfindingLib:GraphicsBufferManager.obj
 0002:00010a70       ??$?MDU?$char_traits@D@std@@V?$allocator@D@1@@std@@YA_NABV?$basic_string@DU?$char_traits@D@std@@V?$allocator@D@2@@0@0@Z 00430a70 f i CommonPathfindingLib:GraphicsBufferManager.obj
 0002:00010af0       ??$_Buynode@ABUpiecewise_construct_t@std@@V?$tuple@ABH@2@V?$tuple@$$V@2@@?$_Tree_comp_alloc@V?$_Tmap_traits@HPAVGraphicsBuffer@@U?$less@H@std@@V?$allocator@U?$pair@$$CBHPAVGraphicsBuffer@@@std@@@3@$0A@@std@@@std@@QAEPAU?$_Tree_node@U?$pair@$$CBHPAVGraphicsBuffer@@@std@@PAX@1@ABUpiecewise_construct_t@1@$$QAV?$tuple@ABH@1@$$QAV?$tuple@$$V@1@@Z 00430af0 f i CommonPathfindingLib:GraphicsBufferManager.obj
 0002:00010c30       ??$_Buynode@ABUpiecewise_construct_t@std@@V?$tuple@ABV?$basic_string@DU?$char_traits@D@std@@V?$allocator@D@2@@std@@@2@V?$tuple@$$V@2@@?$_Tree_comp_alloc@V?$_Tmap_traits@V?$basic_string@DU?$char_traits@D@std@@V?$allocator@D@2@@std@@HU?$less@V?$basic_string@DU?$char_traits@D@std@@V?$allocator@D@2@@std@@@2@V?$allocator@U?$pair@$$CBV?$basic_string@DU?$char_traits@D@std@@V?$allocator@D@2@@std@@H@std@@@2@$0A@@std@@@std@@QAEPAU?$_Tree_node@U?$pair@$$CBV?$basic_string@DU?$char_traits@D@std@@V?$allocator@D@2@@std@@H@std@@PAX@1@ABUpiecewise_construct_t@1@$$QAV?$tuple@ABV?$basic_string@DU?$char_traits@D@std@@V?$allocator@D@2@@std@@@1@$$QAV?$tuple@$$V@1@@Z 00430c30 f i CommonPathfindingLib:GraphicsBufferManager.obj
 0002:00010d70       ??$_Buynode_if_nil@AAU?$pair@$$CBHPAVGraphicsBuffer@@@std@@@?$_Tree@V?$_Tmap_traits@HPAVGraphicsBuffer@@U?$less@H@std@@V?$allocator@U?$pair@$$CBHPAVGraphicsBuffer@@@std@@@3@$0A@@std@@@std@@IAEPAU?$_Tree_node@U?$pair@$$CBHPAVGraphicsBuffer@@@std@@PAX@1@PAU21@AAU?$pair@$$CBHPAVGraphicsBuffer@@@1@@Z 00430d70 f i CommonPathfindingLib:GraphicsBufferManager.obj
 0002:00010db0       ??$_Buynode_if_nil@AAU?$pair@$$CBV?$basic_string@DU?$char_traits@D@std@@V?$allocator@D@2@@std@@H@std@@@?$_Tree@V?$_Tmap_traits@V?$basic_string@DU?$char_traits@D@std@@V?$allocator@D@2@@std@@HU?$less@V?$basic_string@DU?$char_traits@D@std@@V?$allocator@D@2@@std@@@2@V?$allocator@U?$pair@$$CBV?$basic_string@DU?$char_traits@D@std@@V?$allocator@D@2@@std@@H@std@@@2@$0A@@std@@@std@@IAEPAU?$_Tree_node@U?$pair@$$CBV?$basic_string@DU?$char_traits@D@std@@V?$allocator@D@2@@std@@H@std@@PAX@1@PAU21@AAU?$pair@$$CBV?$basic_string@DU?$char_traits@D@std@@V?$allocator@D@2@@std@@H@1@@Z 00430db0 f i CommonPathfindingLib:GraphicsBufferManager.obj
 0002:00010df0       ??$_Debug_lt_pred@AAU?$less@H@std@@ABHABH@std@@YA_NAAU?$less@H@0@ABH1PB_WI@Z 00430df0 f i CommonPathfindingLib:GraphicsBufferManager.obj
 0002:00010ef0       ??$_Debug_lt_pred@AAU?$less@V?$basic_string@DU?$char_traits@D@std@@V?$allocator@D@2@@std@@@std@@ABV?$basic_string@DU?$char_traits@D@std@@V?$allocator@D@2@@2@ABV32@@std@@YA_NAAU?$less@V?$basic_string@DU?$char_traits@D@std@@V?$allocator@D@2@@std@@@0@ABV?$basic_string@DU?$char_traits@D@std@@V?$allocator@D@2@@0@1PB_WI@Z 00430ef0 f i CommonPathfindingLib:GraphicsBufferManager.obj
 0002:00010ff0       ??$_Debug_lt_pred@ABU?$less@H@std@@ABHABH@std@@YA_NABU?$less@H@0@ABH1PB_WI@Z 00430ff0 f i CommonPathfindingLib:GraphicsBufferManager.obj
 0002:000110f0       ??$_Debug_lt_pred@ABU?$less@V?$basic_string@DU?$char_traits@D@std@@V?$allocator@D@2@@std@@@std@@ABV?$basic_string@DU?$char_traits@D@std@@V?$allocator@D@2@@2@ABV32@@std@@YA_NABU?$less@V?$basic_string@DU?$char_traits@D@std@@V?$allocator@D@2@@std@@@0@ABV?$basic_string@DU?$char_traits@D@std@@V?$allocator@D@2@@0@1PB_WI@Z 004310f0 f i CommonPathfindingLib:GraphicsBufferManager.obj
 0002:000111f0       ??$_Insert_at@AAU?$pair@$$CBHPAVGraphicsBuffer@@@std@@PAU?$_Tree_node@U?$pair@$$CBHPAVGraphicsBuffer@@@std@@PAX@2@@?$_Tree@V?$_Tmap_traits@HPAVGraphicsBuffer@@U?$less@H@std@@V?$allocator@U?$pair@$$CBHPAVGraphicsBuffer@@@std@@@3@$0A@@std@@@std@@IAE?AV?$_Tree_iterator@V?$_Tree_val@U?$_Tree_simple_types@U?$pair@$$CBHPAVGraphicsBuffer@@@std@@@std@@@std@@@1@_NPAU?$_Tree_node@U?$pair@$$CBHPAVGraphicsBuffer@@@std@@PAX@1@AAU?$pair@$$CBHPAVGraphicsBuffer@@@1@1@Z 004311f0 f i CommonPathfindingLib:GraphicsBufferManager.obj
 0002:00011590       ??$_Insert_at@AAU?$pair@$$CBV?$basic_string@DU?$char_traits@D@std@@V?$allocator@D@2@@std@@H@std@@PAU?$_Tree_node@U?$pair@$$CBV?$basic_string@DU?$char_traits@D@std@@V?$allocator@D@2@@std@@H@std@@PAX@2@@?$_Tree@V?$_Tmap_traits@V?$basic_string@DU?$char_traits@D@std@@V?$allocator@D@2@@std@@HU?$less@V?$basic_string@DU?$char_traits@D@std@@V?$allocator@D@2@@std@@@2@V?$allocator@U?$pair@$$CBV?$basic_string@DU?$char_traits@D@std@@V?$allocator@D@2@@std@@H@std@@@2@$0A@@std@@@std@@IAE?AV?$_Tree_iterator@V?$_Tree_val@U?$_Tree_simple_types@U?$pair@$$CBV?$basic_string@DU?$char_traits@D@std@@V?$allocator@D@2@@std@@H@std@@@std@@@std@@@1@_NPAU?$_Tree_node@U?$pair@$$CBV?$basic_string@DU?$char_traits@D@std@@V?$allocator@D@2@@std@@H@std@@PAX@1@AAU?$pair@$$CBV?$basic_string@DU?$char_traits@D@std@@V?$allocator@D@2@@std@@H@1@1@Z 00431590 f i CommonPathfindingLib:GraphicsBufferManager.obj
 0002:00011930       ??$_Insert_hint@AAU?$pair@$$CBHPAVGraphicsBuffer@@@std@@PAU?$_Tree_node@U?$pair@$$CBHPAVGraphicsBuffer@@@std@@PAX@2@@?$_Tree@V?$_Tmap_traits@HPAVGraphicsBuffer@@U?$less@H@std@@V?$allocator@U?$pair@$$CBHPAVGraphicsBuffer@@@std@@@3@$0A@@std@@@std@@IAE?AV?$_Tree_iterator@V?$_Tree_val@U?$_Tree_simple_types@U?$pair@$$CBHPAVGraphicsBuffer@@@std@@@std@@@std@@@1@V?$_Tree_const_iterator@V?$_Tree_val@U?$_Tree_simple_types@U?$pair@$$CBHPAVGraphicsBuffer@@@std@@@std@@@std@@@1@AAU?$pair@$$CBHPAVGraphicsBuffer@@@1@PAU?$_Tree_node@U?$pair@$$CBHPAVGraphicsBuffer@@@std@@PAX@1@@Z 00431930 f i CommonPathfindingLib:GraphicsBufferManager.obj
 0002:00012d90       ??$_Insert_hint@AAU?$pair@$$CBV?$basic_string@DU?$char_traits@D@std@@V?$allocator@D@2@@std@@H@std@@PAU?$_Tree_node@U?$pair@$$CBV?$basic_string@DU?$char_traits@D@std@@V?$allocator@D@2@@std@@H@std@@PAX@2@@?$_Tree@V?$_Tmap_traits@V?$basic_string@DU?$char_traits@D@std@@V?$allocator@D@2@@std@@HU?$less@V?$basic_string@DU?$char_traits@D@std@@V?$allocator@D@2@@std@@@2@V?$allocator@U?$pair@$$CBV?$basic_string@DU?$char_traits@D@std@@V?$allocator@D@2@@std@@H@std@@@2@$0A@@std@@@std@@IAE?AV?$_Tree_iterator@V?$_Tree_val@U?$_Tree_simple_types@U?$pair@$$CBV?$basic_string@DU?$char_traits@D@std@@V?$allocator@D@2@@std@@H@std@@@std@@@std@@@1@V?$_Tree_const_iterator@V?$_Tree_val@U?$_Tree_simple_types@U?$pair@$$CBV?$basic_string@DU?$char_traits@D@std@@V?$allocator@D@2@@std@@H@std@@@std@@@std@@@1@AAU?$pair@$$CBV?$basic_string@DU?$char_traits@D@std@@V?$allocator@D@2@@std@@H@1@PAU?$_Tree_node@U?$pair@$$CBV?$basic_string@DU?$char_traits@D@std@@V?$allocator@D@2@@std@@H@std@@PAX@1@@Z 00432d90 f i CommonPathfindingLib:GraphicsBufferManager.obj
 0002:000141f0       ??$_Insert_nohint@AAU?$pair@$$CBHPAVGraphicsBuffer@@@std@@PAU?$_Tree_node@U?$pair@$$CBHPAVGraphicsBuffer@@@std@@PAX@2@@?$_Tree@V?$_Tmap_traits@HPAVGraphicsBuffer@@U?$less@H@std@@V?$allocator@U?$pair@$$CBHPAVGraphicsBuffer@@@std@@@3@$0A@@std@@@std@@IAE?AU?$pair@V?$_Tree_iterator@V?$_Tree_val@U?$_Tree_simple_types@U?$pair@$$CBHPAVGraphicsBuffer@@@std@@@std@@@std@@@std@@_N@1@_NAAU?$pair@$$CBHPAVGraphicsBuffer@@@1@PAU?$_Tree_node@U?$pair@$$CBHPAVGraphicsBuffer@@@std@@PAX@1@@Z 004341f0 f i CommonPathfindingLib:GraphicsBufferManager.obj
 0002:00014820       ??$_Insert_nohint@AAU?$pair@$$CBV?$basic_string@DU?$char_traits@D@std@@V?$allocator@D@2@@std@@H@std@@PAU?$_Tree_node@U?$pair@$$CBV?$basic_string@DU?$char_traits@D@std@@V?$allocator@D@2@@std@@H@std@@PAX@2@@?$_Tree@V?$_Tmap_traits@V?$basic_string@DU?$char_traits@D@std@@V?$allocator@D@2@@std@@HU?$less@V?$basic_string@DU?$char_traits@D@std@@V?$allocator@D@2@@std@@@2@V?$allocator@U?$pair@$$CBV?$basic_string@DU?$char_traits@D@std@@V?$allocator@D@2@@std@@H@std@@@2@$0A@@std@@@std@@IAE?AU?$pair@V?$_Tree_iterator@V?$_Tree_val@U?$_Tree_simple_types@U?$pair@$$CBV?$basic_string@DU?$char_traits@D@std@@V?$allocator@D@2@@std@@H@std@@@std@@@std@@@std@@_N@1@_NAAU?$pair@$$CBV?$basic_string@DU?$char_traits@D@std@@V?$allocator@D@2@@std@@H@1@PAU?$_Tree_node@U?$pair@$$CBV?$basic_string@DU?$char_traits@D@std@@V?$allocator@D@2@@std@@H@std@@PAX@1@@Z 00434820 f i CommonPathfindingLib:GraphicsBufferManager.obj
 0002:00014e50       ??$_Kfn@$$CBHPAVGraphicsBuffer@@@?$_Tmap_traits@HPAVGraphicsBuffer@@U?$less@H@std@@V?$allocator@U?$pair@$$CBHPAVGraphicsBuffer@@@std@@@3@$0A@@std@@SAABHABU?$pair@$$CBHPAVGraphicsBuffer@@@1@@Z 00434e50 f i CommonPathfindingLib:GraphicsBufferManager.obj
 0002:00014e90       ??$_Kfn@$$CBV?$basic_string@DU?$char_traits@D@std@@V?$allocator@D@2@@std@@H@?$_Tmap_traits@V?$basic_string@DU?$char_traits@D@std@@V?$allocator@D@2@@std@@HU?$less@V?$basic_string@DU?$char_traits@D@std@@V?$allocator@D@2@@std@@@2@V?$allocator@U?$pair@$$CBV?$basic_string@DU?$char_traits@D@std@@V?$allocator@D@2@@std@@H@std@@@2@$0A@@std@@SAABV?$basic_string@DU?$char_traits@D@std@@V?$allocator@D@2@@1@ABU?$pair@$$CBV?$basic_string@DU?$char_traits@D@std@@V?$allocator@D@2@@std@@H@1@@Z 00434e90 f i CommonPathfindingLib:GraphicsBufferManager.obj
 0002:00014ed0       ??$_Lbound@H@?$_Tree@V?$_Tmap_traits@HPAVGraphicsBuffer@@U?$less@H@std@@V?$allocator@U?$pair@$$CBHPAVGraphicsBuffer@@@std@@@3@$0A@@std@@@std@@IBEPAU?$_Tree_node@U?$pair@$$CBHPAVGraphicsBuffer@@@std@@PAX@1@ABH@Z 00434ed0 f i CommonPathfindingLib:GraphicsBufferManager.obj
 0002:00014fa0       ??$_Lbound@V?$basic_string@DU?$char_traits@D@std@@V?$allocator@D@2@@std@@@?$_Tree@V?$_Tmap_traits@V?$basic_string@DU?$char_traits@D@std@@V?$allocator@D@2@@std@@HU?$less@V?$basic_string@DU?$char_traits@D@std@@V?$allocator@D@2@@std@@@2@V?$allocator@U?$pair@$$CBV?$basic_string@DU?$char_traits@D@std@@V?$allocator@D@2@@std@@H@std@@@2@$0A@@std@@@std@@IBEPAU?$_Tree_node@U?$pair@$$CBV?$basic_string@DU?$char_traits@D@std@@V?$allocator@D@2@@std@@H@std@@PAX@1@ABV?$basic_string@DU?$char_traits@D@std@@V?$allocator@D@2@@1@@Z 00434fa0 f i CommonPathfindingLib:GraphicsBufferManager.obj
 0002:00015070       ??$_Traits_compare@U?$char_traits@D@std@@@std@@YAHQBDI0I@Z 00435070 f i CommonPathfindingLib:GraphicsBufferManager.obj
 0002:00015120       ??$_Try_emplace@ABH$$V@?$map@HPAVGraphicsBuffer@@U?$less@H@std@@V?$allocator@U?$pair@$$CBHPAVGraphicsBuffer@@@std@@@3@@std@@QAE?AU?$pair@V?$_Tree_iterator@V?$_Tree_val@U?$_Tree_simple_types@U?$pair@$$CBHPAVGraphicsBuffer@@@std@@@std@@@std@@@std@@_N@1@ABH@Z 00435120 f i CommonPathfindingLib:GraphicsBufferManager.obj
 0002:00015460       ??$_Try_emplace@ABV?$basic_string@DU?$char_traits@D@std@@V?$allocator@D@2@@std@@$$V@?$map@V?$basic_string@DU?$char_traits@D@std@@V?$allocator@D@2@@std@@HU?$less@V?$basic_string@DU?$char_traits@D@std@@V?$allocator@D@2@@std@@@2@V?$allocator@U?$pair@$$CBV?$basic_string@DU?$char_traits@D@std@@V?$allocator@D@2@@std@@H@std@@@2@@std@@QAE?AU?$pair@V?$_Tree_iterator@V?$_Tree_val@U?$_Tree_simple_types@U?$pair@$$CBV?$basic_string@DU?$char_traits@D@std@@V?$allocator@D@2@@std@@H@std@@@std@@@std@@@std@@_N@1@ABV?$basic_string@DU?$char_traits@D@std@@V?$allocator@D@2@@1@@Z 00435460 f i CommonPathfindingLib:GraphicsBufferManager.obj
 0002:000157a0       ??$addressof@PAU?$_Tree_node@U?$pair@$$CBHPAVGraphicsBuffer@@@std@@PAX@std@@@std@@YAPAPAU?$_Tree_node@U?$pair@$$CBHPAVGraphicsBuffer@@@std@@PAX@0@AAPAU10@@Z 004357a0 f i CommonPathfindingLib:GraphicsBufferManager.obj
 0002:000157e0       ??$addressof@PAU?$_Tree_node@U?$pair@$$CBV?$basic_string@DU?$char_traits@D@std@@V?$allocator@D@2@@std@@H@std@@PAX@std@@@std@@YAPAPAU?$_Tree_node@U?$pair@$$CBV?$basic_string@DU?$char_traits@D@std@@V?$allocator@D@2@@std@@H@std@@PAX@0@AAPAU10@@Z 004357e0 f i CommonPathfindingLib:GraphicsBufferManager.obj
 0002:00015820       ??$addressof@U?$pair@$$CBHPAVGraphicsBuffer@@@std@@@std@@YAPAU?$pair@$$CBHPAVGraphicsBuffer@@@0@AAU10@@Z 00435820 f i CommonPathfindingLib:GraphicsBufferManager.obj
 0002:00015860       ??$addressof@U?$pair@$$CBV?$basic_string@DU?$char_traits@D@std@@V?$allocator@D@2@@std@@H@std@@@std@@YAPAU?$pair@$$CBV?$basic_string@DU?$char_traits@D@std@@V?$allocator@D@2@@std@@H@0@AAU10@@Z 00435860 f i CommonPathfindingLib:GraphicsBufferManager.obj
 0002:000158a0       ??$addressof@V?$_Tree_val@U?$_Tree_simple_types@U?$pair@$$CBHPAVGraphicsBuffer@@@std@@@std@@@std@@@std@@YAPAV?$_Tree_val@U?$_Tree_simple_types@U?$pair@$$CBHPAVGraphicsBuffer@@@std@@@std@@@0@AAV10@@Z 004358a0 f i CommonPathfindingLib:GraphicsBufferManager.obj
 0002:000158e0       ??$addressof@V?$_Tree_val@U?$_Tree_simple_types@U?$pair@$$CBV?$basic_string@DU?$char_traits@D@std@@V?$allocator@D@2@@std@@H@std@@@std@@@std@@@std@@YAPAV?$_Tree_val@U?$_Tree_simple_types@U?$pair@$$CBV?$basic_string@DU?$char_traits@D@std@@V?$allocator@D@2@@std@@H@std@@@std@@@0@AAV10@@Z 004358e0 f i CommonPathfindingLib:GraphicsBufferManager.obj
 0002:00015920       ??$construct@PAU?$_Tree_node@U?$pair@$$CBHPAVGraphicsBuffer@@@std@@PAX@std@@AAPAU12@@?$_Default_allocator_traits@V?$allocator@U?$_Tree_node@U?$pair@$$CBHPAVGraphicsBuffer@@@std@@PAX@std@@@std@@@std@@SAXAAV?$allocator@U?$_Tree_node@U?$pair@$$CBHPAVGraphicsBuffer@@@std@@PAX@std@@@1@QAPAU?$_Tree_node@U?$pair@$$CBHPAVGraphicsBuffer@@@std@@PAX@1@AAPAU31@@Z 00435920 f i CommonPathfindingLib:GraphicsBufferManager.obj
 0002:000159a0       ??$construct@PAU?$_Tree_node@U?$pair@$$CBV?$basic_string@DU?$char_traits@D@std@@V?$allocator@D@2@@std@@H@std@@PAX@std@@AAPAU12@@?$_Default_allocator_traits@V?$allocator@U?$_Tree_node@U?$pair@$$CBV?$basic_string@DU?$char_traits@D@std@@V?$allocator@D@2@@std@@H@std@@PAX@std@@@std@@@std@@SAXAAV?$allocator@U?$_Tree_node@U?$pair@$$CBV?$basic_string@DU?$char_traits@D@std@@V?$allocator@D@2@@std@@H@std@@PAX@std@@@1@QAPAU?$_Tree_node@U?$pair@$$CBV?$basic_string@DU?$char_traits@D@std@@V?$allocator@D@2@@std@@H@std@@PAX@1@AAPAU31@@Z 004359a0 f i CommonPathfindingLib:GraphicsBufferManager.obj
 0002:00015a20       ??$construct@U?$pair@$$CBHPAVGraphicsBuffer@@@std@@ABUpiecewise_construct_t@2@V?$tuple@ABH@2@V?$tuple@$$V@2@@?$_Default_allocator_traits@V?$allocator@U?$_Tree_node@U?$pair@$$CBHPAVGraphicsBuffer@@@std@@PAX@std@@@std@@@std@@SAXAAV?$allocator@U?$_Tree_node@U?$pair@$$CBHPAVGraphicsBuffer@@@std@@PAX@std@@@1@QAU?$pair@$$CBHPAVGraphicsBuffer@@@1@ABUpiecewise_construct_t@1@$$QAV?$tuple@ABH@1@$$QAV?$tuple@$$V@1@@Z 00435a20 f i CommonPathfindingLib:GraphicsBufferManager.obj
 0002:00015b40       ??$construct@U?$pair@$$CBV?$basic_string@DU?$char_traits@D@std@@V?$allocator@D@2@@std@@H@std@@ABUpiecewise_construct_t@2@V?$tuple@ABV?$basic_string@DU?$char_traits@D@std@@V?$allocator@D@2@@std@@@2@V?$tuple@$$V@2@@?$_Default_allocator_traits@V?$allocator@U?$_Tree_node@U?$pair@$$CBV?$basic_string@DU?$char_traits@D@std@@V?$allocator@D@2@@std@@H@std@@PAX@std@@@std@@@std@@SAXAAV?$allocator@U?$_Tree_node@U?$pair@$$CBV?$basic_string@DU?$char_traits@D@std@@V?$allocator@D@2@@std@@H@std@@PAX@std@@@1@QAU?$pair@$$CBV?$basic_string@DU?$char_traits@D@std@@V?$allocator@D@2@@std@@H@1@ABUpiecewise_construct_t@1@$$QAV?$tuple@ABV?$basic_string@DU?$char_traits@D@std@@V?$allocator@D@2@@std@@@1@$$QAV?$tuple@$$V@1@@Z 00435b40 f i CommonPathfindingLib:GraphicsBufferManager.obj
 0002:00015c60       ??$destroy@PAU?$_Tree_node@U?$pair@$$CBHPAVGraphicsBuffer@@@std@@PAX@std@@@?$_Default_allocator_traits@V?$allocator@U?$_Tree_node@U?$pair@$$CBHPAVGraphicsBuffer@@@std@@PAX@std@@@std@@@std@@SAXAAV?$allocator@U?$_Tree_node@U?$pair@$$CBHPAVGraphicsBuffer@@@std@@PAX@std@@@1@QAPAU?$_Tree_node@U?$pair@$$CBHPAVGraphicsBuffer@@@std@@PAX@1@@Z 00435c60 f i CommonPathfindingLib:GraphicsBufferManager.obj
 0002:00015c90       ??$destroy@PAU?$_Tree_node@U?$pair@$$CBV?$basic_string@DU?$char_traits@D@std@@V?$allocator@D@2@@std@@H@std@@PAX@std@@@?$_Default_allocator_traits@V?$allocator@U?$_Tree_node@U?$pair@$$CBV?$basic_string@DU?$char_traits@D@std@@V?$allocator@D@2@@std@@H@std@@PAX@std@@@std@@@std@@SAXAAV?$allocator@U?$_Tree_node@U?$pair@$$CBV?$basic_string@DU?$char_traits@D@std@@V?$allocator@D@2@@std@@H@std@@PAX@std@@@1@QAPAU?$_Tree_node@U?$pair@$$CBV?$basic_string@DU?$char_traits@D@std@@V?$allocator@D@2@@std@@H@std@@PAX@1@@Z 00435c90 f i CommonPathfindingLib:GraphicsBufferManager.obj
 0002:00015cc0       ??$destroy@U?$pair@$$CBHPAVGraphicsBuffer@@@std@@@?$_Default_allocator_traits@V?$allocator@U?$_Tree_node@U?$pair@$$CBHPAVGraphicsBuffer@@@std@@PAX@std@@@std@@@std@@SAXAAV?$allocator@U?$_Tree_node@U?$pair@$$CBHPAVGraphicsBuffer@@@std@@PAX@std@@@1@QAU?$pair@$$CBHPAVGraphicsBuffer@@@1@@Z 00435cc0 f i CommonPathfindingLib:GraphicsBufferManager.obj
 0002:00015cf0       ??$destroy@U?$pair@$$CBV?$basic_string@DU?$char_traits@D@std@@V?$allocator@D@2@@std@@H@std@@@?$_Default_allocator_traits@V?$allocator@U?$_Tree_node@U?$pair@$$CBV?$basic_string@DU?$char_traits@D@std@@V?$allocator@D@2@@std@@H@std@@PAX@std@@@std@@@std@@SAXAAV?$allocator@U?$_Tree_node@U?$pair@$$CBV?$basic_string@DU?$char_traits@D@std@@V?$allocator@D@2@@std@@H@std@@PAX@std@@@1@QAU?$pair@$$CBV?$basic_string@DU?$char_traits@D@std@@V?$allocator@D@2@@std@@H@1@@Z 00435cf0 f i CommonPathfindingLib:GraphicsBufferManager.obj
 0002:00015d40       ??$emplace_hint@ABUpiecewise_construct_t@std@@V?$tuple@ABH@2@V?$tuple@$$V@2@@?$_Tree@V?$_Tmap_traits@HPAVGraphicsBuffer@@U?$less@H@std@@V?$allocator@U?$pair@$$CBHPAVGraphicsBuffer@@@std@@@3@$0A@@std@@@std@@QAE?AV?$_Tree_iterator@V?$_Tree_val@U?$_Tree_simple_types@U?$pair@$$CBHPAVGraphicsBuffer@@@std@@@std@@@std@@@1@V?$_Tree_const_iterator@V?$_Tree_val@U?$_Tree_simple_types@U?$pair@$$CBHPAVGraphicsBuffer@@@std@@@std@@@std@@@1@ABUpiecewise_construct_t@1@$$QAV?$tuple@ABH@1@$$QAV?$tuple@$$V@1@@Z 00435d40 f i CommonPathfindingLib:GraphicsBufferManager.obj
 0002:00015e80       ??$emplace_hint@ABUpiecewise_construct_t@std@@V?$tuple@ABV?$basic_string@DU?$char_traits@D@std@@V?$allocator@D@2@@std@@@2@V?$tuple@$$V@2@@?$_Tree@V?$_Tmap_traits@V?$basic_string@DU?$char_traits@D@std@@V?$allocator@D@2@@std@@HU?$less@V?$basic_string@DU?$char_traits@D@std@@V?$allocator@D@2@@std@@@2@V?$allocator@U?$pair@$$CBV?$basic_string@DU?$char_traits@D@std@@V?$allocator@D@2@@std@@H@std@@@2@$0A@@std@@@std@@QAE?AV?$_Tree_iterator@V?$_Tree_val@U?$_Tree_simple_types@U?$pair@$$CBV?$basic_string@DU?$char_traits@D@std@@V?$allocator@D@2@@std@@H@std@@@std@@@std@@@1@V?$_Tree_const_iterator@V?$_Tree_val@U?$_Tree_simple_types@U?$pair@$$CBV?$basic_string@DU?$char_traits@D@std@@V?$allocator@D@2@@std@@H@std@@@std@@@std@@@1@ABUpiecewise_construct_t@1@$$QAV?$tuple@ABV?$basic_string@DU?$char_traits@D@std@@V?$allocator@D@2@@std@@@1@$$QAV?$tuple@$$V@1@@Z 00435e80 f i CommonPathfindingLib:GraphicsBufferManager.obj
 0002:00015fc0       ??$erase@V?$_Tree_iterator@V?$_Tree_val@U?$_Tree_simple_types@U?$pair@$$CBHPAVGraphicsBuffer@@@std@@@std@@@std@@@std@@X@?$_Tree@V?$_Tmap_traits@HPAVGraphicsBuffer@@U?$less@H@std@@V?$allocator@U?$pair@$$CBHPAVGraphicsBuffer@@@std@@@3@$0A@@std@@@std@@QAE?AV?$_Tree_iterator@V?$_Tree_val@U?$_Tree_simple_types@U?$pair@$$CBHPAVGraphicsBuffer@@@std@@@std@@@std@@@1@V21@@Z 00435fc0 f i CommonPathfindingLib:GraphicsBufferManager.obj
 0002:000160b0       ??$erase@V?$_Tree_iterator@V?$_Tree_val@U?$_Tree_simple_types@U?$pair@$$CBV?$basic_string@DU?$char_traits@D@std@@V?$allocator@D@2@@std@@H@std@@@std@@@std@@@std@@X@?$_Tree@V?$_Tmap_traits@V?$basic_string@DU?$char_traits@D@std@@V?$allocator@D@2@@std@@HU?$less@V?$basic_string@DU?$char_traits@D@std@@V?$allocator@D@2@@std@@@2@V?$allocator@U?$pair@$$CBV?$basic_string@DU?$char_traits@D@std@@V?$allocator@D@2@@std@@H@std@@@2@$0A@@std@@@std@@QAE?AV?$_Tree_iterator@V?$_Tree_val@U?$_Tree_simple_types@U?$pair@$$CBV?$basic_string@DU?$char_traits@D@std@@V?$allocator@D@2@@std@@H@std@@@std@@@std@@@1@V21@@Z 004360b0 f i CommonPathfindingLib:GraphicsBufferManager.obj
 0002:000161a0       ??$forward@AAPAU?$_Tree_node@U?$pair@$$CBHPAVGraphicsBuffer@@@std@@PAX@std@@@std@@YAAAPAU?$_Tree_node@U?$pair@$$CBHPAVGraphicsBuffer@@@std@@PAX@0@AAPAU10@@Z 004361a0 f i CommonPathfindingLib:GraphicsBufferManager.obj
 0002:000161e0       ??$forward@AAPAU?$_Tree_node@U?$pair@$$CBV?$basic_string@DU?$char_traits@D@std@@V?$allocator@D@2@@std@@H@std@@PAX@std@@@std@@YAAAPAU?$_Tree_node@U?$pair@$$CBV?$basic_string@DU?$char_traits@D@std@@V?$allocator@D@2@@std@@H@std@@PAX@0@AAPAU10@@Z 004361e0 f i CommonPathfindingLib:GraphicsBufferManager.obj
 0002:00016220       ??$forward@AAU?$pair@$$CBHPAVGraphicsBuffer@@@std@@@std@@YAAAU?$pair@$$CBHPAVGraphicsBuffer@@@0@AAU10@@Z 00436220 f i CommonPathfindingLib:GraphicsBufferManager.obj
 0002:00016260       ??$forward@AAU?$pair@$$CBV?$basic_string@DU?$char_traits@D@std@@V?$allocator@D@2@@std@@H@std@@@std@@YAAAU?$pair@$$CBV?$basic_string@DU?$char_traits@D@std@@V?$allocator@D@2@@std@@H@0@AAU10@@Z 00436260 f i CommonPathfindingLib:GraphicsBufferManager.obj
 0002:000162a0       ??$forward@AAV?$_Tree_iterator@V?$_Tree_val@U?$_Tree_simple_types@U?$pair@$$CBHPAVGraphicsBuffer@@@std@@@std@@@std@@@std@@@std@@YAAAV?$_Tree_iterator@V?$_Tree_val@U?$_Tree_simple_types@U?$pair@$$CBHPAVGraphicsBuffer@@@std@@@std@@@std@@@0@AAV10@@Z 004362a0 f i CommonPathfindingLib:GraphicsBufferManager.obj
 0002:000162e0       ??$forward@AAV?$_Tree_iterator@V?$_Tree_val@U?$_Tree_simple_types@U?$pair@$$CBV?$basic_string@DU?$char_traits@D@std@@V?$allocator@D@2@@std@@H@std@@@std@@@std@@@std@@@std@@YAAAV?$_Tree_iterator@V?$_Tree_val@U?$_Tree_simple_types@U?$pair@$$CBV?$basic_string@DU?$char_traits@D@std@@V?$allocator@D@2@@std@@H@std@@@std@@@std@@@0@AAV10@@Z 004362e0 f i CommonPathfindingLib:GraphicsBufferManager.obj
 0002:00016320       ??$forward@ABH@std@@YAABHABH@Z 00436320 f i CommonPathfindingLib:GraphicsBufferManager.obj
 0002:00016360       ??$forward@ABU?$less@H@std@@@std@@YAABU?$less@H@0@ABU10@@Z 00436360 f i CommonPathfindingLib:GraphicsBufferManager.obj
 0002:000163a0       ??$forward@ABU?$less@V?$basic_string@DU?$char_traits@D@std@@V?$allocator@D@2@@std@@@std@@@std@@YAABU?$less@V?$basic_string@DU?$char_traits@D@std@@V?$allocator@D@2@@std@@@0@ABU10@@Z 004363a0 f i CommonPathfindingLib:GraphicsBufferManager.obj
 0002:000163e0       ??$forward@ABUpiecewise_construct_t@std@@@std@@YAABUpiecewise_construct_t@0@ABU10@@Z 004363e0 f i CommonPathfindingLib:GraphicsBufferManager.obj
 0002:00016420       ??$forward@ABV?$basic_string@DU?$char_traits@D@std@@V?$allocator@D@2@@std@@@std@@YAABV?$basic_string@DU?$char_traits@D@std@@V?$allocator@D@2@@0@ABV10@@Z 00436420 f i CommonPathfindingLib:GraphicsBufferManager.obj
 0002:00016460       ??$forward@U_Zero_then_variadic_args_t@std@@@std@@YA$$QAU_Zero_then_variadic_args_t@0@AAU10@@Z 00436460 f i CommonPathfindingLib:GraphicsBufferManager.obj
 0002:000164a0       ??$forward@V?$_Tree_iterator@V?$_Tree_val@U?$_Tree_simple_types@U?$pair@$$CBHPAVGraphicsBuffer@@@std@@@std@@@std@@@std@@@std@@YA$$QAV?$_Tree_iterator@V?$_Tree_val@U?$_Tree_simple_types@U?$pair@$$CBHPAVGraphicsBuffer@@@std@@@std@@@std@@@0@AAV10@@Z 004364a0 f i CommonPathfindingLib:GraphicsBufferManager.obj
 0002:000164e0       ??$forward@V?$_Tree_iterator@V?$_Tree_val@U?$_Tree_simple_types@U?$pair@$$CBV?$basic_string@DU?$char_traits@D@std@@V?$allocator@D@2@@std@@H@std@@@std@@@std@@@std@@@std@@YA$$QAV?$_Tree_iterator@V?$_Tree_val@U?$_Tree_simple_types@U?$pair@$$CBV?$basic_string@DU?$char_traits@D@std@@V?$allocator@D@2@@std@@H@std@@@std@@@std@@@0@AAV10@@Z 004364e0 f i CommonPathfindingLib:GraphicsBufferManager.obj
 0002:00016520       ??$forward@V?$allocator@D@std@@@std@@YA$$QAV?$allocator@D@0@AAV10@@Z 00436520 f i CommonPathfindingLib:GraphicsBufferManager.obj
 0002:00016560       ??$forward@V?$tuple@$$V@std@@@std@@YA$$QAV?$tuple@$$V@0@AAV10@@Z 00436560 f i CommonPathfindingLib:GraphicsBufferManager.obj
 0002:000165a0       ??$forward@V?$tuple@ABH@std@@@std@@YA$$QAV?$tuple@ABH@0@AAV10@@Z 004365a0 f i CommonPathfindingLib:GraphicsBufferManager.obj
 0002:000165e0       ??$forward@V?$tuple@ABV?$basic_string@DU?$char_traits@D@std@@V?$allocator@D@2@@std@@@std@@@std@@YA$$QAV?$tuple@ABV?$basic_string@DU?$char_traits@D@std@@V?$allocator@D@2@@std@@@0@AAV10@@Z 004365e0 f i CommonPathfindingLib:GraphicsBufferManager.obj
 0002:00016620       ??$forward@_N@std@@YA$$QA_NAA_N@Z 00436620 f i CommonPathfindingLib:GraphicsBufferManager.obj
 0002:00016660       ??$forward_as_tuple@$$V@std@@YA?AV?$tuple@$$V@0@XZ 00436660 f i CommonPathfindingLib:GraphicsBufferManager.obj
 0002:000166b0       ??$forward_as_tuple@ABH@std@@YA?AV?$tuple@ABH@0@ABH@Z 004366b0 f i CommonPathfindingLib:GraphicsBufferManager.obj
 0002:00016750       ??$forward_as_tuple@ABV?$basic_string@DU?$char_traits@D@std@@V?$allocator@D@2@@std@@@std@@YA?AV?$tuple@ABV?$basic_string@DU?$char_traits@D@std@@V?$allocator@D@2@@std@@@0@ABV?$basic_string@DU?$char_traits@D@std@@V?$allocator@D@2@@0@@Z 00436750 f i CommonPathfindingLib:GraphicsBufferManager.obj
 0002:000167f0       ??$get@$0A@ABH@std@@YAABH$$QAV?$tuple@ABH@0@@Z 004367f0 f i CommonPathfindingLib:GraphicsBufferManager.obj
 0002:00016840       ??$get@$0A@ABV?$basic_string@DU?$char_traits@D@std@@V?$allocator@D@2@@std@@@std@@YAABV?$basic_string@DU?$char_traits@D@std@@V?$allocator@D@2@@0@$$QAV?$tuple@ABV?$basic_string@DU?$char_traits@D@std@@V?$allocator@D@2@@std@@@0@@Z 00436840 f i CommonPathfindingLib:GraphicsBufferManager.obj
 0002:00016890       ??$move@AAD@std@@YA$$QADAAD@Z 00436890 f i CommonPathfindingLib:GraphicsBufferManager.obj
 0002:000168d0       ??$move@AAV?$tuple@ABH@std@@@std@@YA$$QAV?$tuple@ABH@0@AAV10@@Z 004368d0 f i CommonPathfindingLib:GraphicsBufferManager.obj
 0002:00016910       ??$move@AAV?$tuple@ABV?$basic_string@DU?$char_traits@D@std@@V?$allocator@D@2@@std@@@std@@@std@@YA$$QAV?$tuple@ABV?$basic_string@DU?$char_traits@D@std@@V?$allocator@D@2@@std@@@0@AAV10@@Z 00436910 f i CommonPathfindingLib:GraphicsBufferManager.obj
 0002:00016950       ??$swap@DX@std@@YAXAAD0@Z  00436950 f i CommonPathfindingLib:GraphicsBufferManager.obj
 0002:00016a10       ??$try_emplace@$$V@?$map@HPAVGraphicsBuffer@@U?$less@H@std@@V?$allocator@U?$pair@$$CBHPAVGraphicsBuffer@@@std@@@3@@std@@QAE?AU?$pair@V?$_Tree_iterator@V?$_Tree_val@U?$_Tree_simple_types@U?$pair@$$CBHPAVGraphicsBuffer@@@std@@@std@@@std@@@std@@_N@1@ABH@Z 00436a10 f i CommonPathfindingLib:GraphicsBufferManager.obj
 0002:00016a90       ??$try_emplace@$$V@?$map@V?$basic_string@DU?$char_traits@D@std@@V?$allocator@D@2@@std@@HU?$less@V?$basic_string@DU?$char_traits@D@std@@V?$allocator@D@2@@std@@@2@V?$allocator@U?$pair@$$CBV?$basic_string@DU?$char_traits@D@std@@V?$allocator@D@2@@std@@H@std@@@2@@std@@QAE?AU?$pair@V?$_Tree_iterator@V?$_Tree_val@U?$_Tree_simple_types@U?$pair@$$CBV?$basic_string@DU?$char_traits@D@std@@V?$allocator@D@2@@std@@H@std@@@std@@@std@@@std@@_N@1@ABV?$basic_string@DU?$char_traits@D@std@@V?$allocator@D@2@@1@@Z 00436a90 f i CommonPathfindingLib:GraphicsBufferManager.obj
 0002:00016b10       ??0?$_Tree@V?$_Tmap_traits@HPAVGraphicsBuffer@@U?$less@H@std@@V?$allocator@U?$pair@$$CBHPAVGraphicsBuffer@@@std@@@3@$0A@@std@@@std@@QAE@ABU?$less@H@1@@Z 00436b10 f i CommonPathfindingLib:GraphicsBufferManager.obj
 0002:00016b70       ??0?$_Tree@V?$_Tmap_traits@V?$basic_string@DU?$char_traits@D@std@@V?$allocator@D@2@@std@@HU?$less@V?$basic_string@DU?$char_traits@D@std@@V?$allocator@D@2@@std@@@2@V?$allocator@U?$pair@$$CBV?$basic_string@DU?$char_traits@D@std@@V?$allocator@D@2@@std@@H@std@@@2@$0A@@std@@@std@@QAE@ABU?$less@V?$basic_string@DU?$char_traits@D@std@@V?$allocator@D@2@@std@@@1@@Z 00436b70 f i CommonPathfindingLib:GraphicsBufferManager.obj
 0002:00016bd0       ??0?$_Tree_comp_alloc@V?$_Tmap_traits@HPAVGraphicsBuffer@@U?$less@H@std@@V?$allocator@U?$pair@$$CBHPAVGraphicsBuffer@@@std@@@3@$0A@@std@@@std@@QAE@ABU?$less@H@1@@Z 00436bd0 f i CommonPathfindingLib:GraphicsBufferManager.obj
 0002:00016c90       ??0?$_Tree_comp_alloc@V?$_Tmap_traits@V?$basic_string@DU?$char_traits@D@std@@V?$allocator@D@2@@std@@HU?$less@V?$basic_string@DU?$char_traits@D@std@@V?$allocator@D@2@@std@@@2@V?$allocator@U?$pair@$$CBV?$basic_string@DU?$char_traits@D@std@@V?$allocator@D@2@@std@@H@std@@@2@$0A@@std@@@std@@QAE@ABU?$less@V?$basic_string@DU?$char_traits@D@std@@V?$allocator@D@2@@std@@@1@@Z 00436c90 f i CommonPathfindingLib:GraphicsBufferManager.obj
 0002:00016d50       ??0?$_Tree_const_iterator@V?$_Tree_val@U?$_Tree_simple_types@U?$pair@$$CBHPAVGraphicsBuffer@@@std@@@std@@@std@@@std@@QAE@$$QAV01@@Z 00436d50 f i CommonPathfindingLib:GraphicsBufferManager.obj
 0002:00016db0       ??0?$_Tree_const_iterator@V?$_Tree_val@U?$_Tree_simple_types@U?$pair@$$CBHPAVGraphicsBuffer@@@std@@@std@@@std@@@std@@QAE@ABV01@@Z 00436db0 f i CommonPathfindingLib:GraphicsBufferManager.obj
 0002:00016e10       ??0?$_Tree_const_iterator@V?$_Tree_val@U?$_Tree_simple_types@U?$pair@$$CBHPAVGraphicsBuffer@@@std@@@std@@@std@@@std@@QAE@PAU?$_Tree_node@U?$pair@$$CBHPAVGraphicsBuffer@@@std@@PAX@1@PBV?$_Tree_val@U?$_Tree_simple_types@U?$pair@$$CBHPAVGraphicsBuffer@@@std@@@std@@@1@@Z 00436e10 f i CommonPathfindingLib:GraphicsBufferManager.obj
 0002:00016e70       ??0?$_Tree_const_iterator@V?$_Tree_val@U?$_Tree_simple_types@U?$pair@$$CBHPAVGraphicsBuffer@@@std@@@std@@@std@@@std@@QAE@XZ 00436e70 f i CommonPathfindingLib:GraphicsBufferManager.obj
 0002:00016ed0       ??0?$_Tree_const_iterator@V?$_Tree_val@U?$_Tree_simple_types@U?$pair@$$CBV?$basic_string@DU?$char_traits@D@std@@V?$allocator@D@2@@std@@H@std@@@std@@@std@@@std@@QAE@$$QAV01@@Z 00436ed0 f i CommonPathfindingLib:GraphicsBufferManager.obj
 0002:00016f30       ??0?$_Tree_const_iterator@V?$_Tree_val@U?$_Tree_simple_types@U?$pair@$$CBV?$basic_string@DU?$char_traits@D@std@@V?$allocator@D@2@@std@@H@std@@@std@@@std@@@std@@QAE@ABV01@@Z 00436f30 f i CommonPathfindingLib:GraphicsBufferManager.obj
 0002:00016f90       ??0?$_Tree_const_iterator@V?$_Tree_val@U?$_Tree_simple_types@U?$pair@$$CBV?$basic_string@DU?$char_traits@D@std@@V?$allocator@D@2@@std@@H@std@@@std@@@std@@@std@@QAE@PAU?$_Tree_node@U?$pair@$$CBV?$basic_string@DU?$char_traits@D@std@@V?$allocator@D@2@@std@@H@std@@PAX@1@PBV?$_Tree_val@U?$_Tree_simple_types@U?$pair@$$CBV?$basic_string@DU?$char_traits@D@std@@V?$allocator@D@2@@std@@H@std@@@std@@@1@@Z 00436f90 f i CommonPathfindingLib:GraphicsBufferManager.obj
 0002:00016ff0       ??0?$_Tree_const_iterator@V?$_Tree_val@U?$_Tree_simple_types@U?$pair@$$CBV?$basic_string@DU?$char_traits@D@std@@V?$allocator@D@2@@std@@H@std@@@std@@@std@@@std@@QAE@XZ 00436ff0 f i CommonPathfindingLib:GraphicsBufferManager.obj
 0002:00017050       ??0?$_Tree_iterator@V?$_Tree_val@U?$_Tree_simple_types@U?$pair@$$CBHPAVGraphicsBuffer@@@std@@@std@@@std@@@std@@QAE@$$QAV01@@Z 00437050 f i CommonPathfindingLib:GraphicsBufferManager.obj
 0002:000170b0       ??0?$_Tree_iterator@V?$_Tree_val@U?$_Tree_simple_types@U?$pair@$$CBHPAVGraphicsBuffer@@@std@@@std@@@std@@@std@@QAE@ABV01@@Z 004370b0 f i CommonPathfindingLib:GraphicsBufferManager.obj
 0002:00017110       ??0?$_Tree_iterator@V?$_Tree_val@U?$_Tree_simple_types@U?$pair@$$CBHPAVGraphicsBuffer@@@std@@@std@@@std@@@std@@QAE@PAU?$_Tree_node@U?$pair@$$CBHPAVGraphicsBuffer@@@std@@PAX@1@PBV?$_Tree_val@U?$_Tree_simple_types@U?$pair@$$CBHPAVGraphicsBuffer@@@std@@@std@@@1@@Z 00437110 f i CommonPathfindingLib:GraphicsBufferManager.obj
 0002:00017170       ??0?$_Tree_iterator@V?$_Tree_val@U?$_Tree_simple_types@U?$pair@$$CBHPAVGraphicsBuffer@@@std@@@std@@@std@@@std@@QAE@XZ 00437170 f i CommonPathfindingLib:GraphicsBufferManager.obj
 0002:000171d0       ??0?$_Tree_iterator@V?$_Tree_val@U?$_Tree_simple_types@U?$pair@$$CBV?$basic_string@DU?$char_traits@D@std@@V?$allocator@D@2@@std@@H@std@@@std@@@std@@@std@@QAE@$$QAV01@@Z 004371d0 f i CommonPathfindingLib:GraphicsBufferManager.obj
 0002:00017230       ??0?$_Tree_iterator@V?$_Tree_val@U?$_Tree_simple_types@U?$pair@$$CBV?$basic_string@DU?$char_traits@D@std@@V?$allocator@D@2@@std@@H@std@@@std@@@std@@@std@@QAE@ABV01@@Z 00437230 f i CommonPathfindingLib:GraphicsBufferManager.obj
 0002:00017290       ??0?$_Tree_iterator@V?$_Tree_val@U?$_Tree_simple_types@U?$pair@$$CBV?$basic_string@DU?$char_traits@D@std@@V?$allocator@D@2@@std@@H@std@@@std@@@std@@@std@@QAE@PAU?$_Tree_node@U?$pair@$$CBV?$basic_string@DU?$char_traits@D@std@@V?$allocator@D@2@@std@@H@std@@PAX@1@PBV?$_Tree_val@U?$_Tree_simple_types@U?$pair@$$CBV?$basic_string@DU?$char_traits@D@std@@V?$allocator@D@2@@std@@H@std@@@std@@@1@@Z 00437290 f i CommonPathfindingLib:GraphicsBufferManager.obj
 0002:000172f0       ??0?$_Tree_iterator@V?$_Tree_val@U?$_Tree_simple_types@U?$pair@$$CBV?$basic_string@DU?$char_traits@D@std@@V?$allocator@D@2@@std@@H@std@@@std@@@std@@@std@@QAE@XZ 004372f0 f i CommonPathfindingLib:GraphicsBufferManager.obj
 0002:00017350       ??0?$_Tree_unchecked_const_iterator@V?$_Tree_val@U?$_Tree_simple_types@U?$pair@$$CBHPAVGraphicsBuffer@@@std@@@std@@@std@@U_Iterator_base12@2@@std@@QAE@$$QAV01@@Z 00437350 f i CommonPathfindingLib:GraphicsBufferManager.obj
 0002:000173c0       ??0?$_Tree_unchecked_const_iterator@V?$_Tree_val@U?$_Tree_simple_types@U?$pair@$$CBHPAVGraphicsBuffer@@@std@@@std@@@std@@U_Iterator_base12@2@@std@@QAE@ABV01@@Z 004373c0 f i CommonPathfindingLib:GraphicsBufferManager.obj
 0002:00017430       ??0?$_Tree_unchecked_const_iterator@V?$_Tree_val@U?$_Tree_simple_types@U?$pair@$$CBHPAVGraphicsBuffer@@@std@@@std@@@std@@U_Iterator_base12@2@@std@@QAE@PAU?$_Tree_node@U?$pair@$$CBHPAVGraphicsBuffer@@@std@@PAX@1@PBV?$_Tree_val@U?$_Tree_simple_types@U?$pair@$$CBHPAVGraphicsBuffer@@@std@@@std@@@1@@Z 00437430 f i CommonPathfindingLib:GraphicsBufferManager.obj
 0002:000174a0       ??0?$_Tree_unchecked_const_iterator@V?$_Tree_val@U?$_Tree_simple_types@U?$pair@$$CBHPAVGraphicsBuffer@@@std@@@std@@@std@@U_Iterator_base12@2@@std@@QAE@XZ 004374a0 f i CommonPathfindingLib:GraphicsBufferManager.obj
 0002:00017500       ??0?$_Tree_unchecked_const_iterator@V?$_Tree_val@U?$_Tree_simple_types@U?$pair@$$CBV?$basic_string@DU?$char_traits@D@std@@V?$allocator@D@2@@std@@H@std@@@std@@@std@@U_Iterator_base12@2@@std@@QAE@$$QAV01@@Z 00437500 f i CommonPathfindingLib:GraphicsBufferManager.obj
 0002:00017570       ??0?$_Tree_unchecked_const_iterator@V?$_Tree_val@U?$_Tree_simple_types@U?$pair@$$CBV?$basic_string@DU?$char_traits@D@std@@V?$allocator@D@2@@std@@H@std@@@std@@@std@@U_Iterator_base12@2@@std@@QAE@ABV01@@Z 00437570 f i CommonPathfindingLib:GraphicsBufferManager.obj
 0002:000175e0       ??0?$_Tree_unchecked_const_iterator@V?$_Tree_val@U?$_Tree_simple_types@U?$pair@$$CBV?$basic_string@DU?$char_traits@D@std@@V?$allocator@D@2@@std@@H@std@@@std@@@std@@U_Iterator_base12@2@@std@@QAE@PAU?$_Tree_node@U?$pair@$$CBV?$basic_string@DU?$char_traits@D@std@@V?$allocator@D@2@@std@@H@std@@PAX@1@PBV?$_Tree_val@U?$_Tree_simple_types@U?$pair@$$CBV?$basic_string@DU?$char_traits@D@std@@V?$allocator@D@2@@std@@H@std@@@std@@@1@@Z 004375e0 f i CommonPathfindingLib:GraphicsBufferManager.obj
 0002:00017650       ??0?$_Tree_unchecked_const_iterator@V?$_Tree_val@U?$_Tree_simple_types@U?$pair@$$CBV?$basic_string@DU?$char_traits@D@std@@V?$allocator@D@2@@std@@H@std@@@std@@@std@@U_Iterator_base12@2@@std@@QAE@XZ 00437650 f i CommonPathfindingLib:GraphicsBufferManager.obj
 0002:000176b0       ??0?$_Tree_val@U?$_Tree_simple_types@U?$pair@$$CBHPAVGraphicsBuffer@@@std@@@std@@@std@@QAE@XZ 004376b0 f i CommonPathfindingLib:GraphicsBufferManager.obj
 0002:00017720       ??0?$_Tree_val@U?$_Tree_simple_types@U?$pair@$$CBV?$basic_string@DU?$char_traits@D@std@@V?$allocator@D@2@@std@@H@std@@@std@@@std@@QAE@XZ 00437720 f i CommonPathfindingLib:GraphicsBufferManager.obj
 0002:00017790       ??0?$allocator@U?$_Tree_node@U?$pair@$$CBHPAVGraphicsBuffer@@@std@@PAX@std@@@std@@QAE@XZ 00437790 f i CommonPathfindingLib:GraphicsBufferManager.obj
 0002:000177d0       ??0?$allocator@U?$_Tree_node@U?$pair@$$CBV?$basic_string@DU?$char_traits@D@std@@V?$allocator@D@2@@std@@H@std@@PAX@std@@@std@@QAE@XZ 004377d0 f i CommonPathfindingLib:GraphicsBufferManager.obj
 0002:00017810       ??0?$basic_string@DU?$char_traits@D@std@@V?$allocator@D@2@@std@@QAE@ABV01@@Z 00437810 f i CommonPathfindingLib:GraphicsBufferManager.obj
 0002:000178e0       ??0?$map@HPAVGraphicsBuffer@@U?$less@H@std@@V?$allocator@U?$pair@$$CBHPAVGraphicsBuffer@@@std@@@3@@std@@QAE@XZ 004378e0 f i CommonPathfindingLib:GraphicsBufferManager.obj
 0002:00017940       ??0?$map@V?$basic_string@DU?$char_traits@D@std@@V?$allocator@D@2@@std@@HU?$less@V?$basic_string@DU?$char_traits@D@std@@V?$allocator@D@2@@std@@@2@V?$allocator@U?$pair@$$CBV?$basic_string@DU?$char_traits@D@std@@V?$allocator@D@2@@std@@H@std@@@2@@std@@QAE@XZ 00437940 f i CommonPathfindingLib:GraphicsBufferManager.obj
 0002:000179a0       ??0?$tuple@$$V@std@@QAE@ABV01@@Z 004379a0 f i CommonPathfindingLib:GraphicsBufferManager.obj
 0002:000179e0       ??0?$tuple@$$V@std@@QAE@XZ 004379e0 f i CommonPathfindingLib:GraphicsBufferManager.obj
 0002:00017a20       ??0?$tuple@ABH@std@@QAE@$$QAV01@@Z 00437a20 f i CommonPathfindingLib:GraphicsBufferManager.obj
 0002:00017a90       ??0?$tuple@ABV?$basic_string@DU?$char_traits@D@std@@V?$allocator@D@2@@std@@@std@@QAE@$$QAV01@@Z 00437a90 f i CommonPathfindingLib:GraphicsBufferManager.obj
 0002:00017b00       ??0GraphicsBufferManager@@QAE@XZ 00437b00 f   CommonPathfindingLib:GraphicsBufferManager.obj
 0002:00017bb0       ??0_Iterator_base12@std@@QAE@ABU01@@Z 00437bb0 f i CommonPathfindingLib:GraphicsBufferManager.obj
 0002:00017c30       ??1?$_Compressed_pair@U?$less@H@std@@V?$_Compressed_pair@V?$allocator@U?$_Tree_node@U?$pair@$$CBHPAVGraphicsBuffer@@@std@@PAX@std@@@std@@V?$_Tree_val@U?$_Tree_simple_types@U?$pair@$$CBHPAVGraphicsBuffer@@@std@@@std@@@2@$00@2@$00@std@@QAE@XZ 00437c30 f i CommonPathfindingLib:GraphicsBufferManager.obj
 0002:00017c80       ??1?$_Compressed_pair@U?$less@V?$basic_string@DU?$char_traits@D@std@@V?$allocator@D@2@@std@@@std@@V?$_Compressed_pair@V?$allocator@U?$_Tree_node@U?$pair@$$CBV?$basic_string@DU?$char_traits@D@std@@V?$allocator@D@2@@std@@H@std@@PAX@std@@@std@@V?$_Tree_val@U?$_Tree_simple_types@U?$pair@$$CBV?$basic_string@DU?$char_traits@D@std@@V?$allocator@D@2@@std@@H@std@@@std@@@2@$00@2@$00@std@@QAE@XZ 00437c80 f i CommonPathfindingLib:GraphicsBufferManager.obj
 0002:00017cd0       ??1?$_Compressed_pair@V?$allocator@U?$_Tree_node@U?$pair@$$CBHPAVGraphicsBuffer@@@std@@PAX@std@@@std@@V?$_Tree_val@U?$_Tree_simple_types@U?$pair@$$CBHPAVGraphicsBuffer@@@std@@@std@@@2@$00@std@@QAE@XZ 00437cd0 f i CommonPathfindingLib:GraphicsBufferManager.obj
 0002:00017d20       ??1?$_Compressed_pair@V?$allocator@U?$_Tree_node@U?$pair@$$CBV?$basic_string@DU?$char_traits@D@std@@V?$allocator@D@2@@std@@H@std@@PAX@std@@@std@@V?$_Tree_val@U?$_Tree_simple_types@U?$pair@$$CBV?$basic_string@DU?$char_traits@D@std@@V?$allocator@D@2@@std@@H@std@@@std@@@2@$00@std@@QAE@XZ 00437d20 f i CommonPathfindingLib:GraphicsBufferManager.obj
 0002:00017d70       ??1?$_Tree@V?$_Tmap_traits@HPAVGraphicsBuffer@@U?$less@H@std@@V?$allocator@U?$pair@$$CBHPAVGraphicsBuffer@@@std@@@3@$0A@@std@@@std@@QAE@XZ 00437d70 f i CommonPathfindingLib:GraphicsBufferManager.obj
 0002:00017e00       ??1?$_Tree@V?$_Tmap_traits@V?$basic_string@DU?$char_traits@D@std@@V?$allocator@D@2@@std@@HU?$less@V?$basic_string@DU?$char_traits@D@std@@V?$allocator@D@2@@std@@@2@V?$allocator@U?$pair@$$CBV?$basic_string@DU?$char_traits@D@std@@V?$allocator@D@2@@std@@H@std@@@2@$0A@@std@@@std@@QAE@XZ 00437e00 f i CommonPathfindingLib:GraphicsBufferManager.obj
 0002:00017e90       ??1?$_Tree_comp_alloc@V?$_Tmap_traits@HPAVGraphicsBuffer@@U?$less@H@std@@V?$allocator@U?$pair@$$CBHPAVGraphicsBuffer@@@std@@@3@$0A@@std@@@std@@QAE@XZ 00437e90 f i CommonPathfindingLib:GraphicsBufferManager.obj
 0002:00017f40       ??1?$_Tree_comp_alloc@V?$_Tmap_traits@V?$basic_string@DU?$char_traits@D@std@@V?$allocator@D@2@@std@@HU?$less@V?$basic_string@DU?$char_traits@D@std@@V?$allocator@D@2@@std@@@2@V?$allocator@U?$pair@$$CBV?$basic_string@DU?$char_traits@D@std@@V?$allocator@D@2@@std@@H@std@@@2@$0A@@std@@@std@@QAE@XZ 00437f40 f i CommonPathfindingLib:GraphicsBufferManager.obj
 0002:00017ff0       ??1?$_Tree_const_iterator@V?$_Tree_val@U?$_Tree_simple_types@U?$pair@$$CBHPAVGraphicsBuffer@@@std@@@std@@@std@@@std@@QAE@XZ 00437ff0 f i CommonPathfindingLib:GraphicsBufferManager.obj
 0002:00018040       ??1?$_Tree_const_iterator@V?$_Tree_val@U?$_Tree_simple_types@U?$pair@$$CBV?$basic_string@DU?$char_traits@D@std@@V?$allocator@D@2@@std@@H@std@@@std@@@std@@@std@@QAE@XZ 00438040 f i CommonPathfindingLib:GraphicsBufferManager.obj
 0002:00018090       ??1?$_Tree_iterator@V?$_Tree_val@U?$_Tree_simple_types@U?$pair@$$CBHPAVGraphicsBuffer@@@std@@@std@@@std@@@std@@QAE@XZ 00438090 f i CommonPathfindingLib:GraphicsBufferManager.obj
 0002:000180e0       ??1?$_Tree_iterator@V?$_Tree_val@U?$_Tree_simple_types@U?$pair@$$CBV?$basic_string@DU?$char_traits@D@std@@V?$allocator@D@2@@std@@H@std@@@std@@@std@@@std@@QAE@XZ 004380e0 f i CommonPathfindingLib:GraphicsBufferManager.obj
 0002:00018130       ??1?$_Tree_unchecked_const_iterator@V?$_Tree_val@U?$_Tree_simple_types@U?$pair@$$CBHPAVGraphicsBuffer@@@std@@@std@@@std@@U_Iterator_base12@2@@std@@QAE@XZ 00438130 f i CommonPathfindingLib:GraphicsBufferManager.obj
 0002:00018180       ??1?$_Tree_unchecked_const_iterator@V?$_Tree_val@U?$_Tree_simple_types@U?$pair@$$CBV?$basic_string@DU?$char_traits@D@std@@V?$allocator@D@2@@std@@H@std@@@std@@@std@@U_Iterator_base12@2@@std@@QAE@XZ 00438180 f i CommonPathfindingLib:GraphicsBufferManager.obj
 0002:000181d0       ??1?$_Tree_val@U?$_Tree_simple_types@U?$pair@$$CBHPAVGraphicsBuffer@@@std@@@std@@@std@@QAE@XZ 004381d0 f i CommonPathfindingLib:GraphicsBufferManager.obj
 0002:00018220       ??1?$_Tree_val@U?$_Tree_simple_types@U?$pair@$$CBV?$basic_string@DU?$char_traits@D@std@@V?$allocator@D@2@@std@@H@std@@@std@@@std@@QAE@XZ 00438220 f i CommonPathfindingLib:GraphicsBufferManager.obj
 0002:00018270       ??1?$map@HPAVGraphicsBuffer@@U?$less@H@std@@V?$allocator@U?$pair@$$CBHPAVGraphicsBuffer@@@std@@@3@@std@@QAE@XZ 00438270 f i CommonPathfindingLib:GraphicsBufferManager.obj
 0002:000182c0       ??1?$map@V?$basic_string@DU?$char_traits@D@std@@V?$allocator@D@2@@std@@HU?$less@V?$basic_string@DU?$char_traits@D@std@@V?$allocator@D@2@@std@@@2@V?$allocator@U?$pair@$$CBV?$basic_string@DU?$char_traits@D@std@@V?$allocator@D@2@@std@@H@std@@@2@@std@@QAE@XZ 004382c0 f i CommonPathfindingLib:GraphicsBufferManager.obj
 0002:00018310       ??1?$pair@$$CBV?$basic_string@DU?$char_traits@D@std@@V?$allocator@D@2@@std@@H@std@@QAE@XZ 00438310 f i CommonPathfindingLib:GraphicsBufferManager.obj
 0002:00018360       ??1?$pair@V?$_Tree_iterator@V?$_Tree_val@U?$_Tree_simple_types@U?$pair@$$CBHPAVGraphicsBuffer@@@std@@@std@@@std@@@std@@_N@std@@QAE@XZ 00438360 f i CommonPathfindingLib:GraphicsBufferManager.obj
 0002:000183b0       ??1?$pair@V?$_Tree_iterator@V?$_Tree_val@U?$_Tree_simple_types@U?$pair@$$CBV?$basic_string@DU?$char_traits@D@std@@V?$allocator@D@2@@std@@H@std@@@std@@@std@@@std@@_N@std@@QAE@XZ 004383b0 f i CommonPathfindingLib:GraphicsBufferManager.obj
 0002:00018400       ??1GraphicsBufferManager@@QAE@XZ 00438400 f   CommonPathfindingLib:GraphicsBufferManager.obj
 0002:000184a0       ??3@YAXPAX0@Z              004384a0 f i CommonPathfindingLib:GraphicsBufferManager.obj
 0002:000184d0       ??4?$_Tree_const_iterator@V?$_Tree_val@U?$_Tree_simple_types@U?$pair@$$CBHPAVGraphicsBuffer@@@std@@@std@@@std@@@std@@QAEAAV01@$$QAV01@@Z 004384d0 f i CommonPathfindingLib:GraphicsBufferManager.obj
 0002:00018530       ??4?$_Tree_const_iterator@V?$_Tree_val@U?$_Tree_simple_types@U?$pair@$$CBHPAVGraphicsBuffer@@@std@@@std@@@std@@@std@@QAEAAV01@ABV01@@Z 00438530 f i CommonPathfindingLib:GraphicsBufferManager.obj
 0002:00018590       ??4?$_Tree_const_iterator@V?$_Tree_val@U?$_Tree_simple_types@U?$pair@$$CBV?$basic_string@DU?$char_traits@D@std@@V?$allocator@D@2@@std@@H@std@@@std@@@std@@@std@@QAEAAV01@$$QAV01@@Z 00438590 f i CommonPathfindingLib:GraphicsBufferManager.obj
 0002:000185f0       ??4?$_Tree_const_iterator@V?$_Tree_val@U?$_Tree_simple_types@U?$pair@$$CBV?$basic_string@DU?$char_traits@D@std@@V?$allocator@D@2@@std@@H@std@@@std@@@std@@@std@@QAEAAV01@ABV01@@Z 004385f0 f i CommonPathfindingLib:GraphicsBufferManager.obj
 0002:00018650       ??4?$_Tree_iterator@V?$_Tree_val@U?$_Tree_simple_types@U?$pair@$$CBHPAVGraphicsBuffer@@@std@@@std@@@std@@@std@@QAEAAV01@$$QAV01@@Z 00438650 f i CommonPathfindingLib:GraphicsBufferManager.obj
 0002:000186b0       ??4?$_Tree_iterator@V?$_Tree_val@U?$_Tree_simple_types@U?$pair@$$CBV?$basic_string@DU?$char_traits@D@std@@V?$allocator@D@2@@std@@H@std@@@std@@@std@@@std@@QAEAAV01@$$QAV01@@Z 004386b0 f i CommonPathfindingLib:GraphicsBufferManager.obj
 0002:00018710       ??4?$_Tree_unchecked_const_iterator@V?$_Tree_val@U?$_Tree_simple_types@U?$pair@$$CBHPAVGraphicsBuffer@@@std@@@std@@@std@@U_Iterator_base12@2@@std@@QAEAAV01@$$QAV01@@Z 00438710 f i CommonPathfindingLib:GraphicsBufferManager.obj
 0002:00018780       ??4?$_Tree_unchecked_const_iterator@V?$_Tree_val@U?$_Tree_simple_types@U?$pair@$$CBHPAVGraphicsBuffer@@@std@@@std@@@std@@U_Iterator_base12@2@@std@@QAEAAV01@ABV01@@Z 00438780 f i CommonPathfindingLib:GraphicsBufferManager.obj
 0002:000187f0       ??4?$_Tree_unchecked_const_iterator@V?$_Tree_val@U?$_Tree_simple_types@U?$pair@$$CBV?$basic_string@DU?$char_traits@D@std@@V?$allocator@D@2@@std@@H@std@@@std@@@std@@U_Iterator_base12@2@@std@@QAEAAV01@$$QAV01@@Z 004387f0 f i CommonPathfindingLib:GraphicsBufferManager.obj
 0002:00018860       ??4?$_Tree_unchecked_const_iterator@V?$_Tree_val@U?$_Tree_simple_types@U?$pair@$$CBV?$basic_string@DU?$char_traits@D@std@@V?$allocator@D@2@@std@@H@std@@@std@@@std@@U_Iterator_base12@2@@std@@QAEAAV01@ABV01@@Z 00438860 f i CommonPathfindingLib:GraphicsBufferManager.obj
 0002:000188d0       ??4_Iterator_base12@std@@QAEAAU01@ABU01@@Z 004388d0 f i CommonPathfindingLib:GraphicsBufferManager.obj
 0002:00018a00       ??8?$_Tree_const_iterator@V?$_Tree_val@U?$_Tree_simple_types@U?$pair@$$CBHPAVGraphicsBuffer@@@std@@@std@@@std@@@std@@QBE_NABV01@@Z 00438a00 f i CommonPathfindingLib:GraphicsBufferManager.obj
 0002:00018af0       ??8?$_Tree_const_iterator@V?$_Tree_val@U?$_Tree_simple_types@U?$pair@$$CBV?$basic_string@DU?$char_traits@D@std@@V?$allocator@D@2@@std@@H@std@@@std@@@std@@@std@@QBE_NABV01@@Z 00438af0 f i CommonPathfindingLib:GraphicsBufferManager.obj
 0002:00018be0       ??9?$_Tree_const_iterator@V?$_Tree_val@U?$_Tree_simple_types@U?$pair@$$CBHPAVGraphicsBuffer@@@std@@@std@@@std@@@std@@QBE_NABV01@@Z 00438be0 f i CommonPathfindingLib:GraphicsBufferManager.obj
 0002:00018c70       ??9?$_Tree_const_iterator@V?$_Tree_val@U?$_Tree_simple_types@U?$pair@$$CBV?$basic_string@DU?$char_traits@D@std@@V?$allocator@D@2@@std@@H@std@@@std@@@std@@@std@@QBE_NABV01@@Z 00438c70 f i CommonPathfindingLib:GraphicsBufferManager.obj
 0002:00018d00       ??A?$map@HPAVGraphicsBuffer@@U?$less@H@std@@V?$allocator@U?$pair@$$CBHPAVGraphicsBuffer@@@std@@@3@@std@@QAEAAPAVGraphicsBuffer@@ABH@Z 00438d00 f i CommonPathfindingLib:GraphicsBufferManager.obj
 0002:00018df0       ??A?$map@V?$basic_string@DU?$char_traits@D@std@@V?$allocator@D@2@@std@@HU?$less@V?$basic_string@DU?$char_traits@D@std@@V?$allocator@D@2@@std@@@2@V?$allocator@U?$pair@$$CBV?$basic_string@DU?$char_traits@D@std@@V?$allocator@D@2@@std@@H@std@@@2@@std@@QAEAAHABV?$basic_string@DU?$char_traits@D@std@@V?$allocator@D@2@@1@@Z 00438df0 f i CommonPathfindingLib:GraphicsBufferManager.obj
 0002:00018ee0       ??C?$_Tree_iterator@V?$_Tree_val@U?$_Tree_simple_types@U?$pair@$$CBHPAVGraphicsBuffer@@@std@@@std@@@std@@@std@@QBEPAU?$pair@$$CBHPAVGraphicsBuffer@@@1@XZ 00438ee0 f i CommonPathfindingLib:GraphicsBufferManager.obj
 0002:00018f40       ??C?$_Tree_iterator@V?$_Tree_val@U?$_Tree_simple_types@U?$pair@$$CBV?$basic_string@DU?$char_traits@D@std@@V?$allocator@D@2@@std@@H@std@@@std@@@std@@@std@@QBEPAU?$pair@$$CBV?$basic_string@DU?$char_traits@D@std@@V?$allocator@D@2@@std@@H@1@XZ 00438f40 f i CommonPathfindingLib:GraphicsBufferManager.obj
 0002:00018fa0       ??D?$_Tree_const_iterator@V?$_Tree_val@U?$_Tree_simple_types@U?$pair@$$CBHPAVGraphicsBuffer@@@std@@@std@@@std@@@std@@QBEABU?$pair@$$CBHPAVGraphicsBuffer@@@1@XZ 00438fa0 f i CommonPathfindingLib:GraphicsBufferManager.obj
 0002:00019070       ??D?$_Tree_const_iterator@V?$_Tree_val@U?$_Tree_simple_types@U?$pair@$$CBV?$basic_string@DU?$char_traits@D@std@@V?$allocator@D@2@@std@@H@std@@@std@@@std@@@std@@QBEABU?$pair@$$CBV?$basic_string@DU?$char_traits@D@std@@V?$allocator@D@2@@std@@H@1@XZ 00439070 f i CommonPathfindingLib:GraphicsBufferManager.obj
 0002:00019140       ??D?$_Tree_iterator@V?$_Tree_val@U?$_Tree_simple_types@U?$pair@$$CBHPAVGraphicsBuffer@@@std@@@std@@@std@@@std@@QBEAAU?$pair@$$CBHPAVGraphicsBuffer@@@1@XZ 00439140 f i CommonPathfindingLib:GraphicsBufferManager.obj
 0002:00019190       ??D?$_Tree_iterator@V?$_Tree_val@U?$_Tree_simple_types@U?$pair@$$CBV?$basic_string@DU?$char_traits@D@std@@V?$allocator@D@2@@std@@H@std@@@std@@@std@@@std@@QBEAAU?$pair@$$CBV?$basic_string@DU?$char_traits@D@std@@V?$allocator@D@2@@std@@H@1@XZ 00439190 f i CommonPathfindingLib:GraphicsBufferManager.obj
 0002:000191e0       ??E?$_Tree_const_iterator@V?$_Tree_val@U?$_Tree_simple_types@U?$pair@$$CBHPAVGraphicsBuffer@@@std@@@std@@@std@@@std@@QAE?AV01@H@Z 004391e0 f i CommonPathfindingLib:GraphicsBufferManager.obj
 0002:00019300       ??E?$_Tree_const_iterator@V?$_Tree_val@U?$_Tree_simple_types@U?$pair@$$CBHPAVGraphicsBuffer@@@std@@@std@@@std@@@std@@QAEAAV01@XZ 00439300 f i CommonPathfindingLib:GraphicsBufferManager.obj
 0002:000193d0       ??E?$_Tree_const_iterator@V?$_Tree_val@U?$_Tree_simple_types@U?$pair@$$CBV?$basic_string@DU?$char_traits@D@std@@V?$allocator@D@2@@std@@H@std@@@std@@@std@@@std@@QAE?AV01@H@Z 004393d0 f i CommonPathfindingLib:GraphicsBufferManager.obj
 0002:000194f0       ??E?$_Tree_const_iterator@V?$_Tree_val@U?$_Tree_simple_types@U?$pair@$$CBV?$basic_string@DU?$char_traits@D@std@@V?$allocator@D@2@@std@@H@std@@@std@@@std@@@std@@QAEAAV01@XZ 004394f0 f i CommonPathfindingLib:GraphicsBufferManager.obj
 0002:000195c0       ??E?$_Tree_iterator@V?$_Tree_val@U?$_Tree_simple_types@U?$pair@$$CBHPAVGraphicsBuffer@@@std@@@std@@@std@@@std@@QAEAAV01@XZ 004395c0 f i CommonPathfindingLib:GraphicsBufferManager.obj
 0002:00019620       ??E?$_Tree_iterator@V?$_Tree_val@U?$_Tree_simple_types@U?$pair@$$CBV?$basic_string@DU?$char_traits@D@std@@V?$allocator@D@2@@std@@H@std@@@std@@@std@@@std@@QAEAAV01@XZ 00439620 f i CommonPathfindingLib:GraphicsBufferManager.obj
 0002:00019680       ??E?$_Tree_unchecked_const_iterator@V?$_Tree_val@U?$_Tree_simple_types@U?$pair@$$CBHPAVGraphicsBuffer@@@std@@@std@@@std@@U_Iterator_base12@2@@std@@QAEAAV01@XZ 00439680 f i CommonPathfindingLib:GraphicsBufferManager.obj
 0002:00019760       ??E?$_Tree_unchecked_const_iterator@V?$_Tree_val@U?$_Tree_simple_types@U?$pair@$$CBV?$basic_string@DU?$char_traits@D@std@@V?$allocator@D@2@@std@@H@std@@@std@@@std@@U_Iterator_base12@2@@std@@QAEAAV01@XZ 00439760 f i CommonPathfindingLib:GraphicsBufferManager.obj
 0002:00019840       ??F?$_Tree_const_iterator@V?$_Tree_val@U?$_Tree_simple_types@U?$pair@$$CBHPAVGraphicsBuffer@@@std@@@std@@@std@@@std@@QAEAAV01@XZ 00439840 f i CommonPathfindingLib:GraphicsBufferManager.obj
 0002:00019970       ??F?$_Tree_const_iterator@V?$_Tree_val@U?$_Tree_simple_types@U?$pair@$$CBV?$basic_string@DU?$char_traits@D@std@@V?$allocator@D@2@@std@@H@std@@@std@@@std@@@std@@QAEAAV01@XZ 00439970 f i CommonPathfindingLib:GraphicsBufferManager.obj
 0002:00019aa0       ??F?$_Tree_iterator@V?$_Tree_val@U?$_Tree_simple_types@U?$pair@$$CBHPAVGraphicsBuffer@@@std@@@std@@@std@@@std@@QAEAAV01@XZ 00439aa0 f i CommonPathfindingLib:GraphicsBufferManager.obj
 0002:00019b00       ??F?$_Tree_iterator@V?$_Tree_val@U?$_Tree_simple_types@U?$pair@$$CBV?$basic_string@DU?$char_traits@D@std@@V?$allocator@D@2@@std@@H@std@@@std@@@std@@@std@@QAEAAV01@XZ 00439b00 f i CommonPathfindingLib:GraphicsBufferManager.obj
 0002:00019b60       ??F?$_Tree_unchecked_const_iterator@V?$_Tree_val@U?$_Tree_simple_types@U?$pair@$$CBHPAVGraphicsBuffer@@@std@@@std@@@std@@U_Iterator_base12@2@@std@@QAEAAV01@XZ 00439b60 f i CommonPathfindingLib:GraphicsBufferManager.obj
 0002:00019c60       ??F?$_Tree_unchecked_const_iterator@V?$_Tree_val@U?$_Tree_simple_types@U?$pair@$$CBV?$basic_string@DU?$char_traits@D@std@@V?$allocator@D@2@@std@@H@std@@@std@@@std@@U_Iterator_base12@2@@std@@QAEAAV01@XZ 00439c60 f i CommonPathfindingLib:GraphicsBufferManager.obj
 0002:00019d60       ??R?$less@H@std@@QBE_NABH0@Z 00439d60 f i CommonPathfindingLib:GraphicsBufferManager.obj
 0002:00019dd0       ??R?$less@V?$basic_string@DU?$char_traits@D@std@@V?$allocator@D@2@@std@@@std@@QBE_NABV?$basic_string@DU?$char_traits@D@std@@V?$allocator@D@2@@1@0@Z 00439dd0 f i CommonPathfindingLib:GraphicsBufferManager.obj
 0002:00019e30       ??_G?$pair@$$CBV?$basic_string@DU?$char_traits@D@std@@V?$allocator@D@2@@std@@H@std@@QAEPAXI@Z 00439e30 f i CommonPathfindingLib:GraphicsBufferManager.obj
 0002:00019ea0       ??_GGraphicsBuffer@@QAEPAXI@Z 00439ea0 f i CommonPathfindingLib:GraphicsBufferManager.obj
 0002:00019f30       ?_Alloc_proxy@?$_Tree_comp_alloc@V?$_Tmap_traits@HPAVGraphicsBuffer@@U?$less@H@std@@V?$allocator@U?$pair@$$CBHPAVGraphicsBuffer@@@std@@@3@$0A@@std@@@std@@QAEXXZ 00439f30 f i CommonPathfindingLib:GraphicsBufferManager.obj
 0002:0001a050       ?_Alloc_proxy@?$_Tree_comp_alloc@V?$_Tmap_traits@V?$basic_string@DU?$char_traits@D@std@@V?$allocator@D@2@@std@@HU?$less@V?$basic_string@DU?$char_traits@D@std@@V?$allocator@D@2@@std@@@2@V?$allocator@U?$pair@$$CBV?$basic_string@DU?$char_traits@D@std@@V?$allocator@D@2@@std@@H@std@@@2@$0A@@std@@@std@@QAEXXZ 0043a050 f i CommonPathfindingLib:GraphicsBufferManager.obj
 0002:0001a170       ?_Buyheadnode@?$_Tree_comp_alloc@V?$_Tmap_traits@HPAVGraphicsBuffer@@U?$less@H@std@@V?$allocator@U?$pair@$$CBHPAVGraphicsBuffer@@@std@@@3@$0A@@std@@@std@@QAEPAU?$_Tree_node@U?$pair@$$CBHPAVGraphicsBuffer@@@std@@PAX@2@XZ 0043a170 f i CommonPathfindingLib:GraphicsBufferManager.obj
 0002:0001a320       ?_Buyheadnode@?$_Tree_comp_alloc@V?$_Tmap_traits@V?$basic_string@DU?$char_traits@D@std@@V?$allocator@D@2@@std@@HU?$less@V?$basic_string@DU?$char_traits@D@std@@V?$allocator@D@2@@std@@@2@V?$allocator@U?$pair@$$CBV?$basic_string@DU?$char_traits@D@std@@V?$allocator@D@2@@std@@H@std@@@2@$0A@@std@@@std@@QAEPAU?$_Tree_node@U?$pair@$$CBV?$basic_string@DU?$char_traits@D@std@@V?$allocator@D@2@@std@@H@std@@PAX@2@XZ 0043a320 f i CommonPathfindingLib:GraphicsBufferManager.obj
 0002:0001a4d0       ?_Buynode0@?$_Tree_comp_alloc@V?$_Tmap_traits@HPAVGraphicsBuffer@@U?$less@H@std@@V?$allocator@U?$pair@$$CBHPAVGraphicsBuffer@@@std@@@3@$0A@@std@@@std@@QAEPAU?$_Tree_node@U?$pair@$$CBHPAVGraphicsBuffer@@@std@@PAX@2@XZ 0043a4d0 f i CommonPathfindingLib:GraphicsBufferManager.obj
 0002:0001a640       ?_Buynode0@?$_Tree_comp_alloc@V?$_Tmap_traits@V?$basic_string@DU?$char_traits@D@std@@V?$allocator@D@2@@std@@HU?$less@V?$basic_string@DU?$char_traits@D@std@@V?$allocator@D@2@@std@@@2@V?$allocator@U?$pair@$$CBV?$basic_string@DU?$char_traits@D@std@@V?$allocator@D@2@@std@@H@std@@@2@$0A@@std@@@std@@QAEPAU?$_Tree_node@U?$pair@$$CBV?$basic_string@DU?$char_traits@D@std@@V?$allocator@D@2@@std@@H@std@@PAX@2@XZ 0043a640 f i CommonPathfindingLib:GraphicsBufferManager.obj
 0002:0001a7b0       ?_Clrcont@_Iterator_base12@std@@QAEXXZ 0043a7b0 f i CommonPathfindingLib:GraphicsBufferManager.obj
 0002:0001a7f0       ?_Compare@?$_Tree@V?$_Tmap_traits@HPAVGraphicsBuffer@@U?$less@H@std@@V?$allocator@U?$pair@$$CBHPAVGraphicsBuffer@@@std@@@3@$0A@@std@@@std@@IBE_NABH0@Z 0043a7f0 f i CommonPathfindingLib:GraphicsBufferManager.obj
 0002:0001a870       ?_Compare@?$_Tree@V?$_Tmap_traits@V?$basic_string@DU?$char_traits@D@std@@V?$allocator@D@2@@std@@HU?$less@V?$basic_string@DU?$char_traits@D@std@@V?$allocator@D@2@@std@@@2@V?$allocator@U?$pair@$$CBV?$basic_string@DU?$char_traits@D@std@@V?$allocator@D@2@@std@@H@std@@@2@$0A@@std@@@std@@IBE_NABV?$basic_string@DU?$char_traits@D@std@@V?$allocator@D@2@@2@0@Z 0043a870 f i CommonPathfindingLib:GraphicsBufferManager.obj
 0002:0001a8f0       ?_Construct@?$_Tree_comp_alloc@V?$_Tmap_traits@HPAVGraphicsBuffer@@U?$less@H@std@@V?$allocator@U?$pair@$$CBHPAVGraphicsBuffer@@@std@@@3@$0A@@std@@@std@@QAEXXZ 0043a8f0 f i CommonPathfindingLib:GraphicsBufferManager.obj
 0002:0001a9e0       ?_Construct@?$_Tree_comp_alloc@V?$_Tmap_traits@V?$basic_string@DU?$char_traits@D@std@@V?$allocator@D@2@@std@@HU?$less@V?$basic_string@DU?$char_traits@D@std@@V?$allocator@D@2@@std@@@2@V?$allocator@U?$pair@$$CBV?$basic_string@DU?$char_traits@D@std@@V?$allocator@D@2@@std@@H@std@@@2@$0A@@std@@@std@@QAEXXZ 0043a9e0 f i CommonPathfindingLib:GraphicsBufferManager.obj
 0002:0001aad0       ?_Construct_lv_contents@?$basic_string@DU?$char_traits@D@std@@V?$allocator@D@2@@std@@QAEXABV12@@Z 0043aad0 f i CommonPathfindingLib:GraphicsBufferManager.obj
 0002:0001aca0       ?_Destroy_if_not_nil@?$_Tree@V?$_Tmap_traits@HPAVGraphicsBuffer@@U?$less@H@std@@V?$allocator@U?$pair@$$CBHPAVGraphicsBuffer@@@std@@@3@$0A@@std@@@std@@IAEXPAU?$_Tree_node@U?$pair@$$CBHPAVGraphicsBuffer@@@std@@PAX@2@@Z 0043aca0 f i CommonPathfindingLib:GraphicsBufferManager.obj
 0002:0001ad30       ?_Destroy_if_not_nil@?$_Tree@V?$_Tmap_traits@V?$basic_string@DU?$char_traits@D@std@@V?$allocator@D@2@@std@@HU?$less@V?$basic_string@DU?$char_traits@D@std@@V?$allocator@D@2@@std@@@2@V?$allocator@U?$pair@$$CBV?$basic_string@DU?$char_traits@D@std@@V?$allocator@D@2@@std@@H@std@@@2@$0A@@std@@@std@@IAEXPAU?$_Tree_node@U?$pair@$$CBV?$basic_string@DU?$char_traits@D@std@@V?$allocator@D@2@@std@@H@std@@PAX@2@@Z 0043ad30 f i CommonPathfindingLib:GraphicsBufferManager.obj
 0002:0001adc0       ?_Erase@?$_Tree@V?$_Tmap_traits@HPAVGraphicsBuffer@@U?$less@H@std@@V?$allocator@U?$pair@$$CBHPAVGraphicsBuffer@@@std@@@3@$0A@@std@@@std@@IAEXPAU?$_Tree_node@U?$pair@$$CBHPAVGraphicsBuffer@@@std@@PAX@2@@Z 0043adc0 f i CommonPathfindingLib:GraphicsBufferManager.obj
 0002:0001ae90       ?_Erase@?$_Tree@V?$_Tmap_traits@V?$basic_string@DU?$char_traits@D@std@@V?$allocator@D@2@@std@@HU?$less@V?$basic_string@DU?$char_traits@D@std@@V?$allocator@D@2@@std@@@2@V?$allocator@U?$pair@$$CBV?$basic_string@DU?$char_traits@D@std@@V?$allocator@D@2@@std@@H@std@@@2@$0A@@std@@@std@@IAEXPAU?$_Tree_node@U?$pair@$$CBV?$basic_string@DU?$char_traits@D@std@@V?$allocator@D@2@@std@@H@std@@PAX@2@@Z 0043ae90 f i CommonPathfindingLib:GraphicsBufferManager.obj
 0002:0001af60       ?_Free_proxy@?$_Tree_comp_alloc@V?$_Tmap_traits@HPAVGraphicsBuffer@@U?$less@H@std@@V?$allocator@U?$pair@$$CBHPAVGraphicsBuffer@@@std@@@3@$0A@@std@@@std@@QAEXXZ 0043af60 f i CommonPathfindingLib:GraphicsBufferManager.obj
 0002:0001b060       ?_Free_proxy@?$_Tree_comp_alloc@V?$_Tmap_traits@V?$basic_string@DU?$char_traits@D@std@@V?$allocator@D@2@@std@@HU?$less@V?$basic_string@DU?$char_traits@D@std@@V?$allocator@D@2@@std@@@2@V?$allocator@U?$pair@$$CBV?$basic_string@DU?$char_traits@D@std@@V?$allocator@D@2@@std@@H@std@@@2@$0A@@std@@@std@@QAEXXZ 0043b060 f i CommonPathfindingLib:GraphicsBufferManager.obj
 0002:0001b160       ?_Freeheadnode@?$_Tree_comp_alloc@V?$_Tmap_traits@HPAVGraphicsBuffer@@U?$less@H@std@@V?$allocator@U?$pair@$$CBHPAVGraphicsBuffer@@@std@@@3@$0A@@std@@@std@@QAEXPAU?$_Tree_node@U?$pair@$$CBHPAVGraphicsBuffer@@@std@@PAX@2@@Z 0043b160 f i CommonPathfindingLib:GraphicsBufferManager.obj
 0002:0001b230       ?_Freeheadnode@?$_Tree_comp_alloc@V?$_Tmap_traits@V?$basic_string@DU?$char_traits@D@std@@V?$allocator@D@2@@std@@HU?$less@V?$basic_string@DU?$char_traits@D@std@@V?$allocator@D@2@@std@@@2@V?$allocator@U?$pair@$$CBV?$basic_string@DU?$char_traits@D@std@@V?$allocator@D@2@@std@@H@std@@@2@$0A@@std@@@std@@QAEXPAU?$_Tree_node@U?$pair@$$CBV?$basic_string@DU?$char_traits@D@std@@V?$allocator@D@2@@std@@H@std@@PAX@2@@Z 0043b230 f i CommonPathfindingLib:GraphicsBufferManager.obj
 0002:0001b300       ?_Freenode0@?$_Tree_comp_alloc@V?$_Tmap_traits@HPAVGraphicsBuffer@@U?$less@H@std@@V?$allocator@U?$pair@$$CBHPAVGraphicsBuffer@@@std@@@3@$0A@@std@@@std@@QAEXPAU?$_Tree_node@U?$pair@$$CBHPAVGraphicsBuffer@@@std@@PAX@2@@Z 0043b300 f i CommonPathfindingLib:GraphicsBufferManager.obj
 0002:0001b3d0       ?_Freenode0@?$_Tree_comp_alloc@V?$_Tmap_traits@V?$basic_string@DU?$char_traits@D@std@@V?$allocator@D@2@@std@@HU?$less@V?$basic_string@DU?$char_traits@D@std@@V?$allocator@D@2@@std@@@2@V?$allocator@U?$pair@$$CBV?$basic_string@DU?$char_traits@D@std@@V?$allocator@D@2@@std@@H@std@@@2@$0A@@std@@@std@@QAEXPAU?$_Tree_node@U?$pair@$$CBV?$basic_string@DU?$char_traits@D@std@@V?$allocator@D@2@@std@@H@std@@PAX@2@@Z 0043b3d0 f i CommonPathfindingLib:GraphicsBufferManager.obj
 0002:0001b4a0       ?_Get_data@?$_Tree_comp_alloc@V?$_Tmap_traits@HPAVGraphicsBuffer@@U?$less@H@std@@V?$allocator@U?$pair@$$CBHPAVGraphicsBuffer@@@std@@@3@$0A@@std@@@std@@QAEAAV?$_Tree_val@U?$_Tree_simple_types@U?$pair@$$CBHPAVGraphicsBuffer@@@std@@@std@@@2@XZ 0043b4a0 f i CommonPathfindingLib:GraphicsBufferManager.obj
 0002:0001b500       ?_Get_data@?$_Tree_comp_alloc@V?$_Tmap_traits@HPAVGraphicsBuffer@@U?$less@H@std@@V?$allocator@U?$pair@$$CBHPAVGraphicsBuffer@@@std@@@3@$0A@@std@@@std@@QBEABV?$_Tree_val@U?$_Tree_simple_types@U?$pair@$$CBHPAVGraphicsBuffer@@@std@@@std@@@2@XZ 0043b500 f i CommonPathfindingLib:GraphicsBufferManager.obj
 0002:0001b560       ?_Get_data@?$_Tree_comp_alloc@V?$_Tmap_traits@V?$basic_string@DU?$char_traits@D@std@@V?$allocator@D@2@@std@@HU?$less@V?$basic_string@DU?$char_traits@D@std@@V?$allocator@D@2@@std@@@2@V?$allocator@U?$pair@$$CBV?$basic_string@DU?$char_traits@D@std@@V?$allocator@D@2@@std@@H@std@@@2@$0A@@std@@@std@@QAEAAV?$_Tree_val@U?$_Tree_simple_types@U?$pair@$$CBV?$basic_string@DU?$char_traits@D@std@@V?$allocator@D@2@@std@@H@std@@@std@@@2@XZ 0043b560 f i CommonPathfindingLib:GraphicsBufferManager.obj
 0002:0001b5c0       ?_Get_data@?$_Tree_comp_alloc@V?$_Tmap_traits@V?$basic_string@DU?$char_traits@D@std@@V?$allocator@D@2@@std@@HU?$less@V?$basic_string@DU?$char_traits@D@std@@V?$allocator@D@2@@std@@@2@V?$allocator@U?$pair@$$CBV?$basic_string@DU?$char_traits@D@std@@V?$allocator@D@2@@std@@H@std@@@2@$0A@@std@@@std@@QBEABV?$_Tree_val@U?$_Tree_simple_types@U?$pair@$$CBV?$basic_string@DU?$char_traits@D@std@@V?$allocator@D@2@@std@@H@std@@@std@@@2@XZ 0043b5c0 f i CommonPathfindingLib:GraphicsBufferManager.obj
 0002:0001b620       ?_Get_first@?$_Compressed_pair@U?$less@H@std@@V?$_Compressed_pair@V?$allocator@U?$_Tree_node@U?$pair@$$CBHPAVGraphicsBuffer@@@std@@PAX@std@@@std@@V?$_Tree_val@U?$_Tree_simple_types@U?$pair@$$CBHPAVGraphicsBuffer@@@std@@@std@@@2@$00@2@$00@std@@QAEAAU?$less@H@2@XZ 0043b620 f i CommonPathfindingLib:GraphicsBufferManager.obj
 0002:0001b660       ?_Get_first@?$_Compressed_pair@U?$less@H@std@@V?$_Compressed_pair@V?$allocator@U?$_Tree_node@U?$pair@$$CBHPAVGraphicsBuffer@@@std@@PAX@std@@@std@@V?$_Tree_val@U?$_Tree_simple_types@U?$pair@$$CBHPAVGraphicsBuffer@@@std@@@std@@@2@$00@2@$00@std@@QBEABU?$less@H@2@XZ 0043b660 f i CommonPathfindingLib:GraphicsBufferManager.obj
 0002:0001b6a0       ?_Get_first@?$_Compressed_pair@U?$less@V?$basic_string@DU?$char_traits@D@std@@V?$allocator@D@2@@std@@@std@@V?$_Compressed_pair@V?$allocator@U?$_Tree_node@U?$pair@$$CBV?$basic_string@DU?$char_traits@D@std@@V?$allocator@D@2@@std@@H@std@@PAX@std@@@std@@V?$_Tree_val@U?$_Tree_simple_types@U?$pair@$$CBV?$basic_string@DU?$char_traits@D@std@@V?$allocator@D@2@@std@@H@std@@@std@@@2@$00@2@$00@std@@QAEAAU?$less@V?$basic_string@DU?$char_traits@D@std@@V?$allocator@D@2@@std@@@2@XZ 0043b6a0 f i CommonPathfindingLib:GraphicsBufferManager.obj
 0002:0001b6e0       ?_Get_first@?$_Compressed_pair@U?$less@V?$basic_string@DU?$char_traits@D@std@@V?$allocator@D@2@@std@@@std@@V?$_Compressed_pair@V?$allocator@U?$_Tree_node@U?$pair@$$CBV?$basic_string@DU?$char_traits@D@std@@V?$allocator@D@2@@std@@H@std@@PAX@std@@@std@@V?$_Tree_val@U?$_Tree_simple_types@U?$pair@$$CBV?$basic_string@DU?$char_traits@D@std@@V?$allocator@D@2@@std@@H@std@@@std@@@2@$00@2@$00@std@@QBEABU?$less@V?$basic_string@DU?$char_traits@D@std@@V?$allocator@D@2@@std@@@2@XZ 0043b6e0 f i CommonPathfindingLib:GraphicsBufferManager.obj
 0002:0001b720       ?_Get_first@?$_Compressed_pair@V?$allocator@U?$_Tree_node@U?$pair@$$CBHPAVGraphicsBuffer@@@std@@PAX@std@@@std@@V?$_Tree_val@U?$_Tree_simple_types@U?$pair@$$CBHPAVGraphicsBuffer@@@std@@@std@@@2@$00@std@@QAEAAV?$allocator@U?$_Tree_node@U?$pair@$$CBHPAVGraphicsBuffer@@@std@@PAX@std@@@2@XZ 0043b720 f i CommonPathfindingLib:GraphicsBufferManager.obj
 0002:0001b760       ?_Get_first@?$_Compressed_pair@V?$allocator@U?$_Tree_node@U?$pair@$$CBHPAVGraphicsBuffer@@@std@@PAX@std@@@std@@V?$_Tree_val@U?$_Tree_simple_types@U?$pair@$$CBHPAVGraphicsBuffer@@@std@@@std@@@2@$00@std@@QBEABV?$allocator@U?$_Tree_node@U?$pair@$$CBHPAVGraphicsBuffer@@@std@@PAX@std@@@2@XZ 0043b760 f i CommonPathfindingLib:GraphicsBufferManager.obj
 0002:0001b7a0       ?_Get_first@?$_Compressed_pair@V?$allocator@U?$_Tree_node@U?$pair@$$CBV?$basic_string@DU?$char_traits@D@std@@V?$allocator@D@2@@std@@H@std@@PAX@std@@@std@@V?$_Tree_val@U?$_Tree_simple_types@U?$pair@$$CBV?$basic_string@DU?$char_traits@D@std@@V?$allocator@D@2@@std@@H@std@@@std@@@2@$00@std@@QAEAAV?$allocator@U?$_Tree_node@U?$pair@$$CBV?$basic_string@DU?$char_traits@D@std@@V?$allocator@D@2@@std@@H@std@@PAX@std@@@2@XZ 0043b7a0 f i CommonPathfindingLib:GraphicsBufferManager.obj
 0002:0001b7e0       ?_Get_first@?$_Compressed_pair@V?$allocator@U?$_Tree_node@U?$pair@$$CBV?$basic_string@DU?$char_traits@D@std@@V?$allocator@D@2@@std@@H@std@@PAX@std@@@std@@V?$_Tree_val@U?$_Tree_simple_types@U?$pair@$$CBV?$basic_string@DU?$char_traits@D@std@@V?$allocator@D@2@@std@@H@std@@@std@@@2@$00@std@@QBEABV?$allocator@U?$_Tree_node@U?$pair@$$CBV?$basic_string@DU?$char_traits@D@std@@V?$allocator@D@2@@std@@H@std@@PAX@std@@@2@XZ 0043b7e0 f i CommonPathfindingLib:GraphicsBufferManager.obj
 0002:0001b820       ?_Get_second@?$_Compressed_pair@U?$less@H@std@@V?$_Compressed_pair@V?$allocator@U?$_Tree_node@U?$pair@$$CBHPAVGraphicsBuffer@@@std@@PAX@std@@@std@@V?$_Tree_val@U?$_Tree_simple_types@U?$pair@$$CBHPAVGraphicsBuffer@@@std@@@std@@@2@$00@2@$00@std@@QAEAAV?$_Compressed_pair@V?$allocator@U?$_Tree_node@U?$pair@$$CBHPAVGraphicsBuffer@@@std@@PAX@std@@@std@@V?$_Tree_val@U?$_Tree_simple_types@U?$pair@$$CBHPAVGraphicsBuffer@@@std@@@std@@@2@$00@2@XZ 0043b820 f i CommonPathfindingLib:GraphicsBufferManager.obj
 0002:0001b860       ?_Get_second@?$_Compressed_pair@U?$less@H@std@@V?$_Compressed_pair@V?$allocator@U?$_Tree_node@U?$pair@$$CBHPAVGraphicsBuffer@@@std@@PAX@std@@@std@@V?$_Tree_val@U?$_Tree_simple_types@U?$pair@$$CBHPAVGraphicsBuffer@@@std@@@std@@@2@$00@2@$00@std@@QBEABV?$_Compressed_pair@V?$allocator@U?$_Tree_node@U?$pair@$$CBHPAVGraphicsBuffer@@@std@@PAX@std@@@std@@V?$_Tree_val@U?$_Tree_simple_types@U?$pair@$$CBHPAVGraphicsBuffer@@@std@@@std@@@2@$00@2@XZ 0043b860 f i CommonPathfindingLib:GraphicsBufferManager.obj
 0002:0001b8a0       ?_Get_second@?$_Compressed_pair@U?$less@V?$basic_string@DU?$char_traits@D@std@@V?$allocator@D@2@@std@@@std@@V?$_Compressed_pair@V?$allocator@U?$_Tree_node@U?$pair@$$CBV?$basic_string@DU?$char_traits@D@std@@V?$allocator@D@2@@std@@H@std@@PAX@std@@@std@@V?$_Tree_val@U?$_Tree_simple_types@U?$pair@$$CBV?$basic_string@DU?$char_traits@D@std@@V?$allocator@D@2@@std@@H@std@@@std@@@2@$00@2@$00@std@@QAEAAV?$_Compressed_pair@V?$allocator@U?$_Tree_node@U?$pair@$$CBV?$basic_string@DU?$char_traits@D@std@@V?$allocator@D@2@@std@@H@std@@PAX@std@@@std@@V?$_Tree_val@U?$_Tree_simple_types@U?$pair@$$CBV?$basic_string@DU?$char_traits@D@std@@V?$allocator@D@2@@std@@H@std@@@std@@@2@$00@2@XZ 0043b8a0 f i CommonPathfindingLib:GraphicsBufferManager.obj
 0002:0001b8e0       ?_Get_second@?$_Compressed_pair@U?$less@V?$basic_string@DU?$char_traits@D@std@@V?$allocator@D@2@@std@@@std@@V?$_Compressed_pair@V?$allocator@U?$_Tree_node@U?$pair@$$CBV?$basic_string@DU?$char_traits@D@std@@V?$allocator@D@2@@std@@H@std@@PAX@std@@@std@@V?$_Tree_val@U?$_Tree_simple_types@U?$pair@$$CBV?$basic_string@DU?$char_traits@D@std@@V?$allocator@D@2@@std@@H@std@@@std@@@2@$00@2@$00@std@@QBEABV?$_Compressed_pair@V?$allocator@U?$_Tree_node@U?$pair@$$CBV?$basic_string@DU?$char_traits@D@std@@V?$allocator@D@2@@std@@H@std@@PAX@std@@@std@@V?$_Tree_val@U?$_Tree_simple_types@U?$pair@$$CBV?$basic_string@DU?$char_traits@D@std@@V?$allocator@D@2@@std@@H@std@@@std@@@2@$00@2@XZ 0043b8e0 f i CommonPathfindingLib:GraphicsBufferManager.obj
 0002:0001b920       ?_Get_second@?$_Compressed_pair@V?$allocator@U?$_Tree_node@U?$pair@$$CBHPAVGraphicsBuffer@@@std@@PAX@std@@@std@@V?$_Tree_val@U?$_Tree_simple_types@U?$pair@$$CBHPAVGraphicsBuffer@@@std@@@std@@@2@$00@std@@QAEAAV?$_Tree_val@U?$_Tree_simple_types@U?$pair@$$CBHPAVGraphicsBuffer@@@std@@@std@@@2@XZ 0043b920 f i CommonPathfindingLib:GraphicsBufferManager.obj
 0002:0001b960       ?_Get_second@?$_Compressed_pair@V?$allocator@U?$_Tree_node@U?$pair@$$CBHPAVGraphicsBuffer@@@std@@PAX@std@@@std@@V?$_Tree_val@U?$_Tree_simple_types@U?$pair@$$CBHPAVGraphicsBuffer@@@std@@@std@@@2@$00@std@@QBEABV?$_Tree_val@U?$_Tree_simple_types@U?$pair@$$CBHPAVGraphicsBuffer@@@std@@@std@@@2@XZ 0043b960 f i CommonPathfindingLib:GraphicsBufferManager.obj
 0002:0001b9a0       ?_Get_second@?$_Compressed_pair@V?$allocator@U?$_Tree_node@U?$pair@$$CBV?$basic_string@DU?$char_traits@D@std@@V?$allocator@D@2@@std@@H@std@@PAX@std@@@std@@V?$_Tree_val@U?$_Tree_simple_types@U?$pair@$$CBV?$basic_string@DU?$char_traits@D@std@@V?$allocator@D@2@@std@@H@std@@@std@@@2@$00@std@@QAEAAV?$_Tree_val@U?$_Tree_simple_types@U?$pair@$$CBV?$basic_string@DU?$char_traits@D@std@@V?$allocator@D@2@@std@@H@std@@@std@@@2@XZ 0043b9a0 f i CommonPathfindingLib:GraphicsBufferManager.obj
 0002:0001b9e0       ?_Get_second@?$_Compressed_pair@V?$allocator@U?$_Tree_node@U?$pair@$$CBV?$basic_string@DU?$char_traits@D@std@@V?$allocator@D@2@@std@@H@std@@PAX@std@@@std@@V?$_Tree_val@U?$_Tree_simple_types@U?$pair@$$CBV?$basic_string@DU?$char_traits@D@std@@V?$allocator@D@2@@std@@H@std@@@std@@@2@$00@std@@QBEABV?$_Tree_val@U?$_Tree_simple_types@U?$pair@$$CBV?$basic_string@DU?$char_traits@D@std@@V?$allocator@D@2@@std@@H@std@@@std@@@2@XZ 0043b9e0 f i CommonPathfindingLib:GraphicsBufferManager.obj
 0002:0001ba20       ?_Getal@?$_Tree_comp_alloc@V?$_Tmap_traits@HPAVGraphicsBuffer@@U?$less@H@std@@V?$allocator@U?$pair@$$CBHPAVGraphicsBuffer@@@std@@@3@$0A@@std@@@std@@QAEAAV?$allocator@U?$_Tree_node@U?$pair@$$CBHPAVGraphicsBuffer@@@std@@PAX@std@@@2@XZ 0043ba20 f i CommonPathfindingLib:GraphicsBufferManager.obj
 0002:0001ba80       ?_Getal@?$_Tree_comp_alloc@V?$_Tmap_traits@HPAVGraphicsBuffer@@U?$less@H@std@@V?$allocator@U?$pair@$$CBHPAVGraphicsBuffer@@@std@@@3@$0A@@std@@@std@@QBEABV?$allocator@U?$_Tree_node@U?$pair@$$CBHPAVGraphicsBuffer@@@std@@PAX@std@@@2@XZ 0043ba80 f i CommonPathfindingLib:GraphicsBufferManager.obj
 0002:0001bae0       ?_Getal@?$_Tree_comp_alloc@V?$_Tmap_traits@V?$basic_string@DU?$char_traits@D@std@@V?$allocator@D@2@@std@@HU?$less@V?$basic_string@DU?$char_traits@D@std@@V?$allocator@D@2@@std@@@2@V?$allocator@U?$pair@$$CBV?$basic_string@DU?$char_traits@D@std@@V?$allocator@D@2@@std@@H@std@@@2@$0A@@std@@@std@@QAEAAV?$allocator@U?$_Tree_node@U?$pair@$$CBV?$basic_string@DU?$char_traits@D@std@@V?$allocator@D@2@@std@@H@std@@PAX@std@@@2@XZ 0043bae0 f i CommonPathfindingLib:GraphicsBufferManager.obj
 0002:0001bb40       ?_Getal@?$_Tree_comp_alloc@V?$_Tmap_traits@V?$basic_string@DU?$char_traits@D@std@@V?$allocator@D@2@@std@@HU?$less@V?$basic_string@DU?$char_traits@D@std@@V?$allocator@D@2@@std@@@2@V?$allocator@U?$pair@$$CBV?$basic_string@DU?$char_traits@D@std@@V?$allocator@D@2@@std@@H@std@@@2@$0A@@std@@@std@@QBEABV?$allocator@U?$_Tree_node@U?$pair@$$CBV?$basic_string@DU?$char_traits@D@std@@V?$allocator@D@2@@std@@H@std@@PAX@std@@@2@XZ 0043bb40 f i CommonPathfindingLib:GraphicsBufferManager.obj
 0002:0001bba0       ?_Getcomp@?$_Tree_comp_alloc@V?$_Tmap_traits@HPAVGraphicsBuffer@@U?$less@H@std@@V?$allocator@U?$pair@$$CBHPAVGraphicsBuffer@@@std@@@3@$0A@@std@@@std@@QAEAAU?$less@H@2@XZ 0043bba0 f i CommonPathfindingLib:GraphicsBufferManager.obj
 0002:0001bbf0       ?_Getcomp@?$_Tree_comp_alloc@V?$_Tmap_traits@HPAVGraphicsBuffer@@U?$less@H@std@@V?$allocator@U?$pair@$$CBHPAVGraphicsBuffer@@@std@@@3@$0A@@std@@@std@@QBEABU?$less@H@2@XZ 0043bbf0 f i CommonPathfindingLib:GraphicsBufferManager.obj
 0002:0001bc40       ?_Getcomp@?$_Tree_comp_alloc@V?$_Tmap_traits@V?$basic_string@DU?$char_traits@D@std@@V?$allocator@D@2@@std@@HU?$less@V?$basic_string@DU?$char_traits@D@std@@V?$allocator@D@2@@std@@@2@V?$allocator@U?$pair@$$CBV?$basic_string@DU?$char_traits@D@std@@V?$allocator@D@2@@std@@H@std@@@2@$0A@@std@@@std@@QAEAAU?$less@V?$basic_string@DU?$char_traits@D@std@@V?$allocator@D@2@@std@@@2@XZ 0043bc40 f i CommonPathfindingLib:GraphicsBufferManager.obj
 0002:0001bc90       ?_Getcomp@?$_Tree_comp_alloc@V?$_Tmap_traits@V?$basic_string@DU?$char_traits@D@std@@V?$allocator@D@2@@std@@HU?$less@V?$basic_string@DU?$char_traits@D@std@@V?$allocator@D@2@@std@@@2@V?$allocator@U?$pair@$$CBV?$basic_string@DU?$char_traits@D@std@@V?$allocator@D@2@@std@@H@std@@@2@$0A@@std@@@std@@QBEABU?$less@V?$basic_string@DU?$char_traits@D@std@@V?$allocator@D@2@@std@@@2@XZ 0043bc90 f i CommonPathfindingLib:GraphicsBufferManager.obj
 0002:0001bce0       ?_Getpfirst@?$_Tree_comp_alloc@V?$_Tmap_traits@HPAVGraphicsBuffer@@U?$less@H@std@@V?$allocator@U?$pair@$$CBHPAVGraphicsBuffer@@@std@@@3@$0A@@std@@@std@@QBEPAPAU_Iterator_base12@2@XZ 0043bce0 f i CommonPathfindingLib:GraphicsBufferManager.obj
 0002:0001bd40       ?_Getpfirst@?$_Tree_comp_alloc@V?$_Tmap_traits@V?$basic_string@DU?$char_traits@D@std@@V?$allocator@D@2@@std@@HU?$less@V?$basic_string@DU?$char_traits@D@std@@V?$allocator@D@2@@std@@@2@V?$allocator@U?$pair@$$CBV?$basic_string@DU?$char_traits@D@std@@V?$allocator@D@2@@std@@H@std@@@2@$0A@@std@@@std@@QBEPAPAU_Iterator_base12@2@XZ 0043bd40 f i CommonPathfindingLib:GraphicsBufferManager.obj
 0002:0001bda0       ?_Getpfirst@_Container_base12@std@@QBEPAPAU_Iterator_base12@2@XZ 0043bda0 f i CommonPathfindingLib:GraphicsBufferManager.obj
 0002:0001be10       ?_Getpnext@_Iterator_base12@std@@QAEPAPAU12@XZ 0043be10 f i CommonPathfindingLib:GraphicsBufferManager.obj
 0002:0001be50       ?_Key@?$_Tree@V?$_Tmap_traits@HPAVGraphicsBuffer@@U?$less@H@std@@V?$allocator@U?$pair@$$CBHPAVGraphicsBuffer@@@std@@@3@$0A@@std@@@std@@IBEABHPAU?$_Tree_node@U?$pair@$$CBHPAVGraphicsBuffer@@@std@@PAX@2@@Z 0043be50 f i CommonPathfindingLib:GraphicsBufferManager.obj
 0002:0001beb0       ?_Key@?$_Tree@V?$_Tmap_traits@V?$basic_string@DU?$char_traits@D@std@@V?$allocator@D@2@@std@@HU?$less@V?$basic_string@DU?$char_traits@D@std@@V?$allocator@D@2@@std@@@2@V?$allocator@U?$pair@$$CBV?$basic_string@DU?$char_traits@D@std@@V?$allocator@D@2@@std@@H@std@@@2@$0A@@std@@@std@@IBEABV?$basic_string@DU?$char_traits@D@std@@V?$allocator@D@2@@2@PAU?$_Tree_node@U?$pair@$$CBV?$basic_string@DU?$char_traits@D@std@@V?$allocator@D@2@@std@@H@std@@PAX@2@@Z 0043beb0 f i CommonPathfindingLib:GraphicsBufferManager.obj
 0002:0001bf10       ?_Kfn@?$_Tree@V?$_Tmap_traits@HPAVGraphicsBuffer@@U?$less@H@std@@V?$allocator@U?$pair@$$CBHPAVGraphicsBuffer@@@std@@@3@$0A@@std@@@std@@IBEABHABU?$pair@$$CBHPAVGraphicsBuffer@@@2@@Z 0043bf10 f i CommonPathfindingLib:GraphicsBufferManager.obj
 0002:0001bf70       ?_Kfn@?$_Tree@V?$_Tmap_traits@V?$basic_string@DU?$char_traits@D@std@@V?$allocator@D@2@@std@@HU?$less@V?$basic_string@DU?$char_traits@D@std@@V?$allocator@D@2@@std@@@2@V?$allocator@U?$pair@$$CBV?$basic_string@DU?$char_traits@D@std@@V?$allocator@D@2@@std@@H@std@@@2@$0A@@std@@@std@@IBEABV?$basic_string@DU?$char_traits@D@std@@V?$allocator@D@2@@2@ABU?$pair@$$CBV?$basic_string@DU?$char_traits@D@std@@V?$allocator@D@2@@std@@H@2@@Z 0043bf70 f i CommonPathfindingLib:GraphicsBufferManager.obj
 0002:0001bfd0       ?_Lmost@?$_Tree@V?$_Tmap_traits@HPAVGraphicsBuffer@@U?$less@H@std@@V?$allocator@U?$pair@$$CBHPAVGraphicsBuffer@@@std@@@3@$0A@@std@@@std@@IBEAAPAU?$_Tree_node@U?$pair@$$CBHPAVGraphicsBuffer@@@std@@PAX@2@XZ 0043bfd0 f i CommonPathfindingLib:GraphicsBufferManager.obj
 0002:0001c030       ?_Lmost@?$_Tree@V?$_Tmap_traits@V?$basic_string@DU?$char_traits@D@std@@V?$allocator@D@2@@std@@HU?$less@V?$basic_string@DU?$char_traits@D@std@@V?$allocator@D@2@@std@@@2@V?$allocator@U?$pair@$$CBV?$basic_string@DU?$char_traits@D@std@@V?$allocator@D@2@@std@@H@std@@@2@$0A@@std@@@std@@IBEAAPAU?$_Tree_node@U?$pair@$$CBV?$basic_string@DU?$char_traits@D@std@@V?$allocator@D@2@@std@@H@std@@PAX@2@XZ 0043c030 f i CommonPathfindingLib:GraphicsBufferManager.obj
 0002:0001c090       ?_Lrotate@?$_Tree@V?$_Tmap_traits@HPAVGraphicsBuffer@@U?$less@H@std@@V?$allocator@U?$pair@$$CBHPAVGraphicsBuffer@@@std@@@3@$0A@@std@@@std@@IAEXPAU?$_Tree_node@U?$pair@$$CBHPAVGraphicsBuffer@@@std@@PAX@2@@Z 0043c090 f i CommonPathfindingLib:GraphicsBufferManager.obj
 0002:0001c190       ?_Lrotate@?$_Tree@V?$_Tmap_traits@V?$basic_string@DU?$char_traits@D@std@@V?$allocator@D@2@@std@@HU?$less@V?$basic_string@DU?$char_traits@D@std@@V?$allocator@D@2@@std@@@2@V?$allocator@U?$pair@$$CBV?$basic_string@DU?$char_traits@D@std@@V?$allocator@D@2@@std@@H@std@@@2@$0A@@std@@@std@@IAEXPAU?$_Tree_node@U?$pair@$$CBV?$basic_string@DU?$char_traits@D@std@@V?$allocator@D@2@@std@@H@std@@PAX@2@@Z 0043c190 f i CommonPathfindingLib:GraphicsBufferManager.obj
 0002:0001c290       ?_Max@?$_Tree_comp_alloc@V?$_Tmap_traits@HPAVGraphicsBuffer@@U?$less@H@std@@V?$allocator@U?$pair@$$CBHPAVGraphicsBuffer@@@std@@@3@$0A@@std@@@std@@SAPAU?$_Tree_node@U?$pair@$$CBHPAVGraphicsBuffer@@@std@@PAX@2@PAU32@@Z 0043c290 f i CommonPathfindingLib:GraphicsBufferManager.obj
 0002:0001c2e0       ?_Max@?$_Tree_comp_alloc@V?$_Tmap_traits@V?$basic_string@DU?$char_traits@D@std@@V?$allocator@D@2@@std@@HU?$less@V?$basic_string@DU?$char_traits@D@std@@V?$allocator@D@2@@std@@@2@V?$allocator@U?$pair@$$CBV?$basic_string@DU?$char_traits@D@std@@V?$allocator@D@2@@std@@H@std@@@2@$0A@@std@@@std@@SAPAU?$_Tree_node@U?$pair@$$CBV?$basic_string@DU?$char_traits@D@std@@V?$allocator@D@2@@std@@H@std@@PAX@2@PAU32@@Z 0043c2e0 f i CommonPathfindingLib:GraphicsBufferManager.obj
 0002:0001c330       ?_Max@?$_Tree_val@U?$_Tree_simple_types@U?$pair@$$CBHPAVGraphicsBuffer@@@std@@@std@@@std@@SAPAU?$_Tree_node@U?$pair@$$CBHPAVGraphicsBuffer@@@std@@PAX@2@PAU32@@Z 0043c330 f i CommonPathfindingLib:GraphicsBufferManager.obj
 0002:0001c390       ?_Max@?$_Tree_val@U?$_Tree_simple_types@U?$pair@$$CBV?$basic_string@DU?$char_traits@D@std@@V?$allocator@D@2@@std@@H@std@@@std@@@std@@SAPAU?$_Tree_node@U?$pair@$$CBV?$basic_string@DU?$char_traits@D@std@@V?$allocator@D@2@@std@@H@std@@PAX@2@PAU32@@Z 0043c390 f i CommonPathfindingLib:GraphicsBufferManager.obj
 0002:0001c3f0       ?_Min@?$_Tree_comp_alloc@V?$_Tmap_traits@HPAVGraphicsBuffer@@U?$less@H@std@@V?$allocator@U?$pair@$$CBHPAVGraphicsBuffer@@@std@@@3@$0A@@std@@@std@@SAPAU?$_Tree_node@U?$pair@$$CBHPAVGraphicsBuffer@@@std@@PAX@2@PAU32@@Z 0043c3f0 f i CommonPathfindingLib:GraphicsBufferManager.obj
 0002:0001c440       ?_Min@?$_Tree_comp_alloc@V?$_Tmap_traits@V?$basic_string@DU?$char_traits@D@std@@V?$allocator@D@2@@std@@HU?$less@V?$basic_string@DU?$char_traits@D@std@@V?$allocator@D@2@@std@@@2@V?$allocator@U?$pair@$$CBV?$basic_string@DU?$char_traits@D@std@@V?$allocator@D@2@@std@@H@std@@@2@$0A@@std@@@std@@SAPAU?$_Tree_node@U?$pair@$$CBV?$basic_string@DU?$char_traits@D@std@@V?$allocator@D@2@@std@@H@std@@PAX@2@PAU32@@Z 0043c440 f i CommonPathfindingLib:GraphicsBufferManager.obj
 0002:0001c490       ?_Min@?$_Tree_val@U?$_Tree_simple_types@U?$pair@$$CBHPAVGraphicsBuffer@@@std@@@std@@@std@@SAPAU?$_Tree_node@U?$pair@$$CBHPAVGraphicsBuffer@@@std@@PAX@2@PAU32@@Z 0043c490 f i CommonPathfindingLib:GraphicsBufferManager.obj
 0002:0001c4e0       ?_Min@?$_Tree_val@U?$_Tree_simple_types@U?$pair@$$CBV?$basic_string@DU?$char_traits@D@std@@V?$allocator@D@2@@std@@H@std@@@std@@@std@@SAPAU?$_Tree_node@U?$pair@$$CBV?$basic_string@DU?$char_traits@D@std@@V?$allocator@D@2@@std@@H@std@@PAX@2@PAU32@@Z 0043c4e0 f i CommonPathfindingLib:GraphicsBufferManager.obj
 0002:0001c530       ?_Myhead@?$_Tree_comp_alloc@V?$_Tmap_traits@HPAVGraphicsBuffer@@U?$less@H@std@@V?$allocator@U?$pair@$$CBHPAVGraphicsBuffer@@@std@@@3@$0A@@std@@@std@@QAEAAPAU?$_Tree_node@U?$pair@$$CBHPAVGraphicsBuffer@@@std@@PAX@2@XZ 0043c530 f i CommonPathfindingLib:GraphicsBufferManager.obj
 0002:0001c590       ?_Myhead@?$_Tree_comp_alloc@V?$_Tmap_traits@HPAVGraphicsBuffer@@U?$less@H@std@@V?$allocator@U?$pair@$$CBHPAVGraphicsBuffer@@@std@@@3@$0A@@std@@@std@@QBEABQAU?$_Tree_node@U?$pair@$$CBHPAVGraphicsBuffer@@@std@@PAX@2@XZ 0043c590 f i CommonPathfindingLib:GraphicsBufferManager.obj
 0002:0001c5f0       ?_Myhead@?$_Tree_comp_alloc@V?$_Tmap_traits@V?$basic_string@DU?$char_traits@D@std@@V?$allocator@D@2@@std@@HU?$less@V?$basic_string@DU?$char_traits@D@std@@V?$allocator@D@2@@std@@@2@V?$allocator@U?$pair@$$CBV?$basic_string@DU?$char_traits@D@std@@V?$allocator@D@2@@std@@H@std@@@2@$0A@@std@@@std@@QAEAAPAU?$_Tree_node@U?$pair@$$CBV?$basic_string@DU?$char_traits@D@std@@V?$allocator@D@2@@std@@H@std@@PAX@2@XZ 0043c5f0 f i CommonPathfindingLib:GraphicsBufferManager.obj
 0002:0001c650       ?_Myhead@?$_Tree_comp_alloc@V?$_Tmap_traits@V?$basic_string@DU?$char_traits@D@std@@V?$allocator@D@2@@std@@HU?$less@V?$basic_string@DU?$char_traits@D@std@@V?$allocator@D@2@@std@@@2@V?$allocator@U?$pair@$$CBV?$basic_string@DU?$char_traits@D@std@@V?$allocator@D@2@@std@@H@std@@@2@$0A@@std@@@std@@QBEABQAU?$_Tree_node@U?$pair@$$CBV?$basic_string@DU?$char_traits@D@std@@V?$allocator@D@2@@std@@H@std@@PAX@2@XZ 0043c650 f i CommonPathfindingLib:GraphicsBufferManager.obj
 0002:0001c6b0       ?_Mynode@?$_Tree_unchecked_const_iterator@V?$_Tree_val@U?$_Tree_simple_types@U?$pair@$$CBHPAVGraphicsBuffer@@@std@@@std@@@std@@U_Iterator_base12@2@@std@@QBEPAU?$_Tree_node@U?$pair@$$CBHPAVGraphicsBuffer@@@std@@PAX@2@XZ 0043c6b0 f i CommonPathfindingLib:GraphicsBufferManager.obj
 0002:0001c6f0       ?_Mynode@?$_Tree_unchecked_const_iterator@V?$_Tree_val@U?$_Tree_simple_types@U?$pair@$$CBV?$basic_string@DU?$char_traits@D@std@@V?$allocator@D@2@@std@@H@std@@@std@@@std@@U_Iterator_base12@2@@std@@QBEPAU?$_Tree_node@U?$pair@$$CBV?$basic_string@DU?$char_traits@D@std@@V?$allocator@D@2@@std@@H@std@@PAX@2@XZ 0043c6f0 f i CommonPathfindingLib:GraphicsBufferManager.obj
 0002:0001c730       ?_Myproxy@?$_Tree_comp_alloc@V?$_Tmap_traits@HPAVGraphicsBuffer@@U?$less@H@std@@V?$allocator@U?$pair@$$CBHPAVGraphicsBuffer@@@std@@@3@$0A@@std@@@std@@QAEAAPAU_Container_proxy@2@XZ 0043c730 f i CommonPathfindingLib:GraphicsBufferManager.obj
 0002:0001c780       ?_Myproxy@?$_Tree_comp_alloc@V?$_Tmap_traits@V?$basic_string@DU?$char_traits@D@std@@V?$allocator@D@2@@std@@HU?$less@V?$basic_string@DU?$char_traits@D@std@@V?$allocator@D@2@@std@@@2@V?$allocator@U?$pair@$$CBV?$basic_string@DU?$char_traits@D@std@@V?$allocator@D@2@@std@@H@std@@@2@$0A@@std@@@std@@QAEAAPAU_Container_proxy@2@XZ 0043c780 f i CommonPathfindingLib:GraphicsBufferManager.obj
 0002:0001c7d0       ?_Mysize@?$_Tree_comp_alloc@V?$_Tmap_traits@HPAVGraphicsBuffer@@U?$less@H@std@@V?$allocator@U?$pair@$$CBHPAVGraphicsBuffer@@@std@@@3@$0A@@std@@@std@@QAEAAIXZ 0043c7d0 f i CommonPathfindingLib:GraphicsBufferManager.obj
 0002:0001c830       ?_Mysize@?$_Tree_comp_alloc@V?$_Tmap_traits@HPAVGraphicsBuffer@@U?$less@H@std@@V?$allocator@U?$pair@$$CBHPAVGraphicsBuffer@@@std@@@3@$0A@@std@@@std@@QBEABIXZ 0043c830 f i CommonPathfindingLib:GraphicsBufferManager.obj
 0002:0001c890       ?_Mysize@?$_Tree_comp_alloc@V?$_Tmap_traits@V?$basic_string@DU?$char_traits@D@std@@V?$allocator@D@2@@std@@HU?$less@V?$basic_string@DU?$char_traits@D@std@@V?$allocator@D@2@@std@@@2@V?$allocator@U?$pair@$$CBV?$basic_string@DU?$char_traits@D@std@@V?$allocator@D@2@@std@@H@std@@@2@$0A@@std@@@std@@QAEAAIXZ 0043c890 f i CommonPathfindingLib:GraphicsBufferManager.obj
 0002:0001c8f0       ?_Mysize@?$_Tree_comp_alloc@V?$_Tmap_traits@V?$basic_string@DU?$char_traits@D@std@@V?$allocator@D@2@@std@@HU?$less@V?$basic_string@DU?$char_traits@D@std@@V?$allocator@D@2@@std@@@2@V?$allocator@U?$pair@$$CBV?$basic_string@DU?$char_traits@D@std@@V?$allocator@D@2@@std@@H@std@@@2@$0A@@std@@@std@@QBEABIXZ 0043c8f0 f i CommonPathfindingLib:GraphicsBufferManager.obj
 0002:0001c950       ?_Orphan_all@?$_Tree_comp_alloc@V?$_Tmap_traits@HPAVGraphicsBuffer@@U?$less@H@std@@V?$allocator@U?$pair@$$CBHPAVGraphicsBuffer@@@std@@@3@$0A@@std@@@std@@QAEXXZ 0043c950 f i CommonPathfindingLib:GraphicsBufferManager.obj
 0002:0001c9b0       ?_Orphan_all@?$_Tree_comp_alloc@V?$_Tmap_traits@V?$basic_string@DU?$char_traits@D@std@@V?$allocator@D@2@@std@@HU?$less@V?$basic_string@DU?$char_traits@D@std@@V?$allocator@D@2@@std@@@2@V?$allocator@U?$pair@$$CBV?$basic_string@DU?$char_traits@D@std@@V?$allocator@D@2@@std@@H@std@@@2@$0A@@std@@@std@@QAEXXZ 0043c9b0 f i CommonPathfindingLib:GraphicsBufferManager.obj
 0002:0001ca10       ?_Orphan_ptr@?$_Tree@V?$_Tmap_traits@HPAVGraphicsBuffer@@U?$less@H@std@@V?$allocator@U?$pair@$$CBHPAVGraphicsBuffer@@@std@@@3@$0A@@std@@@std@@IAEXPAU?$_Tree_node@U?$pair@$$CBHPAVGraphicsBuffer@@@std@@PAX@2@@Z 0043ca10 f i CommonPathfindingLib:GraphicsBufferManager.obj
 0002:0001cb90       ?_Orphan_ptr@?$_Tree@V?$_Tmap_traits@V?$basic_string@DU?$char_traits@D@std@@V?$allocator@D@2@@std@@HU?$less@V?$basic_string@DU?$char_traits@D@std@@V?$allocator@D@2@@std@@@2@V?$allocator@U?$pair@$$CBV?$basic_string@DU?$char_traits@D@std@@V?$allocator@D@2@@std@@H@std@@@2@$0A@@std@@@std@@IAEXPAU?$_Tree_node@U?$pair@$$CBV?$basic_string@DU?$char_traits@D@std@@V?$allocator@D@2@@std@@H@std@@PAX@2@@Z 0043cb90 f i CommonPathfindingLib:GraphicsBufferManager.obj
 0002:0001cd10       ?_Rmost@?$_Tree@V?$_Tmap_traits@HPAVGraphicsBuffer@@U?$less@H@std@@V?$allocator@U?$pair@$$CBHPAVGraphicsBuffer@@@std@@@3@$0A@@std@@@std@@IBEAAPAU?$_Tree_node@U?$pair@$$CBHPAVGraphicsBuffer@@@std@@PAX@2@XZ 0043cd10 f i CommonPathfindingLib:GraphicsBufferManager.obj
 0002:0001cd70       ?_Rmost@?$_Tree@V?$_Tmap_traits@V?$basic_string@DU?$char_traits@D@std@@V?$allocator@D@2@@std@@HU?$less@V?$basic_string@DU?$char_traits@D@std@@V?$allocator@D@2@@std@@@2@V?$allocator@U?$pair@$$CBV?$basic_string@DU?$char_traits@D@std@@V?$allocator@D@2@@std@@H@std@@@2@$0A@@std@@@std@@IBEAAPAU?$_Tree_node@U?$pair@$$CBV?$basic_string@DU?$char_traits@D@std@@V?$allocator@D@2@@std@@H@std@@PAX@2@XZ 0043cd70 f i CommonPathfindingLib:GraphicsBufferManager.obj
 0002:0001cdd0       ?_Root@?$_Tree@V?$_Tmap_traits@HPAVGraphicsBuffer@@U?$less@H@std@@V?$allocator@U?$pair@$$CBHPAVGraphicsBuffer@@@std@@@3@$0A@@std@@@std@@IBEAAPAU?$_Tree_node@U?$pair@$$CBHPAVGraphicsBuffer@@@std@@PAX@2@XZ 0043cdd0 f i CommonPathfindingLib:GraphicsBufferManager.obj
 0002:0001ce30       ?_Root@?$_Tree@V?$_Tmap_traits@V?$basic_string@DU?$char_traits@D@std@@V?$allocator@D@2@@std@@HU?$less@V?$basic_string@DU?$char_traits@D@std@@V?$allocator@D@2@@std@@@2@V?$allocator@U?$pair@$$CBV?$basic_string@DU?$char_traits@D@std@@V?$allocator@D@2@@std@@H@std@@@2@$0A@@std@@@std@@IBEAAPAU?$_Tree_node@U?$pair@$$CBV?$basic_string@DU?$char_traits@D@std@@V?$allocator@D@2@@std@@H@std@@PAX@2@XZ 0043ce30 f i CommonPathfindingLib:GraphicsBufferManager.obj
 0002:0001ce90       ?_Rrotate@?$_Tree@V?$_Tmap_traits@HPAVGraphicsBuffer@@U?$less@H@std@@V?$allocator@U?$pair@$$CBHPAVGraphicsBuffer@@@std@@@3@$0A@@std@@@std@@IAEXPAU?$_Tree_node@U?$pair@$$CBHPAVGraphicsBuffer@@@std@@PAX@2@@Z 0043ce90 f i CommonPathfindingLib:GraphicsBufferManager.obj
 0002:0001cf90       ?_Rrotate@?$_Tree@V?$_Tmap_traits@V?$basic_string@DU?$char_traits@D@std@@V?$allocator@D@2@@std@@HU?$less@V?$basic_string@DU?$char_traits@D@std@@V?$allocator@D@2@@std@@@2@V?$allocator@U?$pair@$$CBV?$basic_string@DU?$char_traits@D@std@@V?$allocator@D@2@@std@@H@std@@@2@$0A@@std@@@std@@IAEXPAU?$_Tree_node@U?$pair@$$CBV?$basic_string@DU?$char_traits@D@std@@V?$allocator@D@2@@std@@H@std@@PAX@2@@Z 0043cf90 f i CommonPathfindingLib:GraphicsBufferManager.obj
 0002:0001d090       ?_Tidy@?$_Tree@V?$_Tmap_traits@HPAVGraphicsBuffer@@U?$less@H@std@@V?$allocator@U?$pair@$$CBHPAVGraphicsBuffer@@@std@@@3@$0A@@std@@@std@@IAEXXZ 0043d090 f i CommonPathfindingLib:GraphicsBufferManager.obj
 0002:0001d200       ?_Tidy@?$_Tree@V?$_Tmap_traits@V?$basic_string@DU?$char_traits@D@std@@V?$allocator@D@2@@std@@HU?$less@V?$basic_string@DU?$char_traits@D@std@@V?$allocator@D@2@@std@@@2@V?$allocator@U?$pair@$$CBV?$basic_string@DU?$char_traits@D@std@@V?$allocator@D@2@@std@@H@std@@@2@$0A@@std@@@std@@IAEXXZ 0043d200 f i CommonPathfindingLib:GraphicsBufferManager.obj
 0002:0001d370       ?allocate@?$allocator@U?$_Tree_node@U?$pair@$$CBHPAVGraphicsBuffer@@@std@@PAX@std@@@std@@QAEPAU?$_Tree_node@U?$pair@$$CBHPAVGraphicsBuffer@@@std@@PAX@2@I@Z 0043d370 f i CommonPathfindingLib:GraphicsBufferManager.obj
 0002:0001d3d0       ?allocate@?$allocator@U?$_Tree_node@U?$pair@$$CBV?$basic_string@DU?$char_traits@D@std@@V?$allocator@D@2@@std@@H@std@@PAX@std@@@std@@QAEPAU?$_Tree_node@U?$pair@$$CBV?$basic_string@DU?$char_traits@D@std@@V?$allocator@D@2@@std@@H@std@@PAX@2@I@Z 0043d3d0 f i CommonPathfindingLib:GraphicsBufferManager.obj
 0002:0001d430       ?begin@?$_Tree@V?$_Tmap_traits@HPAVGraphicsBuffer@@U?$less@H@std@@V?$allocator@U?$pair@$$CBHPAVGraphicsBuffer@@@std@@@3@$0A@@std@@@std@@QAE?AV?$_Tree_iterator@V?$_Tree_val@U?$_Tree_simple_types@U?$pair@$$CBHPAVGraphicsBuffer@@@std@@@std@@@std@@@2@XZ 0043d430 f i CommonPathfindingLib:GraphicsBufferManager.obj
 0002:0001d4e0       ?begin@?$_Tree@V?$_Tmap_traits@V?$basic_string@DU?$char_traits@D@std@@V?$allocator@D@2@@std@@HU?$less@V?$basic_string@DU?$char_traits@D@std@@V?$allocator@D@2@@std@@@2@V?$allocator@U?$pair@$$CBV?$basic_string@DU?$char_traits@D@std@@V?$allocator@D@2@@std@@H@std@@@2@$0A@@std@@@std@@QAE?AV?$_Tree_iterator@V?$_Tree_val@U?$_Tree_simple_types@U?$pair@$$CBV?$basic_string@DU?$char_traits@D@std@@V?$allocator@D@2@@std@@H@std@@@std@@@std@@@2@XZ 0043d4e0 f i CommonPathfindingLib:GraphicsBufferManager.obj
 0002:0001d590       ?clear@?$_Tree@V?$_Tmap_traits@HPAVGraphicsBuffer@@U?$less@H@std@@V?$allocator@U?$pair@$$CBHPAVGraphicsBuffer@@@std@@@3@$0A@@std@@@std@@QAEXXZ 0043d590 f i CommonPathfindingLib:GraphicsBufferManager.obj
 0002:0001d6a0       ?clear@?$_Tree@V?$_Tmap_traits@V?$basic_string@DU?$char_traits@D@std@@V?$allocator@D@2@@std@@HU?$less@V?$basic_string@DU?$char_traits@D@std@@V?$allocator@D@2@@std@@@2@V?$allocator@U?$pair@$$CBV?$basic_string@DU?$char_traits@D@std@@V?$allocator@D@2@@std@@H@std@@@2@$0A@@std@@@std@@QAEXXZ 0043d6a0 f i CommonPathfindingLib:GraphicsBufferManager.obj
 0002:0001d7b0       ?clear@GraphicsBufferManager@@QAEXXZ 0043d7b0 f   CommonPathfindingLib:GraphicsBufferManager.obj
 0002:0001d9b0       ?compare@?$basic_string@DU?$char_traits@D@std@@V?$allocator@D@2@@std@@QBEHABV12@@Z 0043d9b0 f i CommonPathfindingLib:GraphicsBufferManager.obj
 0002:0001da80       ?compare@?$char_traits@D@std@@SAHQBD0I@Z 0043da80 f i CommonPathfindingLib:GraphicsBufferManager.obj
 0002:0001dae0       ?deallocate@?$allocator@U?$_Tree_node@U?$pair@$$CBHPAVGraphicsBuffer@@@std@@PAX@std@@@std@@QAEXQAU?$_Tree_node@U?$pair@$$CBHPAVGraphicsBuffer@@@std@@PAX@2@I@Z 0043dae0 f i CommonPathfindingLib:GraphicsBufferManager.obj
 0002:0001db40       ?deallocate@?$allocator@U?$_Tree_node@U?$pair@$$CBV?$basic_string@DU?$char_traits@D@std@@V?$allocator@D@2@@std@@H@std@@PAX@std@@@std@@QAEXQAU?$_Tree_node@U?$pair@$$CBV?$basic_string@DU?$char_traits@D@std@@V?$allocator@D@2@@std@@H@std@@PAX@2@I@Z 0043db40 f i CommonPathfindingLib:GraphicsBufferManager.obj
 0002:0001dba0       ?deleteBuffer@GraphicsBufferManager@@QAEXABH@Z 0043dba0 f   CommonPathfindingLib:GraphicsBufferManager.obj
 0002:0001def0       ?deleteBufferByDescriptor@GraphicsBufferManager@@QAEXABV?$basic_string@DU?$char_traits@D@std@@V?$allocator@D@2@@std@@@Z 0043def0 f   CommonPathfindingLib:GraphicsBufferManager.obj
 0002:0001e060       ?end@?$_Tree@V?$_Tmap_traits@HPAVGraphicsBuffer@@U?$less@H@std@@V?$allocator@U?$pair@$$CBHPAVGraphicsBuffer@@@std@@@3@$0A@@std@@@std@@QAE?AV?$_Tree_iterator@V?$_Tree_val@U?$_Tree_simple_types@U?$pair@$$CBHPAVGraphicsBuffer@@@std@@@std@@@std@@@2@XZ 0043e060 f i CommonPathfindingLib:GraphicsBufferManager.obj
 0002:0001e110       ?end@?$_Tree@V?$_Tmap_traits@V?$basic_string@DU?$char_traits@D@std@@V?$allocator@D@2@@std@@HU?$less@V?$basic_string@DU?$char_traits@D@std@@V?$allocator@D@2@@std@@@2@V?$allocator@U?$pair@$$CBV?$basic_string@DU?$char_traits@D@std@@V?$allocator@D@2@@std@@H@std@@@2@$0A@@std@@@std@@QAE?AV?$_Tree_iterator@V?$_Tree_val@U?$_Tree_simple_types@U?$pair@$$CBV?$basic_string@DU?$char_traits@D@std@@V?$allocator@D@2@@std@@H@std@@@std@@@std@@@2@XZ 0043e110 f i CommonPathfindingLib:GraphicsBufferManager.obj
 0002:0001e1c0       ?erase@?$_Tree@V?$_Tmap_traits@HPAVGraphicsBuffer@@U?$less@H@std@@V?$allocator@U?$pair@$$CBHPAVGraphicsBuffer@@@std@@@3@$0A@@std@@@std@@QAE?AV?$_Tree_iterator@V?$_Tree_val@U?$_Tree_simple_types@U?$pair@$$CBHPAVGraphicsBuffer@@@std@@@std@@@std@@@2@V?$_Tree_const_iterator@V?$_Tree_val@U?$_Tree_simple_types@U?$pair@$$CBHPAVGraphicsBuffer@@@std@@@std@@@std@@@2@0@Z 0043e1c0 f i CommonPathfindingLib:GraphicsBufferManager.obj
 0002:0001e4e0       ?erase@?$_Tree@V?$_Tmap_traits@HPAVGraphicsBuffer@@U?$less@H@std@@V?$allocator@U?$pair@$$CBHPAVGraphicsBuffer@@@std@@@3@$0A@@std@@@std@@QAE?AV?$_Tree_iterator@V?$_Tree_val@U?$_Tree_simple_types@U?$pair@$$CBHPAVGraphicsBuffer@@@std@@@std@@@std@@@2@V?$_Tree_const_iterator@V?$_Tree_val@U?$_Tree_simple_types@U?$pair@$$CBHPAVGraphicsBuffer@@@std@@@std@@@std@@@2@@Z 0043e4e0 f i CommonPathfindingLib:GraphicsBufferManager.obj
 0002:0001ec10       ?erase@?$_Tree@V?$_Tmap_traits@V?$basic_string@DU?$char_traits@D@std@@V?$allocator@D@2@@std@@HU?$less@V?$basic_string@DU?$char_traits@D@std@@V?$allocator@D@2@@std@@@2@V?$allocator@U?$pair@$$CBV?$basic_string@DU?$char_traits@D@std@@V?$allocator@D@2@@std@@H@std@@@2@$0A@@std@@@std@@QAE?AV?$_Tree_iterator@V?$_Tree_val@U?$_Tree_simple_types@U?$pair@$$CBV?$basic_string@DU?$char_traits@D@std@@V?$allocator@D@2@@std@@H@std@@@std@@@std@@@2@V?$_Tree_const_iterator@V?$_Tree_val@U?$_Tree_simple_types@U?$pair@$$CBV?$basic_string@DU?$char_traits@D@std@@V?$allocator@D@2@@std@@H@std@@@std@@@std@@@2@0@Z 0043ec10 f i CommonPathfindingLib:GraphicsBufferManager.obj
 0002:0001ef30       ?erase@?$_Tree@V?$_Tmap_traits@V?$basic_string@DU?$char_traits@D@std@@V?$allocator@D@2@@std@@HU?$less@V?$basic_string@DU?$char_traits@D@std@@V?$allocator@D@2@@std@@@2@V?$allocator@U?$pair@$$CBV?$basic_string@DU?$char_traits@D@std@@V?$allocator@D@2@@std@@H@std@@@2@$0A@@std@@@std@@QAE?AV?$_Tree_iterator@V?$_Tree_val@U?$_Tree_simple_types@U?$pair@$$CBV?$basic_string@DU?$char_traits@D@std@@V?$allocator@D@2@@std@@H@std@@@std@@@std@@@2@V?$_Tree_const_iterator@V?$_Tree_val@U?$_Tree_simple_types@U?$pair@$$CBV?$basic_string@DU?$char_traits@D@std@@V?$allocator@D@2@@std@@H@std@@@std@@@std@@@2@@Z 0043ef30 f i CommonPathfindingLib:GraphicsBufferManager.obj
 0002:0001f660       ?find@?$_Tree@V?$_Tmap_traits@HPAVGraphicsBuffer@@U?$less@H@std@@V?$allocator@U?$pair@$$CBHPAVGraphicsBuffer@@@std@@@3@$0A@@std@@@std@@QAE?AV?$_Tree_iterator@V?$_Tree_val@U?$_Tree_simple_types@U?$pair@$$CBHPAVGraphicsBuffer@@@std@@@std@@@std@@@2@ABH@Z 0043f660 f i CommonPathfindingLib:GraphicsBufferManager.obj
 0002:0001f920       ?find@?$_Tree@V?$_Tmap_traits@V?$basic_string@DU?$char_traits@D@std@@V?$allocator@D@2@@std@@HU?$less@V?$basic_string@DU?$char_traits@D@std@@V?$allocator@D@2@@std@@@2@V?$allocator@U?$pair@$$CBV?$basic_string@DU?$char_traits@D@std@@V?$allocator@D@2@@std@@H@std@@@2@$0A@@std@@@std@@QAE?AV?$_Tree_iterator@V?$_Tree_val@U?$_Tree_simple_types@U?$pair@$$CBV?$basic_string@DU?$char_traits@D@std@@V?$allocator@D@2@@std@@H@std@@@std@@@std@@@2@ABV?$basic_string@DU?$char_traits@D@std@@V?$allocator@D@2@@2@@Z 0043f920 f i CommonPathfindingLib:GraphicsBufferManager.obj
 0002:0001fbe0       ?getBuffer@GraphicsBufferManager@@QAEPAVGraphicsBuffer@@ABH@Z 0043fbe0 f   CommonPathfindingLib:GraphicsBufferManager.obj
 0002:0001fd60       ?getBufferByDescriptor@GraphicsBufferManager@@QAEPAVGraphicsBuffer@@ABV?$basic_string@DU?$char_traits@D@std@@V?$allocator@D@2@@std@@@Z 0043fd60 f   CommonPathfindingLib:GraphicsBufferManager.obj
 0002:0001ff10       ?getNextID@GraphicsBufferManager@@AAEHXZ 0043ff10 f   CommonPathfindingLib:GraphicsBufferManager.obj
 0002:000200d0       ?init@GraphicsBufferManager@@QAEXXZ 004400d0 f   CommonPathfindingLib:GraphicsBufferManager.obj
 0002:00020110       ?isValid@GraphicsBuffer@@QBE_NXZ 00440110 f i CommonPathfindingLib:GraphicsBufferManager.obj
 0002:00020180       ?loadBuffer@GraphicsBufferManager@@QAEHABHABV?$basic_string@DU?$char_traits@D@std@@V?$allocator@D@2@@std@@@Z 00440180 f   CommonPathfindingLib:GraphicsBufferManager.obj
 0002:000203f0       ?loadBuffer@GraphicsBufferManager@@QAEHABV?$basic_string@DU?$char_traits@D@std@@V?$allocator@D@2@@std@@@Z 004403f0 f   CommonPathfindingLib:GraphicsBufferManager.obj
 0002:000204a0       ?lower_bound@?$_Tree@V?$_Tmap_traits@HPAVGraphicsBuffer@@U?$less@H@std@@V?$allocator@U?$pair@$$CBHPAVGraphicsBuffer@@@std@@@3@$0A@@std@@@std@@QAE?AV?$_Tree_iterator@V?$_Tree_val@U?$_Tree_simple_types@U?$pair@$$CBHPAVGraphicsBuffer@@@std@@@std@@@std@@@2@ABH@Z 004404a0 f i CommonPathfindingLib:GraphicsBufferManager.obj
 0002:00020540       ?lower_bound@?$_Tree@V?$_Tmap_traits@V?$basic_string@DU?$char_traits@D@std@@V?$allocator@D@2@@std@@HU?$less@V?$basic_string@DU?$char_traits@D@std@@V?$allocator@D@2@@std@@@2@V?$allocator@U?$pair@$$CBV?$basic_string@DU?$char_traits@D@std@@V?$allocator@D@2@@std@@H@std@@@2@$0A@@std@@@std@@QAE?AV?$_Tree_iterator@V?$_Tree_val@U?$_Tree_simple_types@U?$pair@$$CBV?$basic_string@DU?$char_traits@D@std@@V?$allocator@D@2@@std@@H@std@@@std@@@std@@@2@ABV?$basic_string@DU?$char_traits@D@std@@V?$allocator@D@2@@2@@Z 00440540 f i CommonPathfindingLib:GraphicsBufferManager.obj
 0002:000205e0       ?manageBuffer@GraphicsBufferManager@@QAEHPAVGraphicsBuffer@@ABV?$basic_string@DU?$char_traits@D@std@@V?$allocator@D@2@@std@@@Z 004405e0 f   CommonPathfindingLib:GraphicsBufferManager.obj
 0002:000207a0       ?max_size@?$_Default_allocator_traits@V?$allocator@U?$_Tree_node@U?$pair@$$CBHPAVGraphicsBuffer@@@std@@PAX@std@@@std@@@std@@SAIABV?$allocator@U?$_Tree_node@U?$pair@$$CBHPAVGraphicsBuffer@@@std@@PAX@std@@@2@@Z 004407a0 f i CommonPathfindingLib:GraphicsBufferManager.obj
 0002:000207e0       ?max_size@?$_Default_allocator_traits@V?$allocator@U?$_Tree_node@U?$pair@$$CBV?$basic_string@DU?$char_traits@D@std@@V?$allocator@D@2@@std@@H@std@@PAX@std@@@std@@@std@@SAIABV?$allocator@U?$_Tree_node@U?$pair@$$CBV?$basic_string@DU?$char_traits@D@std@@V?$allocator@D@2@@std@@H@std@@PAX@std@@@2@@Z 004407e0 f i CommonPathfindingLib:GraphicsBufferManager.obj
 0002:00020820       ?max_size@?$_Tree@V?$_Tmap_traits@HPAVGraphicsBuffer@@U?$less@H@std@@V?$allocator@U?$pair@$$CBHPAVGraphicsBuffer@@@std@@@3@$0A@@std@@@std@@QBEIXZ 00440820 f i CommonPathfindingLib:GraphicsBufferManager.obj
 0002:00020880       ?max_size@?$_Tree@V?$_Tmap_traits@V?$basic_string@DU?$char_traits@D@std@@V?$allocator@D@2@@std@@HU?$less@V?$basic_string@DU?$char_traits@D@std@@V?$allocator@D@2@@std@@@2@V?$allocator@U?$pair@$$CBV?$basic_string@DU?$char_traits@D@std@@V?$allocator@D@2@@std@@H@std@@@2@$0A@@std@@@std@@QBEIXZ 00440880 f i CommonPathfindingLib:GraphicsBufferManager.obj
 0002:000208e0       ?pointer_to@?$pointer_traits@PAU?$pair@$$CBHPAVGraphicsBuffer@@@std@@@std@@SAPAU?$pair@$$CBHPAVGraphicsBuffer@@@2@AAU32@@Z 004408e0 f i CommonPathfindingLib:GraphicsBufferManager.obj
 0002:00020930       ?pointer_to@?$pointer_traits@PAU?$pair@$$CBV?$basic_string@DU?$char_traits@D@std@@V?$allocator@D@2@@std@@H@std@@@std@@SAPAU?$pair@$$CBV?$basic_string@DU?$char_traits@D@std@@V?$allocator@D@2@@std@@H@2@AAU32@@Z 00440930 f i CommonPathfindingLib:GraphicsBufferManager.obj
 0002:00020980       ?select_on_container_copy_construction@?$_Default_allocator_traits@V?$allocator@D@std@@@std@@SA?AV?$allocator@D@2@ABV32@@Z 00440980 f i CommonPathfindingLib:GraphicsBufferManager.obj
 0002:000209c0       ?size@?$_Tree@V?$_Tmap_traits@HPAVGraphicsBuffer@@U?$less@H@std@@V?$allocator@U?$pair@$$CBHPAVGraphicsBuffer@@@std@@@3@$0A@@std@@@std@@QBEIXZ 004409c0 f i CommonPathfindingLib:GraphicsBufferManager.obj
 0002:00020a20       ?size@?$_Tree@V?$_Tmap_traits@V?$basic_string@DU?$char_traits@D@std@@V?$allocator@D@2@@std@@HU?$less@V?$basic_string@DU?$char_traits@D@std@@V?$allocator@D@2@@std@@@2@V?$allocator@U?$pair@$$CBV?$basic_string@DU?$char_traits@D@std@@V?$allocator@D@2@@std@@H@std@@@2@$0A@@std@@@std@@QBEIXZ 00440a20 f i CommonPathfindingLib:GraphicsBufferManager.obj
 0002:00020a80       ??$?0$$V@?$_Compressed_pair@V?$allocator@H@std@@V?$_Vector_val@U?$_Simple_types@H@std@@@2@$00@std@@QAE@U_Zero_then_variadic_args_t@1@@Z 00440a80 f i CommonPathfindingLib:Grid.obj
 0002:00020ae0       ??$?0H@?$allocator@U_Container_proxy@std@@@std@@QAE@ABV?$allocator@H@1@@Z 00440ae0 f i CommonPathfindingLib:Grid.obj
 0002:00020b20       ??$?0V?$allocator@H@std@@$$V@?$_Compressed_pair@V?$allocator@H@std@@V?$_Vector_val@U?$_Simple_types@H@std@@@2@$00@std@@QAE@U_One_then_variadic_args_t@1@$$QAV?$allocator@H@1@@Z 00440b20 f i CommonPathfindingLib:Grid.obj
 0002:00020b90       ??$?0V?$allocator@H@std@@X@?$_Vector_alloc@U?$_Vec_base_types@HV?$allocator@H@std@@@std@@@std@@QAE@$$QAV?$allocator@H@1@@Z 00440b90 f i CommonPathfindingLib:Grid.obj
 0002:00020c50       ??$_Copy_memmove@PAHPAH@std@@YAPAHPAH00@Z 00440c50 f i CommonPathfindingLib:Grid.obj
 0002:00020cd0       ??$_Destroy_range1@V?$allocator@H@std@@@std@@YAXPAH0AAV?$allocator@H@0@U?$integral_constant@_N$00@0@@Z 00440cd0 f i CommonPathfindingLib:Grid.obj
 0002:00020d00       ??$_Destroy_range@V?$allocator@H@std@@@std@@YAXPAH0AAV?$allocator@H@0@@Z 00440d00 f i CommonPathfindingLib:Grid.obj
 0002:00020d70       ??$_Emplace_back_with_unused_capacity@ABH@?$vector@HV?$allocator@H@std@@@std@@AAEXABH@Z 00440d70 f i CommonPathfindingLib:Grid.obj
 0002:00020e50       ??$_Ptr_move_cat@HH@std@@YA?AU_Really_trivial_ptr_iterator_tag@0@ABQAH0@Z 00440e50 f i CommonPathfindingLib:Grid.obj
 0002:00020e90       ??$_Rechecked@PAHPAH@std@@YAAAPAHAAPAHPAH@Z 00440e90 f i CommonPathfindingLib:Grid.obj
 0002:00020ed0       ??$_Unchecked@PAH@std@@YAPAHPAH@Z 00440ed0 f i CommonPathfindingLib:Grid.obj
 0002:00020f10       ??$_Unfancy@H@std@@YAPAHPAH@Z 00440f10 f i CommonPathfindingLib:Grid.obj
 0002:00020f50       ??$_Uninitialized_move@PAHPAHV?$allocator@H@std@@@std@@YAPAHPAH00AAV?$allocator@H@0@@Z 00440f50 f i CommonPathfindingLib:Grid.obj
 0002:00021080       ??$_Uninitialized_move_al_unchecked@HHV?$allocator@H@std@@@std@@YAPAHPAH00AAV?$allocator@H@0@U_Really_trivial_ptr_iterator_tag@0@U?$integral_constant@_N$00@0@@Z 00441080 f i CommonPathfindingLib:Grid.obj
 0002:000210e0       ??$addressof@V?$_Vector_val@U?$_Simple_types@H@std@@@std@@@std@@YAPAV?$_Vector_val@U?$_Simple_types@H@std@@@0@AAV10@@Z 004410e0 f i CommonPathfindingLib:Grid.obj
 0002:00021120       ??$construct@HABH@?$_Default_allocator_traits@V?$allocator@H@std@@@std@@SAXAAV?$allocator@H@1@QAHABH@Z 00441120 f i CommonPathfindingLib:Grid.obj
 0002:000211a0       ??$destroy@H@?$_Default_allocator_traits@V?$allocator@H@std@@@std@@SAXAAV?$allocator@H@1@QAH@Z 004411a0 f i CommonPathfindingLib:Grid.obj
 0002:000211d0       ??$emplace_back@ABH@?$vector@HV?$allocator@H@std@@@std@@QAE@ABH@Z 004411d0 f i CommonPathfindingLib:Grid.obj
 0002:00021400       ??$forward@V?$allocator@H@std@@@std@@YA$$QAV?$allocator@H@0@AAV10@@Z 00441400 f i CommonPathfindingLib:Grid.obj
 0002:00021440       ??$move@AAV?$allocator@H@std@@@std@@YA$$QAV?$allocator@H@0@AAV10@@Z 00441440 f i CommonPathfindingLib:Grid.obj
 0002:00021480       ??$move@AAV?$vector@HV?$allocator@H@std@@@std@@@std@@YA$$QAV?$vector@HV?$allocator@H@std@@@0@AAV10@@Z 00441480 f i CommonPathfindingLib:Grid.obj
 0002:000214c0       ??0?$_Vector_alloc@U?$_Vec_base_types@HV?$allocator@H@std@@@std@@@std@@QAE@XZ 004414c0 f i CommonPathfindingLib:Grid.obj
 0002:00021570       ??0?$_Vector_val@U?$_Simple_types@H@std@@@std@@QAE@XZ 00441570 f i CommonPathfindingLib:Grid.obj
 0002:000215f0       ??0?$allocator@H@std@@QAE@XZ 004415f0 f i CommonPathfindingLib:Grid.obj
 0002:00021630       ??0?$vector@HV?$allocator@H@std@@@std@@QAE@$$QAV01@@Z 00441630 f i CommonPathfindingLib:Grid.obj
 0002:00021700       ??0?$vector@HV?$allocator@H@std@@@std@@QAE@XZ 00441700 f i CommonPathfindingLib:Grid.obj
 0002:00021790       ??0Grid@@QAE@HHH@Z         00441790 f   CommonPathfindingLib:Grid.obj
 0002:00021890       ??1?$_Compressed_pair@V?$allocator@H@std@@V?$_Vector_val@U?$_Simple_types@H@std@@@2@$00@std@@QAE@XZ 00441890 f i CommonPathfindingLib:Grid.obj
 0002:000218e0       ??1?$_Vector_alloc@U?$_Vec_base_types@HV?$allocator@H@std@@@std@@@std@@QAE@XZ 004418e0 f i CommonPathfindingLib:Grid.obj
 0002:00021970       ??1?$_Vector_val@U?$_Simple_types@H@std@@@std@@QAE@XZ 00441970 f i CommonPathfindingLib:Grid.obj
 0002:000219c0       ??1?$vector@HV?$allocator@H@std@@@std@@QAE@XZ 004419c0 f i CommonPathfindingLib:Grid.obj
 0002:00021a50       ??1Grid@@QAE@XZ            00441a50 f   CommonPathfindingLib:Grid.obj
 0002:00021ac0       ?_Alloc_proxy@?$_Vector_alloc@U?$_Vec_base_types@HV?$allocator@H@std@@@std@@@std@@QAEXXZ 00441ac0 f i CommonPathfindingLib:Grid.obj
 0002:00021be0       ?_Calculate_growth@?$vector@HV?$allocator@H@std@@@std@@ABEII@Z 00441be0 f i CommonPathfindingLib:Grid.obj
 0002:00021c80       ?_Change_array@?$vector@HV?$allocator@H@std@@@std@@AAEXQAHII@Z 00441c80 f i CommonPathfindingLib:Grid.obj
 0002:00021d80       ?_Destroy@?$vector@HV?$allocator@H@std@@@std@@AAEXPAH0@Z 00441d80 f i CommonPathfindingLib:Grid.obj
 0002:00021df0       ?_Free_proxy@?$_Vector_alloc@U?$_Vec_base_types@HV?$allocator@H@std@@@std@@@std@@QAEXXZ 00441df0 f i CommonPathfindingLib:Grid.obj
 0002:00021ef0       ?_Get_data@?$_Vector_alloc@U?$_Vec_base_types@HV?$allocator@H@std@@@std@@@std@@QAEAAV?$_Vector_val@U?$_Simple_types@H@std@@@2@XZ 00441ef0 f i CommonPathfindingLib:Grid.obj
 0002:00021f40       ?_Get_data@?$_Vector_alloc@U?$_Vec_base_types@HV?$allocator@H@std@@@std@@@std@@QBEABV?$_Vector_val@U?$_Simple_types@H@std@@@2@XZ 00441f40 f i CommonPathfindingLib:Grid.obj
 0002:00021f90       ?_Get_first@?$_Compressed_pair@V?$allocator@H@std@@V?$_Vector_val@U?$_Simple_types@H@std@@@2@$00@std@@QAEAAV?$allocator@H@2@XZ 00441f90 f i CommonPathfindingLib:Grid.obj
 0002:00021fd0       ?_Get_first@?$_Compressed_pair@V?$allocator@H@std@@V?$_Vector_val@U?$_Simple_types@H@std@@@2@$00@std@@QBEABV?$allocator@H@2@XZ 00441fd0 f i CommonPathfindingLib:Grid.obj
 0002:00022010       ?_Get_second@?$_Compressed_pair@V?$allocator@H@std@@V?$_Vector_val@U?$_Simple_types@H@std@@@2@$00@std@@QAEAAV?$_Vector_val@U?$_Simple_types@H@std@@@2@XZ 00442010 f i CommonPathfindingLib:Grid.obj
 0002:00022050       ?_Get_second@?$_Compressed_pair@V?$allocator@H@std@@V?$_Vector_val@U?$_Simple_types@H@std@@@2@$00@std@@QBEABV?$_Vector_val@U?$_Simple_types@H@std@@@2@XZ 00442050 f i CommonPathfindingLib:Grid.obj
 0002:00022090       ?_Getal@?$_Vector_alloc@U?$_Vec_base_types@HV?$allocator@H@std@@@std@@@std@@QAEAAV?$allocator@H@2@XZ 00442090 f i CommonPathfindingLib:Grid.obj
 0002:000220e0       ?_Getal@?$_Vector_alloc@U?$_Vec_base_types@HV?$allocator@H@std@@@std@@@std@@QBEABV?$allocator@H@2@XZ 004420e0 f i CommonPathfindingLib:Grid.obj
 0002:00022130       ?_Getpfirst@?$_Vector_alloc@U?$_Vec_base_types@HV?$allocator@H@std@@@std@@@std@@QBEPAPAU_Iterator_base12@2@XZ 00442130 f i CommonPathfindingLib:Grid.obj
 0002:00022190       ?_Has_unused_capacity@?$vector@HV?$allocator@H@std@@@std@@ABE_NXZ 00442190 f i CommonPathfindingLib:Grid.obj
 0002:00022220       ?_Move_from@?$vector@HV?$allocator@H@std@@@std@@AAEX$$QAV12@U?$integral_constant@_N$00@2@@Z 00442220 f i CommonPathfindingLib:Grid.obj
 0002:00022300       ?_Myend@?$_Vector_alloc@U?$_Vec_base_types@HV?$allocator@H@std@@@std@@@std@@QAEAAPAHXZ 00442300 f i CommonPathfindingLib:Grid.obj
 0002:00022360       ?_Myend@?$_Vector_alloc@U?$_Vec_base_types@HV?$allocator@H@std@@@std@@@std@@QBEABQAHXZ 00442360 f i CommonPathfindingLib:Grid.obj
 0002:000223c0       ?_Myfirst@?$_Vector_alloc@U?$_Vec_base_types@HV?$allocator@H@std@@@std@@@std@@QAEAAPAHXZ 004423c0 f i CommonPathfindingLib:Grid.obj
 0002:00022420       ?_Myfirst@?$_Vector_alloc@U?$_Vec_base_types@HV?$allocator@H@std@@@std@@@std@@QBEABQAHXZ 00442420 f i CommonPathfindingLib:Grid.obj
 0002:00022480       ?_Mylast@?$_Vector_alloc@U?$_Vec_base_types@HV?$allocator@H@std@@@std@@@std@@QAEAAPAHXZ 00442480 f i CommonPathfindingLib:Grid.obj
 0002:000224e0       ?_Mylast@?$_Vector_alloc@U?$_Vec_base_types@HV?$allocator@H@std@@@std@@@std@@QBEABQAHXZ 004424e0 f i CommonPathfindingLib:Grid.obj
 0002:00022540       ?_Myproxy@?$_Vector_alloc@U?$_Vec_base_types@HV?$allocator@H@std@@@std@@@std@@QAEAAPAU_Container_proxy@2@XZ 00442540 f i CommonPathfindingLib:Grid.obj
 0002:00022590       ?_Orphan_all@?$_Vector_alloc@U?$_Vec_base_types@HV?$allocator@H@std@@@std@@@std@@QAEXXZ 00442590 f i CommonPathfindingLib:Grid.obj
 0002:000225f0       ?_Orphan_range@?$vector@HV?$allocator@H@std@@@std@@ABEXPAH0@Z 004425f0 f i CommonPathfindingLib:Grid.obj
 0002:00022760       ?_Swap_all@?$_Vector_alloc@U?$_Vec_base_types@HV?$allocator@H@std@@@std@@@std@@QAEXAAV12@@Z 00442760 f i CommonPathfindingLib:Grid.obj
 0002:000227d0       ?_Swap_all@_Container_base12@std@@QAEXAAU12@@Z 004427d0 f i CommonPathfindingLib:Grid.obj
 0002:00022900       ?_Tidy@?$vector@HV?$allocator@H@std@@@std@@AAEXXZ 00442900 f i CommonPathfindingLib:Grid.obj
 0002:000229f0       ?_Umove_if_noexcept1@?$vector@HV?$allocator@H@std@@@std@@AAEXPAH00U?$integral_constant@_N$00@2@@Z 004429f0 f i CommonPathfindingLib:Grid.obj
 0002:00022a60       ?_Umove_if_noexcept@?$vector@HV?$allocator@H@std@@@std@@AAEXPAH00@Z 00442a60 f i CommonPathfindingLib:Grid.obj
 0002:00022ae0       ?_Xlength@?$vector@HV?$allocator@H@std@@@std@@CAXXZ 00442ae0 f i CommonPathfindingLib:Grid.obj
 0002:00022b30       ?allocate@?$allocator@H@std@@QAEPAHI@Z 00442b30 f i CommonPathfindingLib:Grid.obj
 0002:00022b90       ?capacity@?$vector@HV?$allocator@H@std@@@std@@QBEIXZ 00442b90 f i CommonPathfindingLib:Grid.obj
 0002:00022c00       ?deallocate@?$allocator@H@std@@QAEXQAHI@Z 00442c00 f i CommonPathfindingLib:Grid.obj
 0002:00022c60       ?getAdjacentIndices@Grid@@QBE?AV?$vector@HV?$allocator@H@std@@@std@@H@Z 00442c60 f   CommonPathfindingLib:Grid.obj
 0002:00022e40       ?getSquareIndexFromPixelXY@Grid@@QBEHHH@Z 00442e40 f   CommonPathfindingLib:Grid.obj
 0002:00022eb0       ?getULCornerOfSquare@Grid@@QBE?AVVector2D@@H@Z 00442eb0 f   CommonPathfindingLib:Grid.obj
 0002:00023010       ?getValueAtIndex@Grid@@QBEHH@Z 00443010 f   CommonPathfindingLib:Grid.obj
 0002:00023080       ?getValueAtPixelXY@Grid@@QBEHHH@Z 00443080 f   CommonPathfindingLib:Grid.obj
 0002:000230f0       ?load@Grid@@QAEXAAV?$basic_ifstream@DU?$char_traits@D@std@@@std@@@Z 004430f0 f   CommonPathfindingLib:Grid.obj
 0002:000231a0       ?max_size@?$_Default_allocator_traits@V?$allocator@H@std@@@std@@SAIABV?$allocator@H@2@@Z 004431a0 f i CommonPathfindingLib:Grid.obj
 0002:000231e0       ?max_size@?$vector@HV?$allocator@H@std@@@std@@QBEIXZ 004431e0 f i CommonPathfindingLib:Grid.obj
 0002:00023270       ?push_back@?$vector@HV?$allocator@H@std@@@std@@QAEXABH@Z 00443270 f i CommonPathfindingLib:Grid.obj
 0002:000232d0       ?save@Grid@@QAEXAAV?$basic_ofstream@DU?$char_traits@D@std@@@std@@@Z 004432d0 f   CommonPathfindingLib:Grid.obj
 0002:00023390       ?setValueAtIndex@Grid@@QAEXHH@Z 00443390 f   CommonPathfindingLib:Grid.obj
 0002:00023400       ?setValueAtPixelXY@Grid@@QAEXHHH@Z 00443400 f   CommonPathfindingLib:Grid.obj
 0002:00023480       ?size@?$vector@HV?$allocator@H@std@@@std@@QBEIXZ 00443480 f i CommonPathfindingLib:Grid.obj
 0002:000234f0       ??$?0$$V@?$_Compressed_pair@V?$allocator@U?$_Tree_node@U?$pair@$$CBUALLEGRO_COLOR@@V?$vector@HV?$allocator@H@std@@@std@@@std@@PAX@std@@@std@@V?$_Tree_val@U?$_Tree_simple_types@U?$pair@$$CBUALLEGRO_COLOR@@V?$vector@HV?$allocator@H@std@@@std@@@std@@@std@@@2@$00@std@@QAE@U_Zero_then_variadic_args_t@1@@Z 004434f0 f i CommonPathfindingLib:GridVisualizer.obj
 0002:00023550       ??$?0AAV?$_Tree_iterator@V?$_Tree_val@U?$_Tree_simple_types@U?$pair@$$CBUALLEGRO_COLOR@@V?$vector@HV?$allocator@H@std@@@std@@@std@@@std@@@std@@@std@@_NX$0A@@?$pair@V?$_Tree_iterator@V?$_Tree_val@U?$_Tree_simple_types@U?$pair@$$CBUALLEGRO_COLOR@@V?$vector@HV?$allocator@H@std@@@std@@@std@@@std@@@std@@@std@@_N@std@@QAE@AAV?$_Tree_iterator@V?$_Tree_val@U?$_Tree_simple_types@U?$pair@$$CBUALLEGRO_COLOR@@V?$vector@HV?$allocator@H@std@@@std@@@std@@@std@@@std@@@1@$$QA_N@Z 00443550 f i CommonPathfindingLib:GridVisualizer.obj
 0002:000235d0       ??$?0ABUALLEGRO_COLOR@@$$Z$$V@?$pair@$$CBUALLEGRO_COLOR@@V?$vector@HV?$allocator@H@std@@@std@@@std@@QAE@Upiecewise_construct_t@1@V?$tuple@ABUALLEGRO_COLOR@@@1@V?$tuple@$$V@1@@Z 004435d0 f i CommonPathfindingLib:GridVisualizer.obj
 0002:00023650       ??$?0ABUALLEGRO_COLOR@@$0A@@?$tuple@ABUALLEGRO_COLOR@@@std@@QAE@ABUALLEGRO_COLOR@@@Z 00443650 f i CommonPathfindingLib:GridVisualizer.obj
 0002:000236c0       ??$?0ABUALLEGRO_COLOR@@@?$_Tuple_val@ABUALLEGRO_COLOR@@@std@@QAE@ABUALLEGRO_COLOR@@@Z 004436c0 f i CommonPathfindingLib:GridVisualizer.obj
 0002:00023720       ??$?0ABVAllegroColorCompare@@U_Zero_then_variadic_args_t@std@@@?$_Compressed_pair@VAllegroColorCompare@@V?$_Compressed_pair@V?$allocator@U?$_Tree_node@U?$pair@$$CBUALLEGRO_COLOR@@V?$vector@HV?$allocator@H@std@@@std@@@std@@PAX@std@@@std@@V?$_Tree_val@U?$_Tree_simple_types@U?$pair@$$CBUALLEGRO_COLOR@@V?$vector@HV?$allocator@H@std@@@std@@@std@@@std@@@2@$00@std@@$00@std@@QAE@U_One_then_variadic_args_t@1@ABVAllegroColorCompare@@$$QAU_Zero_then_variadic_args_t@1@@Z 00443720 f i CommonPathfindingLib:GridVisualizer.obj
 0002:000237a0       ??$?0U?$_Tree_node@U?$pair@$$CBUALLEGRO_COLOR@@V?$vector@HV?$allocator@H@std@@@std@@@std@@PAX@std@@@?$allocator@U_Container_proxy@std@@@std@@QAE@ABV?$allocator@U?$_Tree_node@U?$pair@$$CBUALLEGRO_COLOR@@V?$vector@HV?$allocator@H@std@@@std@@@std@@PAX@std@@@1@@Z 004437a0 f i CommonPathfindingLib:GridVisualizer.obj
 0002:000237e0       ??$?0U_Exact_args_t@std@@ABUALLEGRO_COLOR@@$$V$0A@@?$tuple@ABUALLEGRO_COLOR@@@std@@QAE@U_Exact_args_t@1@ABUALLEGRO_COLOR@@@Z 004437e0 f i CommonPathfindingLib:GridVisualizer.obj
 0002:00023870       ??$?0V?$_Tree_iterator@V?$_Tree_val@U?$_Tree_simple_types@U?$pair@$$CBUALLEGRO_COLOR@@V?$vector@HV?$allocator@H@std@@@std@@@std@@@std@@@std@@@std@@_NX$0A@@?$pair@V?$_Tree_iterator@V?$_Tree_val@U?$_Tree_simple_types@U?$pair@$$CBUALLEGRO_COLOR@@V?$vector@HV?$allocator@H@std@@@std@@@std@@@std@@@std@@@std@@_N@std@@QAE@$$QAV?$_Tree_iterator@V?$_Tree_val@U?$_Tree_simple_types@U?$pair@$$CBUALLEGRO_COLOR@@V?$vector@HV?$allocator@H@std@@@std@@@std@@@std@@@std@@@1@$$QA_N@Z 00443870 f i CommonPathfindingLib:GridVisualizer.obj
 0002:000238f0       ??$?0V?$tuple@ABUALLEGRO_COLOR@@@std@@V?$tuple@$$V@1@$0A@$$Z$S@?$pair@$$CBUALLEGRO_COLOR@@V?$vector@HV?$allocator@H@std@@@std@@@std@@QAE@AAV?$tuple@ABUALLEGRO_COLOR@@@1@AAV?$tuple@$$V@1@U?$integer_sequence@I$0A@@1@U?$integer_sequence@I$S@1@@Z 004438f0 f i CommonPathfindingLib:GridVisualizer.obj
 0002:00023990       ??$_Advance1@PAHH@std@@YAXAAPAHHUrandom_access_iterator_tag@0@@Z 00443990 f i CommonPathfindingLib:GridVisualizer.obj
 0002:000239e0       ??$_Assign_range@PAH@?$vector@HV?$allocator@H@std@@@std@@AAEXPAH0Uforward_iterator_tag@1@@Z 004439e0 f i CommonPathfindingLib:GridVisualizer.obj
 0002:00023c30       ??$_Buynode@ABUpiecewise_construct_t@std@@V?$tuple@ABUALLEGRO_COLOR@@@2@V?$tuple@$$V@2@@?$_Tree_comp_alloc@V?$_Tmap_traits@UALLEGRO_COLOR@@V?$vector@HV?$allocator@H@std@@@std@@VAllegroColorCompare@@V?$allocator@U?$pair@$$CBUALLEGRO_COLOR@@V?$vector@HV?$allocator@H@std@@@std@@@std@@@3@$0A@@std@@@std@@QAEPAU?$_Tree_node@U?$pair@$$CBUALLEGRO_COLOR@@V?$vector@HV?$allocator@H@std@@@std@@@std@@PAX@1@ABUpiecewise_construct_t@1@$$QAV?$tuple@ABUALLEGRO_COLOR@@@1@$$QAV?$tuple@$$V@1@@Z 00443c30 f i CommonPathfindingLib:GridVisualizer.obj
 0002:00023d70       ??$_Buynode_if_nil@AAU?$pair@$$CBUALLEGRO_COLOR@@V?$vector@HV?$allocator@H@std@@@std@@@std@@@?$_Tree@V?$_Tmap_traits@UALLEGRO_COLOR@@V?$vector@HV?$allocator@H@std@@@std@@VAllegroColorCompare@@V?$allocator@U?$pair@$$CBUALLEGRO_COLOR@@V?$vector@HV?$allocator@H@std@@@std@@@std@@@3@$0A@@std@@@std@@IAEPAU?$_Tree_node@U?$pair@$$CBUALLEGRO_COLOR@@V?$vector@HV?$allocator@H@std@@@std@@@std@@PAX@1@PAU21@AAU?$pair@$$CBUALLEGRO_COLOR@@V?$vector@HV?$allocator@H@std@@@std@@@1@@Z 00443d70 f i CommonPathfindingLib:GridVisualizer.obj
 0002:00023db0       ??$_Copy_unchecked1@PAHPAH@std@@YAPAHPAH00U_Trivially_copyable_ptr_iterator_tag@0@@Z 00443db0 f i CommonPathfindingLib:GridVisualizer.obj
 0002:00023e10       ??$_Copy_unchecked@PAHPAH@std@@YAPAHPAH00@Z 00443e10 f i CommonPathfindingLib:GridVisualizer.obj
 0002:00023e90       ??$_Debug_lt_pred@AAVAllegroColorCompare@@ABUALLEGRO_COLOR@@ABU2@@std@@YA_NAAVAllegroColorCompare@@ABUALLEGRO_COLOR@@1PB_WI@Z 00443e90 f i CommonPathfindingLib:GridVisualizer.obj
 0002:00023f90       ??$_Debug_lt_pred@ABVAllegroColorCompare@@ABUALLEGRO_COLOR@@ABU2@@std@@YA_NABVAllegroColorCompare@@ABUALLEGRO_COLOR@@1PB_WI@Z 00443f90 f i CommonPathfindingLib:GridVisualizer.obj
 0002:00024090       ??$_Debug_range2@PAH@std@@YAXPAH0PB_WIUrandom_access_iterator_tag@0@@Z 00444090 f i CommonPathfindingLib:GridVisualizer.obj
 0002:00024130       ??$_Debug_range@PAH@std@@YAXPAH0PB_WI@Z 00444130 f i CommonPathfindingLib:GridVisualizer.obj
 0002:000241a0       ??$_Distance1@PAH@std@@YAHPAH0Urandom_access_iterator_tag@0@@Z 004441a0 f i CommonPathfindingLib:GridVisualizer.obj
 0002:000241e0       ??$_Insert_at@AAU?$pair@$$CBUALLEGRO_COLOR@@V?$vector@HV?$allocator@H@std@@@std@@@std@@PAU?$_Tree_node@U?$pair@$$CBUALLEGRO_COLOR@@V?$vector@HV?$allocator@H@std@@@std@@@std@@PAX@2@@?$_Tree@V?$_Tmap_traits@UALLEGRO_COLOR@@V?$vector@HV?$allocator@H@std@@@std@@VAllegroColorCompare@@V?$allocator@U?$pair@$$CBUALLEGRO_COLOR@@V?$vector@HV?$allocator@H@std@@@std@@@std@@@3@$0A@@std@@@std@@IAE?AV?$_Tree_iterator@V?$_Tree_val@U?$_Tree_simple_types@U?$pair@$$CBUALLEGRO_COLOR@@V?$vector@HV?$allocator@H@std@@@std@@@std@@@std@@@std@@@1@_NPAU?$_Tree_node@U?$pair@$$CBUALLEGRO_COLOR@@V?$vector@HV?$allocator@H@std@@@std@@@std@@PAX@1@AAU?$pair@$$CBUALLEGRO_COLOR@@V?$vector@HV?$allocator@H@std@@@std@@@1@1@Z 004441e0 f i CommonPathfindingLib:GridVisualizer.obj
 0002:00024580       ??$_Insert_hint@AAU?$pair@$$CBUALLEGRO_COLOR@@V?$vector@HV?$allocator@H@std@@@std@@@std@@PAU?$_Tree_node@U?$pair@$$CBUALLEGRO_COLOR@@V?$vector@HV?$allocator@H@std@@@std@@@std@@PAX@2@@?$_Tree@V?$_Tmap_traits@UALLEGRO_COLOR@@V?$vector@HV?$allocator@H@std@@@std@@VAllegroColorCompare@@V?$allocator@U?$pair@$$CBUALLEGRO_COLOR@@V?$vector@HV?$allocator@H@std@@@std@@@std@@@3@$0A@@std@@@std@@IAE?AV?$_Tree_iterator@V?$_Tree_val@U?$_Tree_simple_types@U?$pair@$$CBUALLEGRO_COLOR@@V?$vector@HV?$allocator@H@std@@@std@@@std@@@std@@@std@@@1@V?$_Tree_const_iterator@V?$_Tree_val@U?$_Tree_simple_types@U?$pair@$$CBUALLEGRO_COLOR@@V?$vector@HV?$allocator@H@std@@@std@@@std@@@std@@@std@@@1@AAU?$pair@$$CBUALLEGRO_COLOR@@V?$vector@HV?$allocator@H@std@@@std@@@1@PAU?$_Tree_node@U?$pair@$$CBUALLEGRO_COLOR@@V?$vector@HV?$allocator@H@std@@@std@@@std@@PAX@1@@Z 00444580 f i CommonPathfindingLib:GridVisualizer.obj
 0002:000259e0       ??$_Insert_nohint@AAU?$pair@$$CBUALLEGRO_COLOR@@V?$vector@HV?$allocator@H@std@@@std@@@std@@PAU?$_Tree_node@U?$pair@$$CBUALLEGRO_COLOR@@V?$vector@HV?$allocator@H@std@@@std@@@std@@PAX@2@@?$_Tree@V?$_Tmap_traits@UALLEGRO_COLOR@@V?$vector@HV?$allocator@H@std@@@std@@VAllegroColorCompare@@V?$allocator@U?$pair@$$CBUALLEGRO_COLOR@@V?$vector@HV?$allocator@H@std@@@std@@@std@@@3@$0A@@std@@@std@@IAE?AU?$pair@V?$_Tree_iterator@V?$_Tree_val@U?$_Tree_simple_types@U?$pair@$$CBUALLEGRO_COLOR@@V?$vector@HV?$allocator@H@std@@@std@@@std@@@std@@@std@@@std@@_N@1@_NAAU?$pair@$$CBUALLEGRO_COLOR@@V?$vector@HV?$allocator@H@std@@@std@@@1@PAU?$_Tree_node@U?$pair@$$CBUALLEGRO_COLOR@@V?$vector@HV?$allocator@H@std@@@std@@@std@@PAX@1@@Z 004459e0 f i CommonPathfindingLib:GridVisualizer.obj
 0002:00026010       ??$_Kfn@$$CBUALLEGRO_COLOR@@V?$vector@HV?$allocator@H@std@@@std@@@?$_Tmap_traits@UALLEGRO_COLOR@@V?$vector@HV?$allocator@H@std@@@std@@VAllegroColorCompare@@V?$allocator@U?$pair@$$CBUALLEGRO_COLOR@@V?$vector@HV?$allocator@H@std@@@std@@@std@@@3@$0A@@std@@SAABUALLEGRO_COLOR@@ABU?$pair@$$CBUALLEGRO_COLOR@@V?$vector@HV?$allocator@H@std@@@std@@@1@@Z 00446010 f i CommonPathfindingLib:GridVisualizer.obj
 0002:00026050       ??$_Lbound@UALLEGRO_COLOR@@@?$_Tree@V?$_Tmap_traits@UALLEGRO_COLOR@@V?$vector@HV?$allocator@H@std@@@std@@VAllegroColorCompare@@V?$allocator@U?$pair@$$CBUALLEGRO_COLOR@@V?$vector@HV?$allocator@H@std@@@std@@@std@@@3@$0A@@std@@@std@@IBEPAU?$_Tree_node@U?$pair@$$CBUALLEGRO_COLOR@@V?$vector@HV?$allocator@H@std@@@std@@@std@@PAX@1@ABUALLEGRO_COLOR@@@Z 00446050 f i CommonPathfindingLib:GridVisualizer.obj
 0002:00026120       ??$_Pocca@V?$allocator@H@std@@@std@@YAXAAV?$allocator@H@0@ABV10@@Z 00446120 f i CommonPathfindingLib:GridVisualizer.obj
 0002:000261b0       ??$_Pocca@V?$allocator@H@std@@@std@@YAXAAV?$allocator@H@0@ABV10@U?$integral_constant@_N$0A@@0@@Z 004461b0 f i CommonPathfindingLib:GridVisualizer.obj
 0002:000261e0       ??$_Ptr_copy_cat@HH@std@@YA?AU_Really_trivial_ptr_iterator_tag@0@ABQAH0@Z 004461e0 f i CommonPathfindingLib:GridVisualizer.obj
 0002:00026220       ??$_Try_emplace@ABUALLEGRO_COLOR@@$$V@?$map@UALLEGRO_COLOR@@V?$vector@HV?$allocator@H@std@@@std@@VAllegroColorCompare@@V?$allocator@U?$pair@$$CBUALLEGRO_COLOR@@V?$vector@HV?$allocator@H@std@@@std@@@std@@@3@@std@@QAE?AU?$pair@V?$_Tree_iterator@V?$_Tree_val@U?$_Tree_simple_types@U?$pair@$$CBUALLEGRO_COLOR@@V?$vector@HV?$allocator@H@std@@@std@@@std@@@std@@@std@@@std@@_N@1@ABUALLEGRO_COLOR@@@Z 00446220 f i CommonPathfindingLib:GridVisualizer.obj
 0002:00026560       ??$_Ucopy@PAH@?$vector@HV?$allocator@H@std@@@std@@AAEPAHPAH00@Z 00446560 f i CommonPathfindingLib:GridVisualizer.obj
 0002:000265d0       ??$_Uninitialized_copy@PAHPAHV?$allocator@H@std@@@std@@YAPAHPAH00AAV?$allocator@H@0@@Z 004465d0 f i CommonPathfindingLib:GridVisualizer.obj
 0002:00026700       ??$_Uninitialized_copy_al_unchecked@HHV?$allocator@H@std@@@std@@YAPAHPAH00AAV?$allocator@H@0@U_Really_trivial_ptr_iterator_tag@0@U?$integral_constant@_N$00@0@@Z 00446700 f i CommonPathfindingLib:GridVisualizer.obj
 0002:00026760       ??$addressof@$$CBV?$vector@HV?$allocator@H@std@@@std@@@std@@YAPBV?$vector@HV?$allocator@H@std@@@0@ABV10@@Z 00446760 f i CommonPathfindingLib:GridVisualizer.obj
 0002:000267a0       ??$addressof@PAU?$_Tree_node@U?$pair@$$CBUALLEGRO_COLOR@@V?$vector@HV?$allocator@H@std@@@std@@@std@@PAX@std@@@std@@YAPAPAU?$_Tree_node@U?$pair@$$CBUALLEGRO_COLOR@@V?$vector@HV?$allocator@H@std@@@std@@@std@@PAX@0@AAPAU10@@Z 004467a0 f i CommonPathfindingLib:GridVisualizer.obj
 0002:000267e0       ??$addressof@U?$pair@$$CBUALLEGRO_COLOR@@V?$vector@HV?$allocator@H@std@@@std@@@std@@@std@@YAPAU?$pair@$$CBUALLEGRO_COLOR@@V?$vector@HV?$allocator@H@std@@@std@@@0@AAU10@@Z 004467e0 f i CommonPathfindingLib:GridVisualizer.obj
 0002:00026820       ??$addressof@V?$_Tree_val@U?$_Tree_simple_types@U?$pair@$$CBUALLEGRO_COLOR@@V?$vector@HV?$allocator@H@std@@@std@@@std@@@std@@@std@@@std@@YAPAV?$_Tree_val@U?$_Tree_simple_types@U?$pair@$$CBUALLEGRO_COLOR@@V?$vector@HV?$allocator@H@std@@@std@@@std@@@std@@@0@AAV10@@Z 00446820 f i CommonPathfindingLib:GridVisualizer.obj
 0002:00026860       ??$advance@PAHH@std@@YAXAAPAHH@Z 00446860 f i CommonPathfindingLib:GridVisualizer.obj
 0002:000268c0       ??$assign@PAHX@?$vector@HV?$allocator@H@std@@@std@@QAEXPAH0@Z 004468c0 f i CommonPathfindingLib:GridVisualizer.obj
 0002:00026960       ??$construct@PAU?$_Tree_node@U?$pair@$$CBUALLEGRO_COLOR@@V?$vector@HV?$allocator@H@std@@@std@@@std@@PAX@std@@AAPAU12@@?$_Default_allocator_traits@V?$allocator@U?$_Tree_node@U?$pair@$$CBUALLEGRO_COLOR@@V?$vector@HV?$allocator@H@std@@@std@@@std@@PAX@std@@@std@@@std@@SAXAAV?$allocator@U?$_Tree_node@U?$pair@$$CBUALLEGRO_COLOR@@V?$vector@HV?$allocator@H@std@@@std@@@std@@PAX@std@@@1@QAPAU?$_Tree_node@U?$pair@$$CBUALLEGRO_COLOR@@V?$vector@HV?$allocator@H@std@@@std@@@std@@PAX@1@AAPAU31@@Z 00446960 f i CommonPathfindingLib:GridVisualizer.obj
 0002:000269e0       ??$construct@U?$pair@$$CBUALLEGRO_COLOR@@V?$vector@HV?$allocator@H@std@@@std@@@std@@ABUpiecewise_construct_t@2@V?$tuple@ABUALLEGRO_COLOR@@@2@V?$tuple@$$V@2@@?$_Default_allocator_traits@V?$allocator@U?$_Tree_node@U?$pair@$$CBUALLEGRO_COLOR@@V?$vector@HV?$allocator@H@std@@@std@@@std@@PAX@std@@@std@@@std@@SAXAAV?$allocator@U?$_Tree_node@U?$pair@$$CBUALLEGRO_COLOR@@V?$vector@HV?$allocator@H@std@@@std@@@std@@PAX@std@@@1@QAU?$pair@$$CBUALLEGRO_COLOR@@V?$vector@HV?$allocator@H@std@@@std@@@1@ABUpiecewise_construct_t@1@$$QAV?$tuple@ABUALLEGRO_COLOR@@@1@$$QAV?$tuple@$$V@1@@Z 004469e0 f i CommonPathfindingLib:GridVisualizer.obj
 0002:00026b00       ??$destroy@PAU?$_Tree_node@U?$pair@$$CBUALLEGRO_COLOR@@V?$vector@HV?$allocator@H@std@@@std@@@std@@PAX@std@@@?$_Default_allocator_traits@V?$allocator@U?$_Tree_node@U?$pair@$$CBUALLEGRO_COLOR@@V?$vector@HV?$allocator@H@std@@@std@@@std@@PAX@std@@@std@@@std@@SAXAAV?$allocator@U?$_Tree_node@U?$pair@$$CBUALLEGRO_COLOR@@V?$vector@HV?$allocator@H@std@@@std@@@std@@PAX@std@@@1@QAPAU?$_Tree_node@U?$pair@$$CBUALLEGRO_COLOR@@V?$vector@HV?$allocator@H@std@@@std@@@std@@PAX@1@@Z 00446b00 f i CommonPathfindingLib:GridVisualizer.obj
 0002:00026b30       ??$destroy@U?$pair@$$CBUALLEGRO_COLOR@@V?$vector@HV?$allocator@H@std@@@std@@@std@@@?$_Default_allocator_traits@V?$allocator@U?$_Tree_node@U?$pair@$$CBUALLEGRO_COLOR@@V?$vector@HV?$allocator@H@std@@@std@@@std@@PAX@std@@@std@@@std@@SAXAAV?$allocator@U?$_Tree_node@U?$pair@$$CBUALLEGRO_COLOR@@V?$vector@HV?$allocator@H@std@@@std@@@std@@PAX@std@@@1@QAU?$pair@$$CBUALLEGRO_COLOR@@V?$vector@HV?$allocator@H@std@@@std@@@1@@Z 00446b30 f i CommonPathfindingLib:GridVisualizer.obj
 0002:00026b80       ??$distance@PAH@std@@YAHPAH0@Z 00446b80 f i CommonPathfindingLib:GridVisualizer.obj
 0002:00026be0       ??$emplace_hint@ABUpiecewise_construct_t@std@@V?$tuple@ABUALLEGRO_COLOR@@@2@V?$tuple@$$V@2@@?$_Tree@V?$_Tmap_traits@UALLEGRO_COLOR@@V?$vector@HV?$allocator@H@std@@@std@@VAllegroColorCompare@@V?$allocator@U?$pair@$$CBUALLEGRO_COLOR@@V?$vector@HV?$allocator@H@std@@@std@@@std@@@3@$0A@@std@@@std@@QAE?AV?$_Tree_iterator@V?$_Tree_val@U?$_Tree_simple_types@U?$pair@$$CBUALLEGRO_COLOR@@V?$vector@HV?$allocator@H@std@@@std@@@std@@@std@@@std@@@1@V?$_Tree_const_iterator@V?$_Tree_val@U?$_Tree_simple_types@U?$pair@$$CBUALLEGRO_COLOR@@V?$vector@HV?$allocator@H@std@@@std@@@std@@@std@@@std@@@1@ABUpiecewise_construct_t@1@$$QAV?$tuple@ABUALLEGRO_COLOR@@@1@$$QAV?$tuple@$$V@1@@Z 00446be0 f i CommonPathfindingLib:GridVisualizer.obj
 0002:00026d20       ??$erase@V?$_Tree_iterator@V?$_Tree_val@U?$_Tree_simple_types@U?$pair@$$CBUALLEGRO_COLOR@@V?$vector@HV?$allocator@H@std@@@std@@@std@@@std@@@std@@@std@@X@?$_Tree@V?$_Tmap_traits@UALLEGRO_COLOR@@V?$vector@HV?$allocator@H@std@@@std@@VAllegroColorCompare@@V?$allocator@U?$pair@$$CBUALLEGRO_COLOR@@V?$vector@HV?$allocator@H@std@@@std@@@std@@@3@$0A@@std@@@std@@QAE?AV?$_Tree_iterator@V?$_Tree_val@U?$_Tree_simple_types@U?$pair@$$CBUALLEGRO_COLOR@@V?$vector@HV?$allocator@H@std@@@std@@@std@@@std@@@std@@@1@V21@@Z 00446d20 f i CommonPathfindingLib:GridVisualizer.obj
 0002:00026e10       ??$forward@AAPAU?$_Tree_node@U?$pair@$$CBUALLEGRO_COLOR@@V?$vector@HV?$allocator@H@std@@@std@@@std@@PAX@std@@@std@@YAAAPAU?$_Tree_node@U?$pair@$$CBUALLEGRO_COLOR@@V?$vector@HV?$allocator@H@std@@@std@@@std@@PAX@0@AAPAU10@@Z 00446e10 f i CommonPathfindingLib:GridVisualizer.obj
 0002:00026e50       ??$forward@AAU?$pair@$$CBUALLEGRO_COLOR@@V?$vector@HV?$allocator@H@std@@@std@@@std@@@std@@YAAAU?$pair@$$CBUALLEGRO_COLOR@@V?$vector@HV?$allocator@H@std@@@std@@@0@AAU10@@Z 00446e50 f i CommonPathfindingLib:GridVisualizer.obj
 0002:00026e90       ??$forward@AAV?$_Tree_iterator@V?$_Tree_val@U?$_Tree_simple_types@U?$pair@$$CBUALLEGRO_COLOR@@V?$vector@HV?$allocator@H@std@@@std@@@std@@@std@@@std@@@std@@@std@@YAAAV?$_Tree_iterator@V?$_Tree_val@U?$_Tree_simple_types@U?$pair@$$CBUALLEGRO_COLOR@@V?$vector@HV?$allocator@H@std@@@std@@@std@@@std@@@std@@@0@AAV10@@Z 00446e90 f i CommonPathfindingLib:GridVisualizer.obj
 0002:00026ed0       ??$forward@ABUALLEGRO_COLOR@@@std@@YAABUALLEGRO_COLOR@@ABU1@@Z 00446ed0 f i CommonPathfindingLib:GridVisualizer.obj
 0002:00026f10       ??$forward@ABVAllegroColorCompare@@@std@@YAABVAllegroColorCompare@@ABV1@@Z 00446f10 f i CommonPathfindingLib:GridVisualizer.obj
 0002:00026f50       ??$forward@V?$_Tree_iterator@V?$_Tree_val@U?$_Tree_simple_types@U?$pair@$$CBUALLEGRO_COLOR@@V?$vector@HV?$allocator@H@std@@@std@@@std@@@std@@@std@@@std@@@std@@YA$$QAV?$_Tree_iterator@V?$_Tree_val@U?$_Tree_simple_types@U?$pair@$$CBUALLEGRO_COLOR@@V?$vector@HV?$allocator@H@std@@@std@@@std@@@std@@@std@@@0@AAV10@@Z 00446f50 f i CommonPathfindingLib:GridVisualizer.obj
 0002:00026f90       ??$forward@V?$tuple@ABUALLEGRO_COLOR@@@std@@@std@@YA$$QAV?$tuple@ABUALLEGRO_COLOR@@@0@AAV10@@Z 00446f90 f i CommonPathfindingLib:GridVisualizer.obj
 0002:00026fd0       ??$forward_as_tuple@ABUALLEGRO_COLOR@@@std@@YA?AV?$tuple@ABUALLEGRO_COLOR@@@0@ABUALLEGRO_COLOR@@@Z 00446fd0 f i CommonPathfindingLib:GridVisualizer.obj
 0002:00027070       ??$get@$0A@ABUALLEGRO_COLOR@@@std@@YAABUALLEGRO_COLOR@@$$QAV?$tuple@ABUALLEGRO_COLOR@@@0@@Z 00447070 f i CommonPathfindingLib:GridVisualizer.obj
 0002:000270c0       ??$move@AAV?$tuple@ABUALLEGRO_COLOR@@@std@@@std@@YA$$QAV?$tuple@ABUALLEGRO_COLOR@@@0@AAV10@@Z 004470c0 f i CommonPathfindingLib:GridVisualizer.obj
 0002:00027100       ??$next@PAH@std@@YAPAHPAHH@Z 00447100 f i CommonPathfindingLib:GridVisualizer.obj
 0002:00027160       ??$try_emplace@$$V@?$map@UALLEGRO_COLOR@@V?$vector@HV?$allocator@H@std@@@std@@VAllegroColorCompare@@V?$allocator@U?$pair@$$CBUALLEGRO_COLOR@@V?$vector@HV?$allocator@H@std@@@std@@@std@@@3@@std@@QAE?AU?$pair@V?$_Tree_iterator@V?$_Tree_val@U?$_Tree_simple_types@U?$pair@$$CBUALLEGRO_COLOR@@V?$vector@HV?$allocator@H@std@@@std@@@std@@@std@@@std@@@std@@_N@1@ABUALLEGRO_COLOR@@@Z 00447160 f i CommonPathfindingLib:GridVisualizer.obj
 0002:000271e0       ??0?$_Tree@V?$_Tmap_traits@UALLEGRO_COLOR@@V?$vector@HV?$allocator@H@std@@@std@@VAllegroColorCompare@@V?$allocator@U?$pair@$$CBUALLEGRO_COLOR@@V?$vector@HV?$allocator@H@std@@@std@@@std@@@3@$0A@@std@@@std@@QAE@ABVAllegroColorCompare@@@Z 004471e0 f i CommonPathfindingLib:GridVisualizer.obj
 0002:00027240       ??0?$_Tree_comp_alloc@V?$_Tmap_traits@UALLEGRO_COLOR@@V?$vector@HV?$allocator@H@std@@@std@@VAllegroColorCompare@@V?$allocator@U?$pair@$$CBUALLEGRO_COLOR@@V?$vector@HV?$allocator@H@std@@@std@@@std@@@3@$0A@@std@@@std@@QAE@ABVAllegroColorCompare@@@Z 00447240 f i CommonPathfindingLib:GridVisualizer.obj
 0002:00027300       ??0?$_Tree_const_iterator@V?$_Tree_val@U?$_Tree_simple_types@U?$pair@$$CBUALLEGRO_COLOR@@V?$vector@HV?$allocator@H@std@@@std@@@std@@@std@@@std@@@std@@QAE@$$QAV01@@Z 00447300 f i CommonPathfindingLib:GridVisualizer.obj
 0002:00027360       ??0?$_Tree_const_iterator@V?$_Tree_val@U?$_Tree_simple_types@U?$pair@$$CBUALLEGRO_COLOR@@V?$vector@HV?$allocator@H@std@@@std@@@std@@@std@@@std@@@std@@QAE@ABV01@@Z 00447360 f i CommonPathfindingLib:GridVisualizer.obj
 0002:000273c0       ??0?$_Tree_const_iterator@V?$_Tree_val@U?$_Tree_simple_types@U?$pair@$$CBUALLEGRO_COLOR@@V?$vector@HV?$allocator@H@std@@@std@@@std@@@std@@@std@@@std@@QAE@PAU?$_Tree_node@U?$pair@$$CBUALLEGRO_COLOR@@V?$vector@HV?$allocator@H@std@@@std@@@std@@PAX@1@PBV?$_Tree_val@U?$_Tree_simple_types@U?$pair@$$CBUALLEGRO_COLOR@@V?$vector@HV?$allocator@H@std@@@std@@@std@@@std@@@1@@Z 004473c0 f i CommonPathfindingLib:GridVisualizer.obj
 0002:00027420       ??0?$_Tree_const_iterator@V?$_Tree_val@U?$_Tree_simple_types@U?$pair@$$CBUALLEGRO_COLOR@@V?$vector@HV?$allocator@H@std@@@std@@@std@@@std@@@std@@@std@@QAE@XZ 00447420 f i CommonPathfindingLib:GridVisualizer.obj
 0002:00027480       ??0?$_Tree_iterator@V?$_Tree_val@U?$_Tree_simple_types@U?$pair@$$CBUALLEGRO_COLOR@@V?$vector@HV?$allocator@H@std@@@std@@@std@@@std@@@std@@@std@@QAE@$$QAV01@@Z 00447480 f i CommonPathfindingLib:GridVisualizer.obj
 0002:000274e0       ??0?$_Tree_iterator@V?$_Tree_val@U?$_Tree_simple_types@U?$pair@$$CBUALLEGRO_COLOR@@V?$vector@HV?$allocator@H@std@@@std@@@std@@@std@@@std@@@std@@QAE@ABV01@@Z 004474e0 f i CommonPathfindingLib:GridVisualizer.obj
 0002:00027540       ??0?$_Tree_iterator@V?$_Tree_val@U?$_Tree_simple_types@U?$pair@$$CBUALLEGRO_COLOR@@V?$vector@HV?$allocator@H@std@@@std@@@std@@@std@@@std@@@std@@QAE@PAU?$_Tree_node@U?$pair@$$CBUALLEGRO_COLOR@@V?$vector@HV?$allocator@H@std@@@std@@@std@@PAX@1@PBV?$_Tree_val@U?$_Tree_simple_types@U?$pair@$$CBUALLEGRO_COLOR@@V?$vector@HV?$allocator@H@std@@@std@@@std@@@std@@@1@@Z 00447540 f i CommonPathfindingLib:GridVisualizer.obj
 0002:000275a0       ??0?$_Tree_iterator@V?$_Tree_val@U?$_Tree_simple_types@U?$pair@$$CBUALLEGRO_COLOR@@V?$vector@HV?$allocator@H@std@@@std@@@std@@@std@@@std@@@std@@QAE@XZ 004475a0 f i CommonPathfindingLib:GridVisualizer.obj
 0002:00027600       ??0?$_Tree_unchecked_const_iterator@V?$_Tree_val@U?$_Tree_simple_types@U?$pair@$$CBUALLEGRO_COLOR@@V?$vector@HV?$allocator@H@std@@@std@@@std@@@std@@@std@@U_Iterator_base12@2@@std@@QAE@$$QAV01@@Z 00447600 f i CommonPathfindingLib:GridVisualizer.obj
 0002:00027670       ??0?$_Tree_unchecked_const_iterator@V?$_Tree_val@U?$_Tree_simple_types@U?$pair@$$CBUALLEGRO_COLOR@@V?$vector@HV?$allocator@H@std@@@std@@@std@@@std@@@std@@U_Iterator_base12@2@@std@@QAE@ABV01@@Z 00447670 f i CommonPathfindingLib:GridVisualizer.obj
 0002:000276e0       ??0?$_Tree_unchecked_const_iterator@V?$_Tree_val@U?$_Tree_simple_types@U?$pair@$$CBUALLEGRO_COLOR@@V?$vector@HV?$allocator@H@std@@@std@@@std@@@std@@@std@@U_Iterator_base12@2@@std@@QAE@PAU?$_Tree_node@U?$pair@$$CBUALLEGRO_COLOR@@V?$vector@HV?$allocator@H@std@@@std@@@std@@PAX@1@PBV?$_Tree_val@U?$_Tree_simple_types@U?$pair@$$CBUALLEGRO_COLOR@@V?$vector@HV?$allocator@H@std@@@std@@@std@@@std@@@1@@Z 004476e0 f i CommonPathfindingLib:GridVisualizer.obj
 0002:00027750       ??0?$_Tree_unchecked_const_iterator@V?$_Tree_val@U?$_Tree_simple_types@U?$pair@$$CBUALLEGRO_COLOR@@V?$vector@HV?$allocator@H@std@@@std@@@std@@@std@@@std@@U_Iterator_base12@2@@std@@QAE@XZ 00447750 f i CommonPathfindingLib:GridVisualizer.obj
 0002:000277b0       ??0?$_Tree_val@U?$_Tree_simple_types@U?$pair@$$CBUALLEGRO_COLOR@@V?$vector@HV?$allocator@H@std@@@std@@@std@@@std@@@std@@QAE@XZ 004477b0 f i CommonPathfindingLib:GridVisualizer.obj
 0002:00027820       ??0?$allocator@U?$_Tree_node@U?$pair@$$CBUALLEGRO_COLOR@@V?$vector@HV?$allocator@H@std@@@std@@@std@@PAX@std@@@std@@QAE@XZ 00447820 f i CommonPathfindingLib:GridVisualizer.obj
 0002:00027860       ??0?$map@UALLEGRO_COLOR@@V?$vector@HV?$allocator@H@std@@@std@@VAllegroColorCompare@@V?$allocator@U?$pair@$$CBUALLEGRO_COLOR@@V?$vector@HV?$allocator@H@std@@@std@@@std@@@3@@std@@QAE@XZ 00447860 f i CommonPathfindingLib:GridVisualizer.obj
 0002:000278c0       ??0?$tuple@ABUALLEGRO_COLOR@@@std@@QAE@$$QAV01@@Z 004478c0 f i CommonPathfindingLib:GridVisualizer.obj
 0002:00027930       ??0?$vector@HV?$allocator@H@std@@@std@@QAE@ABV01@@Z 00447930 f i CommonPathfindingLib:GridVisualizer.obj
 0002:00027aa0       ??0GridVisualizer@@QAE@PAVGrid@@@Z 00447aa0 f   CommonPathfindingLib:GridVisualizer.obj
 0002:00027b10       ??1?$_Compressed_pair@V?$allocator@U?$_Tree_node@U?$pair@$$CBUALLEGRO_COLOR@@V?$vector@HV?$allocator@H@std@@@std@@@std@@PAX@std@@@std@@V?$_Tree_val@U?$_Tree_simple_types@U?$pair@$$CBUALLEGRO_COLOR@@V?$vector@HV?$allocator@H@std@@@std@@@std@@@std@@@2@$00@std@@QAE@XZ 00447b10 f i CommonPathfindingLib:GridVisualizer.obj
 0002:00027b60       ??1?$_Compressed_pair@VAllegroColorCompare@@V?$_Compressed_pair@V?$allocator@U?$_Tree_node@U?$pair@$$CBUALLEGRO_COLOR@@V?$vector@HV?$allocator@H@std@@@std@@@std@@PAX@std@@@std@@V?$_Tree_val@U?$_Tree_simple_types@U?$pair@$$CBUALLEGRO_COLOR@@V?$vector@HV?$allocator@H@std@@@std@@@std@@@std@@@2@$00@std@@$00@std@@QAE@XZ 00447b60 f i CommonPathfindingLib:GridVisualizer.obj
 0002:00027bb0       ??1?$_Tree@V?$_Tmap_traits@UALLEGRO_COLOR@@V?$vector@HV?$allocator@H@std@@@std@@VAllegroColorCompare@@V?$allocator@U?$pair@$$CBUALLEGRO_COLOR@@V?$vector@HV?$allocator@H@std@@@std@@@std@@@3@$0A@@std@@@std@@QAE@XZ 00447bb0 f i CommonPathfindingLib:GridVisualizer.obj
 0002:00027c40       ??1?$_Tree_comp_alloc@V?$_Tmap_traits@UALLEGRO_COLOR@@V?$vector@HV?$allocator@H@std@@@std@@VAllegroColorCompare@@V?$allocator@U?$pair@$$CBUALLEGRO_COLOR@@V?$vector@HV?$allocator@H@std@@@std@@@std@@@3@$0A@@std@@@std@@QAE@XZ 00447c40 f i CommonPathfindingLib:GridVisualizer.obj
 0002:00027cf0       ??1?$_Tree_const_iterator@V?$_Tree_val@U?$_Tree_simple_types@U?$pair@$$CBUALLEGRO_COLOR@@V?$vector@HV?$allocator@H@std@@@std@@@std@@@std@@@std@@@std@@QAE@XZ 00447cf0 f i CommonPathfindingLib:GridVisualizer.obj
 0002:00027d40       ??1?$_Tree_iterator@V?$_Tree_val@U?$_Tree_simple_types@U?$pair@$$CBUALLEGRO_COLOR@@V?$vector@HV?$allocator@H@std@@@std@@@std@@@std@@@std@@@std@@QAE@XZ 00447d40 f i CommonPathfindingLib:GridVisualizer.obj
 0002:00027d90       ??1?$_Tree_unchecked_const_iterator@V?$_Tree_val@U?$_Tree_simple_types@U?$pair@$$CBUALLEGRO_COLOR@@V?$vector@HV?$allocator@H@std@@@std@@@std@@@std@@@std@@U_Iterator_base12@2@@std@@QAE@XZ 00447d90 f i CommonPathfindingLib:GridVisualizer.obj
 0002:00027de0       ??1?$_Tree_val@U?$_Tree_simple_types@U?$pair@$$CBUALLEGRO_COLOR@@V?$vector@HV?$allocator@H@std@@@std@@@std@@@std@@@std@@QAE@XZ 00447de0 f i CommonPathfindingLib:GridVisualizer.obj
 0002:00027e30       ??1?$map@UALLEGRO_COLOR@@V?$vector@HV?$allocator@H@std@@@std@@VAllegroColorCompare@@V?$allocator@U?$pair@$$CBUALLEGRO_COLOR@@V?$vector@HV?$allocator@H@std@@@std@@@std@@@3@@std@@QAE@XZ 00447e30 f i CommonPathfindingLib:GridVisualizer.obj
 0002:00027e80       ??1?$pair@$$CBUALLEGRO_COLOR@@V?$vector@HV?$allocator@H@std@@@std@@@std@@QAE@XZ 00447e80 f i CommonPathfindingLib:GridVisualizer.obj
 0002:00027ee0       ??1?$pair@V?$_Tree_iterator@V?$_Tree_val@U?$_Tree_simple_types@U?$pair@$$CBUALLEGRO_COLOR@@V?$vector@HV?$allocator@H@std@@@std@@@std@@@std@@@std@@@std@@_N@std@@QAE@XZ 00447ee0 f i CommonPathfindingLib:GridVisualizer.obj
 0002:00027f30       ??1GridVisualizer@@QAE@XZ  00447f30 f   CommonPathfindingLib:GridVisualizer.obj
 0002:00027f90       ??4?$_Tree_const_iterator@V?$_Tree_val@U?$_Tree_simple_types@U?$pair@$$CBUALLEGRO_COLOR@@V?$vector@HV?$allocator@H@std@@@std@@@std@@@std@@@std@@@std@@QAEAAV01@$$QAV01@@Z 00447f90 f i CommonPathfindingLib:GridVisualizer.obj
 0002:00027ff0       ??4?$_Tree_const_iterator@V?$_Tree_val@U?$_Tree_simple_types@U?$pair@$$CBUALLEGRO_COLOR@@V?$vector@HV?$allocator@H@std@@@std@@@std@@@std@@@std@@@std@@QAEAAV01@ABV01@@Z 00447ff0 f i CommonPathfindingLib:GridVisualizer.obj
 0002:00028050       ??4?$_Tree_iterator@V?$_Tree_val@U?$_Tree_simple_types@U?$pair@$$CBUALLEGRO_COLOR@@V?$vector@HV?$allocator@H@std@@@std@@@std@@@std@@@std@@@std@@QAEAAV01@$$QAV01@@Z 00448050 f i CommonPathfindingLib:GridVisualizer.obj
 0002:000280b0       ??4?$_Tree_unchecked_const_iterator@V?$_Tree_val@U?$_Tree_simple_types@U?$pair@$$CBUALLEGRO_COLOR@@V?$vector@HV?$allocator@H@std@@@std@@@std@@@std@@@std@@U_Iterator_base12@2@@std@@QAEAAV01@$$QAV01@@Z 004480b0 f i CommonPathfindingLib:GridVisualizer.obj
 0002:00028120       ??4?$_Tree_unchecked_const_iterator@V?$_Tree_val@U?$_Tree_simple_types@U?$pair@$$CBUALLEGRO_COLOR@@V?$vector@HV?$allocator@H@std@@@std@@@std@@@std@@@std@@U_Iterator_base12@2@@std@@QAEAAV01@ABV01@@Z 00448120 f i CommonPathfindingLib:GridVisualizer.obj
 0002:00028190       ??4?$vector@HV?$allocator@H@std@@@std@@QAEAAV01@ABV01@@Z 00448190 f i CommonPathfindingLib:GridVisualizer.obj
 0002:00028240       ??8?$_Tree_const_iterator@V?$_Tree_val@U?$_Tree_simple_types@U?$pair@$$CBUALLEGRO_COLOR@@V?$vector@HV?$allocator@H@std@@@std@@@std@@@std@@@std@@@std@@QBE_NABV01@@Z 00448240 f i CommonPathfindingLib:GridVisualizer.obj
 0002:00028330       ??9?$_Tree_const_iterator@V?$_Tree_val@U?$_Tree_simple_types@U?$pair@$$CBUALLEGRO_COLOR@@V?$vector@HV?$allocator@H@std@@@std@@@std@@@std@@@std@@@std@@QBE_NABV01@@Z 00448330 f i CommonPathfindingLib:GridVisualizer.obj
 0002:000283c0       ??A?$map@UALLEGRO_COLOR@@V?$vector@HV?$allocator@H@std@@@std@@VAllegroColorCompare@@V?$allocator@U?$pair@$$CBUALLEGRO_COLOR@@V?$vector@HV?$allocator@H@std@@@std@@@std@@@3@@std@@QAEAAV?$vector@HV?$allocator@H@std@@@1@ABUALLEGRO_COLOR@@@Z 004483c0 f i CommonPathfindingLib:GridVisualizer.obj
 0002:000284b0       ??A?$vector@HV?$allocator@H@std@@@std@@QAEAAHI@Z 004484b0 f i CommonPathfindingLib:GridVisualizer.obj
 0002:00028570       ??C?$_Tree_iterator@V?$_Tree_val@U?$_Tree_simple_types@U?$pair@$$CBUALLEGRO_COLOR@@V?$vector@HV?$allocator@H@std@@@std@@@std@@@std@@@std@@@std@@QBEPAU?$pair@$$CBUALLEGRO_COLOR@@V?$vector@HV?$allocator@H@std@@@std@@@1@XZ 00448570 f i CommonPathfindingLib:GridVisualizer.obj
 0002:000285d0       ??D?$_Tree_const_iterator@V?$_Tree_val@U?$_Tree_simple_types@U?$pair@$$CBUALLEGRO_COLOR@@V?$vector@HV?$allocator@H@std@@@std@@@std@@@std@@@std@@@std@@QBEABU?$pair@$$CBUALLEGRO_COLOR@@V?$vector@HV?$allocator@H@std@@@std@@@1@XZ 004485d0 f i CommonPathfindingLib:GridVisualizer.obj
 0002:000286a0       ??D?$_Tree_iterator@V?$_Tree_val@U?$_Tree_simple_types@U?$pair@$$CBUALLEGRO_COLOR@@V?$vector@HV?$allocator@H@std@@@std@@@std@@@std@@@std@@@std@@QBEAAU?$pair@$$CBUALLEGRO_COLOR@@V?$vector@HV?$allocator@H@std@@@std@@@1@XZ 004486a0 f i CommonPathfindingLib:GridVisualizer.obj
 0002:000286f0       ??E?$_Tree_const_iterator@V?$_Tree_val@U?$_Tree_simple_types@U?$pair@$$CBUALLEGRO_COLOR@@V?$vector@HV?$allocator@H@std@@@std@@@std@@@std@@@std@@@std@@QAE?AV01@H@Z 004486f0 f i CommonPathfindingLib:GridVisualizer.obj
 0002:00028810       ??E?$_Tree_const_iterator@V?$_Tree_val@U?$_Tree_simple_types@U?$pair@$$CBUALLEGRO_COLOR@@V?$vector@HV?$allocator@H@std@@@std@@@std@@@std@@@std@@@std@@QAEAAV01@XZ 00448810 f i CommonPathfindingLib:GridVisualizer.obj
 0002:000288e0       ??E?$_Tree_iterator@V?$_Tree_val@U?$_Tree_simple_types@U?$pair@$$CBUALLEGRO_COLOR@@V?$vector@HV?$allocator@H@std@@@std@@@std@@@std@@@std@@@std@@QAEAAV01@XZ 004488e0 f i CommonPathfindingLib:GridVisualizer.obj
 0002:00028940       ??E?$_Tree_unchecked_const_iterator@V?$_Tree_val@U?$_Tree_simple_types@U?$pair@$$CBUALLEGRO_COLOR@@V?$vector@HV?$allocator@H@std@@@std@@@std@@@std@@@std@@U_Iterator_base12@2@@std@@QAEAAV01@XZ 00448940 f i CommonPathfindingLib:GridVisualizer.obj
 0002:00028a20       ??F?$_Tree_const_iterator@V?$_Tree_val@U?$_Tree_simple_types@U?$pair@$$CBUALLEGRO_COLOR@@V?$vector@HV?$allocator@H@std@@@std@@@std@@@std@@@std@@@std@@QAEAAV01@XZ 00448a20 f i CommonPathfindingLib:GridVisualizer.obj
 0002:00028b50       ??F?$_Tree_iterator@V?$_Tree_val@U?$_Tree_simple_types@U?$pair@$$CBUALLEGRO_COLOR@@V?$vector@HV?$allocator@H@std@@@std@@@std@@@std@@@std@@@std@@QAEAAV01@XZ 00448b50 f i CommonPathfindingLib:GridVisualizer.obj
 0002:00028bb0       ??F?$_Tree_unchecked_const_iterator@V?$_Tree_val@U?$_Tree_simple_types@U?$pair@$$CBUALLEGRO_COLOR@@V?$vector@HV?$allocator@H@std@@@std@@@std@@@std@@@std@@U_Iterator_base12@2@@std@@QAEAAV01@XZ 00448bb0 f i CommonPathfindingLib:GridVisualizer.obj
 0002:00028cb0       ??_G?$pair@$$CBUALLEGRO_COLOR@@V?$vector@HV?$allocator@H@std@@@std@@@std@@QAEPAXI@Z 00448cb0 f i CommonPathfindingLib:GridVisualizer.obj
 0002:00028d20       ?_Alloc_proxy@?$_Tree_comp_alloc@V?$_Tmap_traits@UALLEGRO_COLOR@@V?$vector@HV?$allocator@H@std@@@std@@VAllegroColorCompare@@V?$allocator@U?$pair@$$CBUALLEGRO_COLOR@@V?$vector@HV?$allocator@H@std@@@std@@@std@@@3@$0A@@std@@@std@@QAEXXZ 00448d20 f i CommonPathfindingLib:GridVisualizer.obj
 0002:00028e40       ?_Buy@?$vector@HV?$allocator@H@std@@@std@@AAE_NI@Z 00448e40 f i CommonPathfindingLib:GridVisualizer.obj
 0002:00028f50       ?_Buyheadnode@?$_Tree_comp_alloc@V?$_Tmap_traits@UALLEGRO_COLOR@@V?$vector@HV?$allocator@H@std@@@std@@VAllegroColorCompare@@V?$allocator@U?$pair@$$CBUALLEGRO_COLOR@@V?$vector@HV?$allocator@H@std@@@std@@@std@@@3@$0A@@std@@@std@@QAEPAU?$_Tree_node@U?$pair@$$CBUALLEGRO_COLOR@@V?$vector@HV?$allocator@H@std@@@std@@@std@@PAX@2@XZ 00448f50 f i CommonPathfindingLib:GridVisualizer.obj
 0002:00029100       ?_Buynode0@?$_Tree_comp_alloc@V?$_Tmap_traits@UALLEGRO_COLOR@@V?$vector@HV?$allocator@H@std@@@std@@VAllegroColorCompare@@V?$allocator@U?$pair@$$CBUALLEGRO_COLOR@@V?$vector@HV?$allocator@H@std@@@std@@@std@@@3@$0A@@std@@@std@@QAEPAU?$_Tree_node@U?$pair@$$CBUALLEGRO_COLOR@@V?$vector@HV?$allocator@H@std@@@std@@@std@@PAX@2@XZ 00449100 f i CommonPathfindingLib:GridVisualizer.obj
 0002:00029270       ?_Compare@?$_Tree@V?$_Tmap_traits@UALLEGRO_COLOR@@V?$vector@HV?$allocator@H@std@@@std@@VAllegroColorCompare@@V?$allocator@U?$pair@$$CBUALLEGRO_COLOR@@V?$vector@HV?$allocator@H@std@@@std@@@std@@@3@$0A@@std@@@std@@IBE_NABUALLEGRO_COLOR@@0@Z 00449270 f i CommonPathfindingLib:GridVisualizer.obj
 0002:000292f0       ?_Construct@?$_Tree_comp_alloc@V?$_Tmap_traits@UALLEGRO_COLOR@@V?$vector@HV?$allocator@H@std@@@std@@VAllegroColorCompare@@V?$allocator@U?$pair@$$CBUALLEGRO_COLOR@@V?$vector@HV?$allocator@H@std@@@std@@@std@@@3@$0A@@std@@@std@@QAEXXZ 004492f0 f i CommonPathfindingLib:GridVisualizer.obj
 0002:000293e0       ?_Copy_alloc@?$_Vector_alloc@U?$_Vec_base_types@HV?$allocator@H@std@@@std@@@std@@QAEXABV?$allocator@H@2@@Z 004493e0 f i CommonPathfindingLib:GridVisualizer.obj
 0002:00029470       ?_Destroy_if_not_nil@?$_Tree@V?$_Tmap_traits@UALLEGRO_COLOR@@V?$vector@HV?$allocator@H@std@@@std@@VAllegroColorCompare@@V?$allocator@U?$pair@$$CBUALLEGRO_COLOR@@V?$vector@HV?$allocator@H@std@@@std@@@std@@@3@$0A@@std@@@std@@IAEXPAU?$_Tree_node@U?$pair@$$CBUALLEGRO_COLOR@@V?$vector@HV?$allocator@H@std@@@std@@@std@@PAX@2@@Z 00449470 f i CommonPathfindingLib:GridVisualizer.obj
 0002:00029500       ?_Erase@?$_Tree@V?$_Tmap_traits@UALLEGRO_COLOR@@V?$vector@HV?$allocator@H@std@@@std@@VAllegroColorCompare@@V?$allocator@U?$pair@$$CBUALLEGRO_COLOR@@V?$vector@HV?$allocator@H@std@@@std@@@std@@@3@$0A@@std@@@std@@IAEXPAU?$_Tree_node@U?$pair@$$CBUALLEGRO_COLOR@@V?$vector@HV?$allocator@H@std@@@std@@@std@@PAX@2@@Z 00449500 f i CommonPathfindingLib:GridVisualizer.obj
 0002:000295d0       ?_Free_proxy@?$_Tree_comp_alloc@V?$_Tmap_traits@UALLEGRO_COLOR@@V?$vector@HV?$allocator@H@std@@@std@@VAllegroColorCompare@@V?$allocator@U?$pair@$$CBUALLEGRO_COLOR@@V?$vector@HV?$allocator@H@std@@@std@@@std@@@3@$0A@@std@@@std@@QAEXXZ 004495d0 f i CommonPathfindingLib:GridVisualizer.obj
 0002:000296d0       ?_Freeheadnode@?$_Tree_comp_alloc@V?$_Tmap_traits@UALLEGRO_COLOR@@V?$vector@HV?$allocator@H@std@@@std@@VAllegroColorCompare@@V?$allocator@U?$pair@$$CBUALLEGRO_COLOR@@V?$vector@HV?$allocator@H@std@@@std@@@std@@@3@$0A@@std@@@std@@QAEXPAU?$_Tree_node@U?$pair@$$CBUALLEGRO_COLOR@@V?$vector@HV?$allocator@H@std@@@std@@@std@@PAX@2@@Z 004496d0 f i CommonPathfindingLib:GridVisualizer.obj
 0002:000297a0       ?_Freenode0@?$_Tree_comp_alloc@V?$_Tmap_traits@UALLEGRO_COLOR@@V?$vector@HV?$allocator@H@std@@@std@@VAllegroColorCompare@@V?$allocator@U?$pair@$$CBUALLEGRO_COLOR@@V?$vector@HV?$allocator@H@std@@@std@@@std@@@3@$0A@@std@@@std@@QAEXPAU?$_Tree_node@U?$pair@$$CBUALLEGRO_COLOR@@V?$vector@HV?$allocator@H@std@@@std@@@std@@PAX@2@@Z 004497a0 f i CommonPathfindingLib:GridVisualizer.obj
 0002:00029870       ?_Get_data@?$_Tree_comp_alloc@V?$_Tmap_traits@UALLEGRO_COLOR@@V?$vector@HV?$allocator@H@std@@@std@@VAllegroColorCompare@@V?$allocator@U?$pair@$$CBUALLEGRO_COLOR@@V?$vector@HV?$allocator@H@std@@@std@@@std@@@3@$0A@@std@@@std@@QAEAAV?$_Tree_val@U?$_Tree_simple_types@U?$pair@$$CBUALLEGRO_COLOR@@V?$vector@HV?$allocator@H@std@@@std@@@std@@@std@@@2@XZ 00449870 f i CommonPathfindingLib:GridVisualizer.obj
 0002:000298d0       ?_Get_data@?$_Tree_comp_alloc@V?$_Tmap_traits@UALLEGRO_COLOR@@V?$vector@HV?$allocator@H@std@@@std@@VAllegroColorCompare@@V?$allocator@U?$pair@$$CBUALLEGRO_COLOR@@V?$vector@HV?$allocator@H@std@@@std@@@std@@@3@$0A@@std@@@std@@QBEABV?$_Tree_val@U?$_Tree_simple_types@U?$pair@$$CBUALLEGRO_COLOR@@V?$vector@HV?$allocator@H@std@@@std@@@std@@@std@@@2@XZ 004498d0 f i CommonPathfindingLib:GridVisualizer.obj
 0002:00029930       ?_Get_first@?$_Compressed_pair@V?$allocator@U?$_Tree_node@U?$pair@$$CBUALLEGRO_COLOR@@V?$vector@HV?$allocator@H@std@@@std@@@std@@PAX@std@@@std@@V?$_Tree_val@U?$_Tree_simple_types@U?$pair@$$CBUALLEGRO_COLOR@@V?$vector@HV?$allocator@H@std@@@std@@@std@@@std@@@2@$00@std@@QAEAAV?$allocator@U?$_Tree_node@U?$pair@$$CBUALLEGRO_COLOR@@V?$vector@HV?$allocator@H@std@@@std@@@std@@PAX@std@@@2@XZ 00449930 f i CommonPathfindingLib:GridVisualizer.obj
 0002:00029970       ?_Get_first@?$_Compressed_pair@V?$allocator@U?$_Tree_node@U?$pair@$$CBUALLEGRO_COLOR@@V?$vector@HV?$allocator@H@std@@@std@@@std@@PAX@std@@@std@@V?$_Tree_val@U?$_Tree_simple_types@U?$pair@$$CBUALLEGRO_COLOR@@V?$vector@HV?$allocator@H@std@@@std@@@std@@@std@@@2@$00@std@@QBEABV?$allocator@U?$_Tree_node@U?$pair@$$CBUALLEGRO_COLOR@@V?$vector@HV?$allocator@H@std@@@std@@@std@@PAX@std@@@2@XZ 00449970 f i CommonPathfindingLib:GridVisualizer.obj
 0002:000299b0       ?_Get_first@?$_Compressed_pair@VAllegroColorCompare@@V?$_Compressed_pair@V?$allocator@U?$_Tree_node@U?$pair@$$CBUALLEGRO_COLOR@@V?$vector@HV?$allocator@H@std@@@std@@@std@@PAX@std@@@std@@V?$_Tree_val@U?$_Tree_simple_types@U?$pair@$$CBUALLEGRO_COLOR@@V?$vector@HV?$allocator@H@std@@@std@@@std@@@std@@@2@$00@std@@$00@std@@QAEAAVAllegroColorCompare@@XZ 004499b0 f i CommonPathfindingLib:GridVisualizer.obj
 0002:000299f0       ?_Get_first@?$_Compressed_pair@VAllegroColorCompare@@V?$_Compressed_pair@V?$allocator@U?$_Tree_node@U?$pair@$$CBUALLEGRO_COLOR@@V?$vector@HV?$allocator@H@std@@@std@@@std@@PAX@std@@@std@@V?$_Tree_val@U?$_Tree_simple_types@U?$pair@$$CBUALLEGRO_COLOR@@V?$vector@HV?$allocator@H@std@@@std@@@std@@@std@@@2@$00@std@@$00@std@@QBEABVAllegroColorCompare@@XZ 004499f0 f i CommonPathfindingLib:GridVisualizer.obj
 0002:00029a30       ?_Get_second@?$_Compressed_pair@V?$allocator@U?$_Tree_node@U?$pair@$$CBUALLEGRO_COLOR@@V?$vector@HV?$allocator@H@std@@@std@@@std@@PAX@std@@@std@@V?$_Tree_val@U?$_Tree_simple_types@U?$pair@$$CBUALLEGRO_COLOR@@V?$vector@HV?$allocator@H@std@@@std@@@std@@@std@@@2@$00@std@@QAEAAV?$_Tree_val@U?$_Tree_simple_types@U?$pair@$$CBUALLEGRO_COLOR@@V?$vector@HV?$allocator@H@std@@@std@@@std@@@std@@@2@XZ 00449a30 f i CommonPathfindingLib:GridVisualizer.obj
 0002:00029a70       ?_Get_second@?$_Compressed_pair@V?$allocator@U?$_Tree_node@U?$pair@$$CBUALLEGRO_COLOR@@V?$vector@HV?$allocator@H@std@@@std@@@std@@PAX@std@@@std@@V?$_Tree_val@U?$_Tree_simple_types@U?$pair@$$CBUALLEGRO_COLOR@@V?$vector@HV?$allocator@H@std@@@std@@@std@@@std@@@2@$00@std@@QBEABV?$_Tree_val@U?$_Tree_simple_types@U?$pair@$$CBUALLEGRO_COLOR@@V?$vector@HV?$allocator@H@std@@@std@@@std@@@std@@@2@XZ 00449a70 f i CommonPathfindingLib:GridVisualizer.obj
 0002:00029ab0       ?_Get_second@?$_Compressed_pair@VAllegroColorCompare@@V?$_Compressed_pair@V?$allocator@U?$_Tree_node@U?$pair@$$CBUALLEGRO_COLOR@@V?$vector@HV?$allocator@H@std@@@std@@@std@@PAX@std@@@std@@V?$_Tree_val@U?$_Tree_simple_types@U?$pair@$$CBUALLEGRO_COLOR@@V?$vector@HV?$allocator@H@std@@@std@@@std@@@std@@@2@$00@std@@$00@std@@QAEAAV?$_Compressed_pair@V?$allocator@U?$_Tree_node@U?$pair@$$CBUALLEGRO_COLOR@@V?$vector@HV?$allocator@H@std@@@std@@@std@@PAX@std@@@std@@V?$_Tree_val@U?$_Tree_simple_types@U?$pair@$$CBUALLEGRO_COLOR@@V?$vector@HV?$allocator@H@std@@@std@@@std@@@std@@@2@$00@2@XZ 00449ab0 f i CommonPathfindingLib:GridVisualizer.obj
 0002:00029af0       ?_Get_second@?$_Compressed_pair@VAllegroColorCompare@@V?$_Compressed_pair@V?$allocator@U?$_Tree_node@U?$pair@$$CBUALLEGRO_COLOR@@V?$vector@HV?$allocator@H@std@@@std@@@std@@PAX@std@@@std@@V?$_Tree_val@U?$_Tree_simple_types@U?$pair@$$CBUALLEGRO_COLOR@@V?$vector@HV?$allocator@H@std@@@std@@@std@@@std@@@2@$00@std@@$00@std@@QBEABV?$_Compressed_pair@V?$allocator@U?$_Tree_node@U?$pair@$$CBUALLEGRO_COLOR@@V?$vector@HV?$allocator@H@std@@@std@@@std@@PAX@std@@@std@@V?$_Tree_val@U?$_Tree_simple_types@U?$pair@$$CBUALLEGRO_COLOR@@V?$vector@HV?$allocator@H@std@@@std@@@std@@@std@@@2@$00@2@XZ 00449af0 f i CommonPathfindingLib:GridVisualizer.obj
 0002:00029b30       ?_Getal@?$_Tree_comp_alloc@V?$_Tmap_traits@UALLEGRO_COLOR@@V?$vector@HV?$allocator@H@std@@@std@@VAllegroColorCompare@@V?$allocator@U?$pair@$$CBUALLEGRO_COLOR@@V?$vector@HV?$allocator@H@std@@@std@@@std@@@3@$0A@@std@@@std@@QAEAAV?$allocator@U?$_Tree_node@U?$pair@$$CBUALLEGRO_COLOR@@V?$vector@HV?$allocator@H@std@@@std@@@std@@PAX@std@@@2@XZ 00449b30 f i CommonPathfindingLib:GridVisualizer.obj
 0002:00029b90       ?_Getal@?$_Tree_comp_alloc@V?$_Tmap_traits@UALLEGRO_COLOR@@V?$vector@HV?$allocator@H@std@@@std@@VAllegroColorCompare@@V?$allocator@U?$pair@$$CBUALLEGRO_COLOR@@V?$vector@HV?$allocator@H@std@@@std@@@std@@@3@$0A@@std@@@std@@QBEABV?$allocator@U?$_Tree_node@U?$pair@$$CBUALLEGRO_COLOR@@V?$vector@HV?$allocator@H@std@@@std@@@std@@PAX@std@@@2@XZ 00449b90 f i CommonPathfindingLib:GridVisualizer.obj
 0002:00029bf0       ?_Getcomp@?$_Tree_comp_alloc@V?$_Tmap_traits@UALLEGRO_COLOR@@V?$vector@HV?$allocator@H@std@@@std@@VAllegroColorCompare@@V?$allocator@U?$pair@$$CBUALLEGRO_COLOR@@V?$vector@HV?$allocator@H@std@@@std@@@std@@@3@$0A@@std@@@std@@QAEAAVAllegroColorCompare@@XZ 00449bf0 f i CommonPathfindingLib:GridVisualizer.obj
 0002:00029c40       ?_Getcomp@?$_Tree_comp_alloc@V?$_Tmap_traits@UALLEGRO_COLOR@@V?$vector@HV?$allocator@H@std@@@std@@VAllegroColorCompare@@V?$allocator@U?$pair@$$CBUALLEGRO_COLOR@@V?$vector@HV?$allocator@H@std@@@std@@@std@@@3@$0A@@std@@@std@@QBEABVAllegroColorCompare@@XZ 00449c40 f i CommonPathfindingLib:GridVisualizer.obj
 0002:00029c90       ?_Getpfirst@?$_Tree_comp_alloc@V?$_Tmap_traits@UALLEGRO_COLOR@@V?$vector@HV?$allocator@H@std@@@std@@VAllegroColorCompare@@V?$allocator@U?$pair@$$CBUALLEGRO_COLOR@@V?$vector@HV?$allocator@H@std@@@std@@@std@@@3@$0A@@std@@@std@@QBEPAPAU_Iterator_base12@2@XZ 00449c90 f i CommonPathfindingLib:GridVisualizer.obj
 0002:00029cf0       ?_Key@?$_Tree@V?$_Tmap_traits@UALLEGRO_COLOR@@V?$vector@HV?$allocator@H@std@@@std@@VAllegroColorCompare@@V?$allocator@U?$pair@$$CBUALLEGRO_COLOR@@V?$vector@HV?$allocator@H@std@@@std@@@std@@@3@$0A@@std@@@std@@IBEABUALLEGRO_COLOR@@PAU?$_Tree_node@U?$pair@$$CBUALLEGRO_COLOR@@V?$vector@HV?$allocator@H@std@@@std@@@std@@PAX@2@@Z 00449cf0 f i CommonPathfindingLib:GridVisualizer.obj
 0002:00029d50       ?_Kfn@?$_Tree@V?$_Tmap_traits@UALLEGRO_COLOR@@V?$vector@HV?$allocator@H@std@@@std@@VAllegroColorCompare@@V?$allocator@U?$pair@$$CBUALLEGRO_COLOR@@V?$vector@HV?$allocator@H@std@@@std@@@std@@@3@$0A@@std@@@std@@IBEABUALLEGRO_COLOR@@ABU?$pair@$$CBUALLEGRO_COLOR@@V?$vector@HV?$allocator@H@std@@@std@@@2@@Z 00449d50 f i CommonPathfindingLib:GridVisualizer.obj
 0002:00029db0       ?_Lmost@?$_Tree@V?$_Tmap_traits@UALLEGRO_COLOR@@V?$vector@HV?$allocator@H@std@@@std@@VAllegroColorCompare@@V?$allocator@U?$pair@$$CBUALLEGRO_COLOR@@V?$vector@HV?$allocator@H@std@@@std@@@std@@@3@$0A@@std@@@std@@IBEAAPAU?$_Tree_node@U?$pair@$$CBUALLEGRO_COLOR@@V?$vector@HV?$allocator@H@std@@@std@@@std@@PAX@2@XZ 00449db0 f i CommonPathfindingLib:GridVisualizer.obj
 0002:00029e10       ?_Lrotate@?$_Tree@V?$_Tmap_traits@UALLEGRO_COLOR@@V?$vector@HV?$allocator@H@std@@@std@@VAllegroColorCompare@@V?$allocator@U?$pair@$$CBUALLEGRO_COLOR@@V?$vector@HV?$allocator@H@std@@@std@@@std@@@3@$0A@@std@@@std@@IAEXPAU?$_Tree_node@U?$pair@$$CBUALLEGRO_COLOR@@V?$vector@HV?$allocator@H@std@@@std@@@std@@PAX@2@@Z 00449e10 f i CommonPathfindingLib:GridVisualizer.obj
 0002:00029f10       ?_Max@?$_Tree_comp_alloc@V?$_Tmap_traits@UALLEGRO_COLOR@@V?$vector@HV?$allocator@H@std@@@std@@VAllegroColorCompare@@V?$allocator@U?$pair@$$CBUALLEGRO_COLOR@@V?$vector@HV?$allocator@H@std@@@std@@@std@@@3@$0A@@std@@@std@@SAPAU?$_Tree_node@U?$pair@$$CBUALLEGRO_COLOR@@V?$vector@HV?$allocator@H@std@@@std@@@std@@PAX@2@PAU32@@Z 00449f10 f i CommonPathfindingLib:GridVisualizer.obj
 0002:00029f60       ?_Max@?$_Tree_val@U?$_Tree_simple_types@U?$pair@$$CBUALLEGRO_COLOR@@V?$vector@HV?$allocator@H@std@@@std@@@std@@@std@@@std@@SAPAU?$_Tree_node@U?$pair@$$CBUALLEGRO_COLOR@@V?$vector@HV?$allocator@H@std@@@std@@@std@@PAX@2@PAU32@@Z 00449f60 f i CommonPathfindingLib:GridVisualizer.obj
 0002:00029fc0       ?_Min@?$_Tree_comp_alloc@V?$_Tmap_traits@UALLEGRO_COLOR@@V?$vector@HV?$allocator@H@std@@@std@@VAllegroColorCompare@@V?$allocator@U?$pair@$$CBUALLEGRO_COLOR@@V?$vector@HV?$allocator@H@std@@@std@@@std@@@3@$0A@@std@@@std@@SAPAU?$_Tree_node@U?$pair@$$CBUALLEGRO_COLOR@@V?$vector@HV?$allocator@H@std@@@std@@@std@@PAX@2@PAU32@@Z 00449fc0 f i CommonPathfindingLib:GridVisualizer.obj
 0002:0002a010       ?_Min@?$_Tree_val@U?$_Tree_simple_types@U?$pair@$$CBUALLEGRO_COLOR@@V?$vector@HV?$allocator@H@std@@@std@@@std@@@std@@@std@@SAPAU?$_Tree_node@U?$pair@$$CBUALLEGRO_COLOR@@V?$vector@HV?$allocator@H@std@@@std@@@std@@PAX@2@PAU32@@Z 0044a010 f i CommonPathfindingLib:GridVisualizer.obj
 0002:0002a060       ?_Myhead@?$_Tree_comp_alloc@V?$_Tmap_traits@UALLEGRO_COLOR@@V?$vector@HV?$allocator@H@std@@@std@@VAllegroColorCompare@@V?$allocator@U?$pair@$$CBUALLEGRO_COLOR@@V?$vector@HV?$allocator@H@std@@@std@@@std@@@3@$0A@@std@@@std@@QAEAAPAU?$_Tree_node@U?$pair@$$CBUALLEGRO_COLOR@@V?$vector@HV?$allocator@H@std@@@std@@@std@@PAX@2@XZ 0044a060 f i CommonPathfindingLib:GridVisualizer.obj
 0002:0002a0c0       ?_Myhead@?$_Tree_comp_alloc@V?$_Tmap_traits@UALLEGRO_COLOR@@V?$vector@HV?$allocator@H@std@@@std@@VAllegroColorCompare@@V?$allocator@U?$pair@$$CBUALLEGRO_COLOR@@V?$vector@HV?$allocator@H@std@@@std@@@std@@@3@$0A@@std@@@std@@QBEABQAU?$_Tree_node@U?$pair@$$CBUALLEGRO_COLOR@@V?$vector@HV?$allocator@H@std@@@std@@@std@@PAX@2@XZ 0044a0c0 f i CommonPathfindingLib:GridVisualizer.obj
 0002:0002a120       ?_Mynode@?$_Tree_unchecked_const_iterator@V?$_Tree_val@U?$_Tree_simple_types@U?$pair@$$CBUALLEGRO_COLOR@@V?$vector@HV?$allocator@H@std@@@std@@@std@@@std@@@std@@U_Iterator_base12@2@@std@@QBEPAU?$_Tree_node@U?$pair@$$CBUALLEGRO_COLOR@@V?$vector@HV?$allocator@H@std@@@std@@@std@@PAX@2@XZ 0044a120 f i CommonPathfindingLib:GridVisualizer.obj
 0002:0002a160       ?_Myproxy@?$_Tree_comp_alloc@V?$_Tmap_traits@UALLEGRO_COLOR@@V?$vector@HV?$allocator@H@std@@@std@@VAllegroColorCompare@@V?$allocator@U?$pair@$$CBUALLEGRO_COLOR@@V?$vector@HV?$allocator@H@std@@@std@@@std@@@3@$0A@@std@@@std@@QAEAAPAU_Container_proxy@2@XZ 0044a160 f i CommonPathfindingLib:GridVisualizer.obj
 0002:0002a1b0       ?_Mysize@?$_Tree_comp_alloc@V?$_Tmap_traits@UALLEGRO_COLOR@@V?$vector@HV?$allocator@H@std@@@std@@VAllegroColorCompare@@V?$allocator@U?$pair@$$CBUALLEGRO_COLOR@@V?$vector@HV?$allocator@H@std@@@std@@@std@@@3@$0A@@std@@@std@@QAEAAIXZ 0044a1b0 f i CommonPathfindingLib:GridVisualizer.obj
 0002:0002a210       ?_Mysize@?$_Tree_comp_alloc@V?$_Tmap_traits@UALLEGRO_COLOR@@V?$vector@HV?$allocator@H@std@@@std@@VAllegroColorCompare@@V?$allocator@U?$pair@$$CBUALLEGRO_COLOR@@V?$vector@HV?$allocator@H@std@@@std@@@std@@@3@$0A@@std@@@std@@QBEABIXZ 0044a210 f i CommonPathfindingLib:GridVisualizer.obj
 0002:0002a270       ?_Orphan_all@?$_Tree_comp_alloc@V?$_Tmap_traits@UALLEGRO_COLOR@@V?$vector@HV?$allocator@H@std@@@std@@VAllegroColorCompare@@V?$allocator@U?$pair@$$CBUALLEGRO_COLOR@@V?$vector@HV?$allocator@H@std@@@std@@@std@@@3@$0A@@std@@@std@@QAEXXZ 0044a270 f i CommonPathfindingLib:GridVisualizer.obj
 0002:0002a2d0       ?_Orphan_ptr@?$_Tree@V?$_Tmap_traits@UALLEGRO_COLOR@@V?$vector@HV?$allocator@H@std@@@std@@VAllegroColorCompare@@V?$allocator@U?$pair@$$CBUALLEGRO_COLOR@@V?$vector@HV?$allocator@H@std@@@std@@@std@@@3@$0A@@std@@@std@@IAEXPAU?$_Tree_node@U?$pair@$$CBUALLEGRO_COLOR@@V?$vector@HV?$allocator@H@std@@@std@@@std@@PAX@2@@Z 0044a2d0 f i CommonPathfindingLib:GridVisualizer.obj
 0002:0002a450       ?_Rmost@?$_Tree@V?$_Tmap_traits@UALLEGRO_COLOR@@V?$vector@HV?$allocator@H@std@@@std@@VAllegroColorCompare@@V?$allocator@U?$pair@$$CBUALLEGRO_COLOR@@V?$vector@HV?$allocator@H@std@@@std@@@std@@@3@$0A@@std@@@std@@IBEAAPAU?$_Tree_node@U?$pair@$$CBUALLEGRO_COLOR@@V?$vector@HV?$allocator@H@std@@@std@@@std@@PAX@2@XZ 0044a450 f i CommonPathfindingLib:GridVisualizer.obj
 0002:0002a4b0       ?_Root@?$_Tree@V?$_Tmap_traits@UALLEGRO_COLOR@@V?$vector@HV?$allocator@H@std@@@std@@VAllegroColorCompare@@V?$allocator@U?$pair@$$CBUALLEGRO_COLOR@@V?$vector@HV?$allocator@H@std@@@std@@@std@@@3@$0A@@std@@@std@@IBEAAPAU?$_Tree_node@U?$pair@$$CBUALLEGRO_COLOR@@V?$vector@HV?$allocator@H@std@@@std@@@std@@PAX@2@XZ 0044a4b0 f i CommonPathfindingLib:GridVisualizer.obj
 0002:0002a510       ?_Rrotate@?$_Tree@V?$_Tmap_traits@UALLEGRO_COLOR@@V?$vector@HV?$allocator@H@std@@@std@@VAllegroColorCompare@@V?$allocator@U?$pair@$$CBUALLEGRO_COLOR@@V?$vector@HV?$allocator@H@std@@@std@@@std@@@3@$0A@@std@@@std@@IAEXPAU?$_Tree_node@U?$pair@$$CBUALLEGRO_COLOR@@V?$vector@HV?$allocator@H@std@@@std@@@std@@PAX@2@@Z 0044a510 f i CommonPathfindingLib:GridVisualizer.obj
 0002:0002a610       ?_Tidy@?$_Tree@V?$_Tmap_traits@UALLEGRO_COLOR@@V?$vector@HV?$allocator@H@std@@@std@@VAllegroColorCompare@@V?$allocator@U?$pair@$$CBUALLEGRO_COLOR@@V?$vector@HV?$allocator@H@std@@@std@@@std@@@3@$0A@@std@@@std@@IAEXXZ 0044a610 f i CommonPathfindingLib:GridVisualizer.obj
 0002:0002a780       ?addColor@GridVisualizer@@QAEXHABUALLEGRO_COLOR@@@Z 0044a780 f   CommonPathfindingLib:GridVisualizer.obj
 0002:0002a970       ?allocate@?$allocator@U?$_Tree_node@U?$pair@$$CBUALLEGRO_COLOR@@V?$vector@HV?$allocator@H@std@@@std@@@std@@PAX@std@@@std@@QAEPAU?$_Tree_node@U?$pair@$$CBUALLEGRO_COLOR@@V?$vector@HV?$allocator@H@std@@@std@@@std@@PAX@2@I@Z 0044a970 f i CommonPathfindingLib:GridVisualizer.obj
 0002:0002a9d0       ?begin@?$_Tree@V?$_Tmap_traits@UALLEGRO_COLOR@@V?$vector@HV?$allocator@H@std@@@std@@VAllegroColorCompare@@V?$allocator@U?$pair@$$CBUALLEGRO_COLOR@@V?$vector@HV?$allocator@H@std@@@std@@@std@@@3@$0A@@std@@@std@@QAE?AV?$_Tree_iterator@V?$_Tree_val@U?$_Tree_simple_types@U?$pair@$$CBUALLEGRO_COLOR@@V?$vector@HV?$allocator@H@std@@@std@@@std@@@std@@@std@@@2@XZ 0044a9d0 f i CommonPathfindingLib:GridVisualizer.obj
 0002:0002aa80       ?clear@?$_Tree@V?$_Tmap_traits@UALLEGRO_COLOR@@V?$vector@HV?$allocator@H@std@@@std@@VAllegroColorCompare@@V?$allocator@U?$pair@$$CBUALLEGRO_COLOR@@V?$vector@HV?$allocator@H@std@@@std@@@std@@@3@$0A@@std@@@std@@QAEXXZ 0044aa80 f i CommonPathfindingLib:GridVisualizer.obj
 0002:0002ab90       ?clear@GridVisualizer@@QAEXXZ 0044ab90 f   CommonPathfindingLib:GridVisualizer.obj
 0002:0002abf0       ?deallocate@?$allocator@U?$_Tree_node@U?$pair@$$CBUALLEGRO_COLOR@@V?$vector@HV?$allocator@H@std@@@std@@@std@@PAX@std@@@std@@QAEXQAU?$_Tree_node@U?$pair@$$CBUALLEGRO_COLOR@@V?$vector@HV?$allocator@H@std@@@std@@@std@@PAX@2@I@Z 0044abf0 f i CommonPathfindingLib:GridVisualizer.obj
 0002:0002ac50       ?draw@GridVisualizer@@QAEXAAVGraphicsBuffer@@@Z 0044ac50 f   CommonPathfindingLib:GridVisualizer.obj
 0002:0002b020       ?end@?$_Tree@V?$_Tmap_traits@UALLEGRO_COLOR@@V?$vector@HV?$allocator@H@std@@@std@@VAllegroColorCompare@@V?$allocator@U?$pair@$$CBUALLEGRO_COLOR@@V?$vector@HV?$allocator@H@std@@@std@@@std@@@3@$0A@@std@@@std@@QAE?AV?$_Tree_iterator@V?$_Tree_val@U?$_Tree_simple_types@U?$pair@$$CBUALLEGRO_COLOR@@V?$vector@HV?$allocator@H@std@@@std@@@std@@@std@@@std@@@2@XZ 0044b020 f i CommonPathfindingLib:GridVisualizer.obj
 0002:0002b0d0       ?erase@?$_Tree@V?$_Tmap_traits@UALLEGRO_COLOR@@V?$vector@HV?$allocator@H@std@@@std@@VAllegroColorCompare@@V?$allocator@U?$pair@$$CBUALLEGRO_COLOR@@V?$vector@HV?$allocator@H@std@@@std@@@std@@@3@$0A@@std@@@std@@QAE?AV?$_Tree_iterator@V?$_Tree_val@U?$_Tree_simple_types@U?$pair@$$CBUALLEGRO_COLOR@@V?$vector@HV?$allocator@H@std@@@std@@@std@@@std@@@std@@@2@V?$_Tree_const_iterator@V?$_Tree_val@U?$_Tree_simple_types@U?$pair@$$CBUALLEGRO_COLOR@@V?$vector@HV?$allocator@H@std@@@std@@@std@@@std@@@std@@@2@0@Z 0044b0d0 f i CommonPathfindingLib:GridVisualizer.obj
 0002:0002b3f0       ?erase@?$_Tree@V?$_Tmap_traits@UALLEGRO_COLOR@@V?$vector@HV?$allocator@H@std@@@std@@VAllegroColorCompare@@V?$allocator@U?$pair@$$CBUALLEGRO_COLOR@@V?$vector@HV?$allocator@H@std@@@std@@@std@@@3@$0A@@std@@@std@@QAE?AV?$_Tree_iterator@V?$_Tree_val@U?$_Tree_simple_types@U?$pair@$$CBUALLEGRO_COLOR@@V?$vector@HV?$allocator@H@std@@@std@@@std@@@std@@@std@@@2@V?$_Tree_const_iterator@V?$_Tree_val@U?$_Tree_simple_types@U?$pair@$$CBUALLEGRO_COLOR@@V?$vector@HV?$allocator@H@std@@@std@@@std@@@std@@@std@@@2@@Z 0044b3f0 f i CommonPathfindingLib:GridVisualizer.obj
 0002:0002bb20       ?find@?$_Tree@V?$_Tmap_traits@UALLEGRO_COLOR@@V?$vector@HV?$allocator@H@std@@@std@@VAllegroColorCompare@@V?$allocator@U?$pair@$$CBUALLEGRO_COLOR@@V?$vector@HV?$allocator@H@std@@@std@@@std@@@3@$0A@@std@@@std@@QAE?AV?$_Tree_iterator@V?$_Tree_val@U?$_Tree_simple_types@U?$pair@$$CBUALLEGRO_COLOR@@V?$vector@HV?$allocator@H@std@@@std@@@std@@@std@@@std@@@2@ABUALLEGRO_COLOR@@@Z 0044bb20 f i CommonPathfindingLib:GridVisualizer.obj
 0002:0002bde0       ?getBitmap@GraphicsBuffer@@QBEPAUALLEGRO_BITMAP@@XZ 0044bde0 f i CommonPathfindingLib:GridVisualizer.obj
 0002:0002be20       ?getGridHeight@Grid@@QBEHXZ 0044be20 f i CommonPathfindingLib:GridVisualizer.obj
 0002:0002be60       ?getGridWidth@Grid@@QBEHXZ 0044be60 f i CommonPathfindingLib:GridVisualizer.obj
 0002:0002bea0       ?getSquareSize@Grid@@QBEHXZ 0044bea0 f i CommonPathfindingLib:GridVisualizer.obj
 0002:0002bee0       ?getX@Vector2D@@QBEMXZ     0044bee0 f i CommonPathfindingLib:GridVisualizer.obj
 0002:0002bf20       ?getY@Vector2D@@QBEMXZ     0044bf20 f i CommonPathfindingLib:GridVisualizer.obj
 0002:0002bf60       ?lower_bound@?$_Tree@V?$_Tmap_traits@UALLEGRO_COLOR@@V?$vector@HV?$allocator@H@std@@@std@@VAllegroColorCompare@@V?$allocator@U?$pair@$$CBUALLEGRO_COLOR@@V?$vector@HV?$allocator@H@std@@@std@@@std@@@3@$0A@@std@@@std@@QAE?AV?$_Tree_iterator@V?$_Tree_val@U?$_Tree_simple_types@U?$pair@$$CBUALLEGRO_COLOR@@V?$vector@HV?$allocator@H@std@@@std@@@std@@@std@@@std@@@2@ABUALLEGRO_COLOR@@@Z 0044bf60 f i CommonPathfindingLib:GridVisualizer.obj
 0002:0002c000       ?max_size@?$_Default_allocator_traits@V?$allocator@U?$_Tree_node@U?$pair@$$CBUALLEGRO_COLOR@@V?$vector@HV?$allocator@H@std@@@std@@@std@@PAX@std@@@std@@@std@@SAIABV?$allocator@U?$_Tree_node@U?$pair@$$CBUALLEGRO_COLOR@@V?$vector@HV?$allocator@H@std@@@std@@@std@@PAX@std@@@2@@Z 0044c000 f i CommonPathfindingLib:GridVisualizer.obj
 0002:0002c040       ?max_size@?$_Tree@V?$_Tmap_traits@UALLEGRO_COLOR@@V?$vector@HV?$allocator@H@std@@@std@@VAllegroColorCompare@@V?$allocator@U?$pair@$$CBUALLEGRO_COLOR@@V?$vector@HV?$allocator@H@std@@@std@@@std@@@3@$0A@@std@@@std@@QBEIXZ 0044c040 f i CommonPathfindingLib:GridVisualizer.obj
 0002:0002c0a0       ?pointer_to@?$pointer_traits@PAU?$pair@$$CBUALLEGRO_COLOR@@V?$vector@HV?$allocator@H@std@@@std@@@std@@@std@@SAPAU?$pair@$$CBUALLEGRO_COLOR@@V?$vector@HV?$allocator@H@std@@@std@@@2@AAU32@@Z 0044c0a0 f i CommonPathfindingLib:GridVisualizer.obj
 0002:0002c0f0       ?refresh@GridVisualizer@@AAEXXZ 0044c0f0 f   CommonPathfindingLib:GridVisualizer.obj
 0002:0002c1e0       ?removeAllEntriesOfColor@GridVisualizer@@QAEXABUALLEGRO_COLOR@@@Z 0044c1e0 f   CommonPathfindingLib:GridVisualizer.obj
 0002:0002c380       ?select_on_container_copy_construction@?$_Default_allocator_traits@V?$allocator@H@std@@@std@@SA?AV?$allocator@H@2@ABV32@@Z 0044c380 f i CommonPathfindingLib:GridVisualizer.obj
 0002:0002c3c0       ?size@?$_Tree@V?$_Tmap_traits@UALLEGRO_COLOR@@V?$vector@HV?$allocator@H@std@@@std@@VAllegroColorCompare@@V?$allocator@U?$pair@$$CBUALLEGRO_COLOR@@V?$vector@HV?$allocator@H@std@@@std@@@std@@@3@$0A@@std@@@std@@QBEIXZ 0044c3c0 f i CommonPathfindingLib:GridVisualizer.obj
 0002:0002c420       ??$?0$$V@?$_Compressed_pair@V?$allocator@U?$_Tree_node@U?$pair@$$CBHPAVSprite@@@std@@PAX@std@@@std@@V?$_Tree_val@U?$_Tree_simple_types@U?$pair@$$CBHPAVSprite@@@std@@@std@@@2@$00@std@@QAE@U_Zero_then_variadic_args_t@1@@Z 0044c420 f i CommonPathfindingLib:SpriteManager.obj
 0002:0002c480       ??$?0AAV?$_Tree_iterator@V?$_Tree_val@U?$_Tree_simple_types@U?$pair@$$CBHPAVSprite@@@std@@@std@@@std@@@std@@_NX$0A@@?$pair@V?$_Tree_iterator@V?$_Tree_val@U?$_Tree_simple_types@U?$pair@$$CBHPAVSprite@@@std@@@std@@@std@@@std@@_N@std@@QAE@AAV?$_Tree_iterator@V?$_Tree_val@U?$_Tree_simple_types@U?$pair@$$CBHPAVSprite@@@std@@@std@@@std@@@1@$$QA_N@Z 0044c480 f i CommonPathfindingLib:SpriteManager.obj
 0002:0002c500       ??$?0ABH$$Z$$V@?$pair@$$CBHPAVSprite@@@std@@QAE@Upiecewise_construct_t@1@V?$tuple@ABH@1@V?$tuple@$$V@1@@Z 0044c500 f i CommonPathfindingLib:SpriteManager.obj
 0002:0002c580       ??$?0ABU?$less@H@std@@U_Zero_then_variadic_args_t@1@@?$_Compressed_pair@U?$less@H@std@@V?$_Compressed_pair@V?$allocator@U?$_Tree_node@U?$pair@$$CBHPAVSprite@@@std@@PAX@std@@@std@@V?$_Tree_val@U?$_Tree_simple_types@U?$pair@$$CBHPAVSprite@@@std@@@std@@@2@$00@2@$00@std@@QAE@U_One_then_variadic_args_t@1@ABU?$less@H@1@$$QAU_Zero_then_variadic_args_t@1@@Z 0044c580 f i CommonPathfindingLib:SpriteManager.obj
 0002:0002c600       ??$?0U?$_Tree_node@U?$pair@$$CBHPAVSprite@@@std@@PAX@std@@@?$allocator@U_Container_proxy@std@@@std@@QAE@ABV?$allocator@U?$_Tree_node@U?$pair@$$CBHPAVSprite@@@std@@PAX@std@@@1@@Z 0044c600 f i CommonPathfindingLib:SpriteManager.obj
 0002:0002c640       ??$?0V?$_Tree_iterator@V?$_Tree_val@U?$_Tree_simple_types@U?$pair@$$CBHPAVSprite@@@std@@@std@@@std@@@std@@_NX$0A@@?$pair@V?$_Tree_iterator@V?$_Tree_val@U?$_Tree_simple_types@U?$pair@$$CBHPAVSprite@@@std@@@std@@@std@@@std@@_N@std@@QAE@$$QAV?$_Tree_iterator@V?$_Tree_val@U?$_Tree_simple_types@U?$pair@$$CBHPAVSprite@@@std@@@std@@@std@@@1@$$QA_N@Z 0044c640 f i CommonPathfindingLib:SpriteManager.obj
 0002:0002c6c0       ??$?0V?$tuple@ABH@std@@V?$tuple@$$V@1@$0A@$$Z$S@?$pair@$$CBHPAVSprite@@@std@@QAE@AAV?$tuple@ABH@1@AAV?$tuple@$$V@1@U?$integer_sequence@I$0A@@1@U?$integer_sequence@I$S@1@@Z 0044c6c0 f i CommonPathfindingLib:SpriteManager.obj
 0002:0002c740       ??$_Buynode@ABUpiecewise_construct_t@std@@V?$tuple@ABH@2@V?$tuple@$$V@2@@?$_Tree_comp_alloc@V?$_Tmap_traits@HPAVSprite@@U?$less@H@std@@V?$allocator@U?$pair@$$CBHPAVSprite@@@std@@@3@$0A@@std@@@std@@QAEPAU?$_Tree_node@U?$pair@$$CBHPAVSprite@@@std@@PAX@1@ABUpiecewise_construct_t@1@$$QAV?$tuple@ABH@1@$$QAV?$tuple@$$V@1@@Z 0044c740 f i CommonPathfindingLib:SpriteManager.obj
 0002:0002c880       ??$_Buynode_if_nil@AAU?$pair@$$CBHPAVSprite@@@std@@@?$_Tree@V?$_Tmap_traits@HPAVSprite@@U?$less@H@std@@V?$allocator@U?$pair@$$CBHPAVSprite@@@std@@@3@$0A@@std@@@std@@IAEPAU?$_Tree_node@U?$pair@$$CBHPAVSprite@@@std@@PAX@1@PAU21@AAU?$pair@$$CBHPAVSprite@@@1@@Z 0044c880 f i CommonPathfindingLib:SpriteManager.obj
 0002:0002c8c0       ??$_Insert_at@AAU?$pair@$$CBHPAVSprite@@@std@@PAU?$_Tree_node@U?$pair@$$CBHPAVSprite@@@std@@PAX@2@@?$_Tree@V?$_Tmap_traits@HPAVSprite@@U?$less@H@std@@V?$allocator@U?$pair@$$CBHPAVSprite@@@std@@@3@$0A@@std@@@std@@IAE?AV?$_Tree_iterator@V?$_Tree_val@U?$_Tree_simple_types@U?$pair@$$CBHPAVSprite@@@std@@@std@@@std@@@1@_NPAU?$_Tree_node@U?$pair@$$CBHPAVSprite@@@std@@PAX@1@AAU?$pair@$$CBHPAVSprite@@@1@1@Z 0044c8c0 f i CommonPathfindingLib:SpriteManager.obj
 0002:0002cc60       ??$_Insert_hint@AAU?$pair@$$CBHPAVSprite@@@std@@PAU?$_Tree_node@U?$pair@$$CBHPAVSprite@@@std@@PAX@2@@?$_Tree@V?$_Tmap_traits@HPAVSprite@@U?$less@H@std@@V?$allocator@U?$pair@$$CBHPAVSprite@@@std@@@3@$0A@@std@@@std@@IAE?AV?$_Tree_iterator@V?$_Tree_val@U?$_Tree_simple_types@U?$pair@$$CBHPAVSprite@@@std@@@std@@@std@@@1@V?$_Tree_const_iterator@V?$_Tree_val@U?$_Tree_simple_types@U?$pair@$$CBHPAVSprite@@@std@@@std@@@std@@@1@AAU?$pair@$$CBHPAVSprite@@@1@PAU?$_Tree_node@U?$pair@$$CBHPAVSprite@@@std@@PAX@1@@Z 0044cc60 f i CommonPathfindingLib:SpriteManager.obj
 0002:0002e0c0       ??$_Insert_nohint@AAU?$pair@$$CBHPAVSprite@@@std@@PAU?$_Tree_node@U?$pair@$$CBHPAVSprite@@@std@@PAX@2@@?$_Tree@V?$_Tmap_traits@HPAVSprite@@U?$less@H@std@@V?$allocator@U?$pair@$$CBHPAVSprite@@@std@@@3@$0A@@std@@@std@@IAE?AU?$pair@V?$_Tree_iterator@V?$_Tree_val@U?$_Tree_simple_types@U?$pair@$$CBHPAVSprite@@@std@@@std@@@std@@@std@@_N@1@_NAAU?$pair@$$CBHPAVSprite@@@1@PAU?$_Tree_node@U?$pair@$$CBHPAVSprite@@@std@@PAX@1@@Z 0044e0c0 f i CommonPathfindingLib:SpriteManager.obj
 0002:0002e6f0       ??$_Kfn@$$CBHPAVSprite@@@?$_Tmap_traits@HPAVSprite@@U?$less@H@std@@V?$allocator@U?$pair@$$CBHPAVSprite@@@std@@@3@$0A@@std@@SAABHABU?$pair@$$CBHPAVSprite@@@1@@Z 0044e6f0 f i CommonPathfindingLib:SpriteManager.obj
 0002:0002e730       ??$_Lbound@H@?$_Tree@V?$_Tmap_traits@HPAVSprite@@U?$less@H@std@@V?$allocator@U?$pair@$$CBHPAVSprite@@@std@@@3@$0A@@std@@@std@@IBEPAU?$_Tree_node@U?$pair@$$CBHPAVSprite@@@std@@PAX@1@ABH@Z 0044e730 f i CommonPathfindingLib:SpriteManager.obj
 0002:0002e800       ??$_Try_emplace@ABH$$V@?$map@HPAVSprite@@U?$less@H@std@@V?$allocator@U?$pair@$$CBHPAVSprite@@@std@@@3@@std@@QAE?AU?$pair@V?$_Tree_iterator@V?$_Tree_val@U?$_Tree_simple_types@U?$pair@$$CBHPAVSprite@@@std@@@std@@@std@@@std@@_N@1@ABH@Z 0044e800 f i CommonPathfindingLib:SpriteManager.obj
 0002:0002eb40       ??$addressof@PAU?$_Tree_node@U?$pair@$$CBHPAVSprite@@@std@@PAX@std@@@std@@YAPAPAU?$_Tree_node@U?$pair@$$CBHPAVSprite@@@std@@PAX@0@AAPAU10@@Z 0044eb40 f i CommonPathfindingLib:SpriteManager.obj
 0002:0002eb80       ??$addressof@U?$pair@$$CBHPAVSprite@@@std@@@std@@YAPAU?$pair@$$CBHPAVSprite@@@0@AAU10@@Z 0044eb80 f i CommonPathfindingLib:SpriteManager.obj
 0002:0002ebc0       ??$addressof@V?$_Tree_val@U?$_Tree_simple_types@U?$pair@$$CBHPAVSprite@@@std@@@std@@@std@@@std@@YAPAV?$_Tree_val@U?$_Tree_simple_types@U?$pair@$$CBHPAVSprite@@@std@@@std@@@0@AAV10@@Z 0044ebc0 f i CommonPathfindingLib:SpriteManager.obj
 0002:0002ec00       ??$construct@PAU?$_Tree_node@U?$pair@$$CBHPAVSprite@@@std@@PAX@std@@AAPAU12@@?$_Default_allocator_traits@V?$allocator@U?$_Tree_node@U?$pair@$$CBHPAVSprite@@@std@@PAX@std@@@std@@@std@@SAXAAV?$allocator@U?$_Tree_node@U?$pair@$$CBHPAVSprite@@@std@@PAX@std@@@1@QAPAU?$_Tree_node@U?$pair@$$CBHPAVSprite@@@std@@PAX@1@AAPAU31@@Z 0044ec00 f i CommonPathfindingLib:SpriteManager.obj
 0002:0002ec80       ??$construct@U?$pair@$$CBHPAVSprite@@@std@@ABUpiecewise_construct_t@2@V?$tuple@ABH@2@V?$tuple@$$V@2@@?$_Default_allocator_traits@V?$allocator@U?$_Tree_node@U?$pair@$$CBHPAVSprite@@@std@@PAX@std@@@std@@@std@@SAXAAV?$allocator@U?$_Tree_node@U?$pair@$$CBHPAVSprite@@@std@@PAX@std@@@1@QAU?$pair@$$CBHPAVSprite@@@1@ABUpiecewise_construct_t@1@$$QAV?$tuple@ABH@1@$$QAV?$tuple@$$V@1@@Z 0044ec80 f i CommonPathfindingLib:SpriteManager.obj
 0002:0002eda0       ??$destroy@PAU?$_Tree_node@U?$pair@$$CBHPAVSprite@@@std@@PAX@std@@@?$_Default_allocator_traits@V?$allocator@U?$_Tree_node@U?$pair@$$CBHPAVSprite@@@std@@PAX@std@@@std@@@std@@SAXAAV?$allocator@U?$_Tree_node@U?$pair@$$CBHPAVSprite@@@std@@PAX@std@@@1@QAPAU?$_Tree_node@U?$pair@$$CBHPAVSprite@@@std@@PAX@1@@Z 0044eda0 f i CommonPathfindingLib:SpriteManager.obj
 0002:0002edd0       ??$destroy@U?$pair@$$CBHPAVSprite@@@std@@@?$_Default_allocator_traits@V?$allocator@U?$_Tree_node@U?$pair@$$CBHPAVSprite@@@std@@PAX@std@@@std@@@std@@SAXAAV?$allocator@U?$_Tree_node@U?$pair@$$CBHPAVSprite@@@std@@PAX@std@@@1@QAU?$pair@$$CBHPAVSprite@@@1@@Z 0044edd0 f i CommonPathfindingLib:SpriteManager.obj
 0002:0002ee00       ??$emplace_hint@ABUpiecewise_construct_t@std@@V?$tuple@ABH@2@V?$tuple@$$V@2@@?$_Tree@V?$_Tmap_traits@HPAVSprite@@U?$less@H@std@@V?$allocator@U?$pair@$$CBHPAVSprite@@@std@@@3@$0A@@std@@@std@@QAE?AV?$_Tree_iterator@V?$_Tree_val@U?$_Tree_simple_types@U?$pair@$$CBHPAVSprite@@@std@@@std@@@std@@@1@V?$_Tree_const_iterator@V?$_Tree_val@U?$_Tree_simple_types@U?$pair@$$CBHPAVSprite@@@std@@@std@@@std@@@1@ABUpiecewise_construct_t@1@$$QAV?$tuple@ABH@1@$$QAV?$tuple@$$V@1@@Z 0044ee00 f i CommonPathfindingLib:SpriteManager.obj
 0002:0002ef40       ??$erase@V?$_Tree_iterator@V?$_Tree_val@U?$_Tree_simple_types@U?$pair@$$CBHPAVSprite@@@std@@@std@@@std@@@std@@X@?$_Tree@V?$_Tmap_traits@HPAVSprite@@U?$less@H@std@@V?$allocator@U?$pair@$$CBHPAVSprite@@@std@@@3@$0A@@std@@@std@@QAE?AV?$_Tree_iterator@V?$_Tree_val@U?$_Tree_simple_types@U?$pair@$$CBHPAVSprite@@@std@@@std@@@std@@@1@V21@@Z 0044ef40 f i CommonPathfindingLib:SpriteManager.obj
 0002:0002f030       ??$forward@AAPAU?$_Tree_node@U?$pair@$$CBHPAVSprite@@@std@@PAX@std@@@std@@YAAAPAU?$_Tree_node@U?$pair@$$CBHPAVSprite@@@std@@PAX@0@AAPAU10@@Z 0044f030 f i CommonPathfindingLib:SpriteManager.obj
 0002:0002f070       ??$forward@AAU?$pair@$$CBHPAVSprite@@@std@@@std@@YAAAU?$pair@$$CBHPAVSprite@@@0@AAU10@@Z 0044f070 f i CommonPathfindingLib:SpriteManager.obj
 0002:0002f0b0       ??$forward@AAV?$_Tree_iterator@V?$_Tree_val@U?$_Tree_simple_types@U?$pair@$$CBHPAVSprite@@@std@@@std@@@std@@@std@@@std@@YAAAV?$_Tree_iterator@V?$_Tree_val@U?$_Tree_simple_types@U?$pair@$$CBHPAVSprite@@@std@@@std@@@std@@@0@AAV10@@Z 0044f0b0 f i CommonPathfindingLib:SpriteManager.obj
 0002:0002f0f0       ??$forward@V?$_Tree_iterator@V?$_Tree_val@U?$_Tree_simple_types@U?$pair@$$CBHPAVSprite@@@std@@@std@@@std@@@std@@@std@@YA$$QAV?$_Tree_iterator@V?$_Tree_val@U?$_Tree_simple_types@U?$pair@$$CBHPAVSprite@@@std@@@std@@@std@@@0@AAV10@@Z 0044f0f0 f i CommonPathfindingLib:SpriteManager.obj
 0002:0002f130       ??$try_emplace@$$V@?$map@HPAVSprite@@U?$less@H@std@@V?$allocator@U?$pair@$$CBHPAVSprite@@@std@@@3@@std@@QAE?AU?$pair@V?$_Tree_iterator@V?$_Tree_val@U?$_Tree_simple_types@U?$pair@$$CBHPAVSprite@@@std@@@std@@@std@@@std@@_N@1@ABH@Z 0044f130 f i CommonPathfindingLib:SpriteManager.obj
 0002:0002f1b0       ??0?$_Tree@V?$_Tmap_traits@HPAVSprite@@U?$less@H@std@@V?$allocator@U?$pair@$$CBHPAVSprite@@@std@@@3@$0A@@std@@@std@@QAE@ABU?$less@H@1@@Z 0044f1b0 f i CommonPathfindingLib:SpriteManager.obj
 0002:0002f210       ??0?$_Tree_comp_alloc@V?$_Tmap_traits@HPAVSprite@@U?$less@H@std@@V?$allocator@U?$pair@$$CBHPAVSprite@@@std@@@3@$0A@@std@@@std@@QAE@ABU?$less@H@1@@Z 0044f210 f i CommonPathfindingLib:SpriteManager.obj
 0002:0002f2d0       ??0?$_Tree_const_iterator@V?$_Tree_val@U?$_Tree_simple_types@U?$pair@$$CBHPAVSprite@@@std@@@std@@@std@@@std@@QAE@$$QAV01@@Z 0044f2d0 f i CommonPathfindingLib:SpriteManager.obj
 0002:0002f330       ??0?$_Tree_const_iterator@V?$_Tree_val@U?$_Tree_simple_types@U?$pair@$$CBHPAVSprite@@@std@@@std@@@std@@@std@@QAE@ABV01@@Z 0044f330 f i CommonPathfindingLib:SpriteManager.obj
 0002:0002f390       ??0?$_Tree_const_iterator@V?$_Tree_val@U?$_Tree_simple_types@U?$pair@$$CBHPAVSprite@@@std@@@std@@@std@@@std@@QAE@PAU?$_Tree_node@U?$pair@$$CBHPAVSprite@@@std@@PAX@1@PBV?$_Tree_val@U?$_Tree_simple_types@U?$pair@$$CBHPAVSprite@@@std@@@std@@@1@@Z 0044f390 f i CommonPathfindingLib:SpriteManager.obj
 0002:0002f3f0       ??0?$_Tree_const_iterator@V?$_Tree_val@U?$_Tree_simple_types@U?$pair@$$CBHPAVSprite@@@std@@@std@@@std@@@std@@QAE@XZ 0044f3f0 f i CommonPathfindingLib:SpriteManager.obj
 0002:0002f450       ??0?$_Tree_iterator@V?$_Tree_val@U?$_Tree_simple_types@U?$pair@$$CBHPAVSprite@@@std@@@std@@@std@@@std@@QAE@$$QAV01@@Z 0044f450 f i CommonPathfindingLib:SpriteManager.obj
 0002:0002f4b0       ??0?$_Tree_iterator@V?$_Tree_val@U?$_Tree_simple_types@U?$pair@$$CBHPAVSprite@@@std@@@std@@@std@@@std@@QAE@ABV01@@Z 0044f4b0 f i CommonPathfindingLib:SpriteManager.obj
 0002:0002f510       ??0?$_Tree_iterator@V?$_Tree_val@U?$_Tree_simple_types@U?$pair@$$CBHPAVSprite@@@std@@@std@@@std@@@std@@QAE@PAU?$_Tree_node@U?$pair@$$CBHPAVSprite@@@std@@PAX@1@PBV?$_Tree_val@U?$_Tree_simple_types@U?$pair@$$CBHPAVSprite@@@std@@@std@@@1@@Z 0044f510 f i CommonPathfindingLib:SpriteManager.obj
 0002:0002f570       ??0?$_Tree_iterator@V?$_Tree_val@U?$_Tree_simple_types@U?$pair@$$CBHPAVSprite@@@std@@@std@@@std@@@std@@QAE@XZ 0044f570 f i CommonPathfindingLib:SpriteManager.obj
 0002:0002f5d0       ??0?$_Tree_unchecked_const_iterator@V?$_Tree_val@U?$_Tree_simple_types@U?$pair@$$CBHPAVSprite@@@std@@@std@@@std@@U_Iterator_base12@2@@std@@QAE@$$QAV01@@Z 0044f5d0 f i CommonPathfindingLib:SpriteManager.obj
 0002:0002f640       ??0?$_Tree_unchecked_const_iterator@V?$_Tree_val@U?$_Tree_simple_types@U?$pair@$$CBHPAVSprite@@@std@@@std@@@std@@U_Iterator_base12@2@@std@@QAE@ABV01@@Z 0044f640 f i CommonPathfindingLib:SpriteManager.obj
 0002:0002f6b0       ??0?$_Tree_unchecked_const_iterator@V?$_Tree_val@U?$_Tree_simple_types@U?$pair@$$CBHPAVSprite@@@std@@@std@@@std@@U_Iterator_base12@2@@std@@QAE@PAU?$_Tree_node@U?$pair@$$CBHPAVSprite@@@std@@PAX@1@PBV?$_Tree_val@U?$_Tree_simple_types@U?$pair@$$CBHPAVSprite@@@std@@@std@@@1@@Z 0044f6b0 f i CommonPathfindingLib:SpriteManager.obj
 0002:0002f720       ??0?$_Tree_unchecked_const_iterator@V?$_Tree_val@U?$_Tree_simple_types@U?$pair@$$CBHPAVSprite@@@std@@@std@@@std@@U_Iterator_base12@2@@std@@QAE@XZ 0044f720 f i CommonPathfindingLib:SpriteManager.obj
 0002:0002f780       ??0?$_Tree_val@U?$_Tree_simple_types@U?$pair@$$CBHPAVSprite@@@std@@@std@@@std@@QAE@XZ 0044f780 f i CommonPathfindingLib:SpriteManager.obj
 0002:0002f7f0       ??0?$allocator@U?$_Tree_node@U?$pair@$$CBHPAVSprite@@@std@@PAX@std@@@std@@QAE@XZ 0044f7f0 f i CommonPathfindingLib:SpriteManager.obj
 0002:0002f830       ??0?$map@HPAVSprite@@U?$less@H@std@@V?$allocator@U?$pair@$$CBHPAVSprite@@@std@@@3@@std@@QAE@XZ 0044f830 f i CommonPathfindingLib:SpriteManager.obj
 0002:0002f890       ??0SpriteManager@@QAE@XZ   0044f890 f   CommonPathfindingLib:SpriteManager.obj
 0002:0002f8f0       ??1?$_Compressed_pair@U?$less@H@std@@V?$_Compressed_pair@V?$allocator@U?$_Tree_node@U?$pair@$$CBHPAVSprite@@@std@@PAX@std@@@std@@V?$_Tree_val@U?$_Tree_simple_types@U?$pair@$$CBHPAVSprite@@@std@@@std@@@2@$00@2@$00@std@@QAE@XZ 0044f8f0 f i CommonPathfindingLib:SpriteManager.obj
 0002:0002f940       ??1?$_Compressed_pair@V?$allocator@U?$_Tree_node@U?$pair@$$CBHPAVSprite@@@std@@PAX@std@@@std@@V?$_Tree_val@U?$_Tree_simple_types@U?$pair@$$CBHPAVSprite@@@std@@@std@@@2@$00@std@@QAE@XZ 0044f940 f i CommonPathfindingLib:SpriteManager.obj
 0002:0002f990       ??1?$_Tree@V?$_Tmap_traits@HPAVSprite@@U?$less@H@std@@V?$allocator@U?$pair@$$CBHPAVSprite@@@std@@@3@$0A@@std@@@std@@QAE@XZ 0044f990 f i CommonPathfindingLib:SpriteManager.obj
 0002:0002fa20       ??1?$_Tree_comp_alloc@V?$_Tmap_traits@HPAVSprite@@U?$less@H@std@@V?$allocator@U?$pair@$$CBHPAVSprite@@@std@@@3@$0A@@std@@@std@@QAE@XZ 0044fa20 f i CommonPathfindingLib:SpriteManager.obj
 0002:0002fad0       ??1?$_Tree_const_iterator@V?$_Tree_val@U?$_Tree_simple_types@U?$pair@$$CBHPAVSprite@@@std@@@std@@@std@@@std@@QAE@XZ 0044fad0 f i CommonPathfindingLib:SpriteManager.obj
 0002:0002fb20       ??1?$_Tree_iterator@V?$_Tree_val@U?$_Tree_simple_types@U?$pair@$$CBHPAVSprite@@@std@@@std@@@std@@@std@@QAE@XZ 0044fb20 f i CommonPathfindingLib:SpriteManager.obj
 0002:0002fb70       ??1?$_Tree_unchecked_const_iterator@V?$_Tree_val@U?$_Tree_simple_types@U?$pair@$$CBHPAVSprite@@@std@@@std@@@std@@U_Iterator_base12@2@@std@@QAE@XZ 0044fb70 f i CommonPathfindingLib:SpriteManager.obj
 0002:0002fbc0       ??1?$_Tree_val@U?$_Tree_simple_types@U?$pair@$$CBHPAVSprite@@@std@@@std@@@std@@QAE@XZ 0044fbc0 f i CommonPathfindingLib:SpriteManager.obj
 0002:0002fc10       ??1?$map@HPAVSprite@@U?$less@H@std@@V?$allocator@U?$pair@$$CBHPAVSprite@@@std@@@3@@std@@QAE@XZ 0044fc10 f i CommonPathfindingLib:SpriteManager.obj
 0002:0002fc60       ??1?$pair@V?$_Tree_iterator@V?$_Tree_val@U?$_Tree_simple_types@U?$pair@$$CBHPAVSprite@@@std@@@std@@@std@@@std@@_N@std@@QAE@XZ 0044fc60 f i CommonPathfindingLib:SpriteManager.obj
 0002:0002fcb0       ??1SpriteManager@@QAE@XZ   0044fcb0 f   CommonPathfindingLib:SpriteManager.obj
 0002:0002fe60       ??4?$_Tree_const_iterator@V?$_Tree_val@U?$_Tree_simple_types@U?$pair@$$CBHPAVSprite@@@std@@@std@@@std@@@std@@QAEAAV01@$$QAV01@@Z 0044fe60 f i CommonPathfindingLib:SpriteManager.obj
 0002:0002fec0       ??4?$_Tree_const_iterator@V?$_Tree_val@U?$_Tree_simple_types@U?$pair@$$CBHPAVSprite@@@std@@@std@@@std@@@std@@QAEAAV01@ABV01@@Z 0044fec0 f i CommonPathfindingLib:SpriteManager.obj
 0002:0002ff20       ??4?$_Tree_iterator@V?$_Tree_val@U?$_Tree_simple_types@U?$pair@$$CBHPAVSprite@@@std@@@std@@@std@@@std@@QAEAAV01@$$QAV01@@Z 0044ff20 f i CommonPathfindingLib:SpriteManager.obj
 0002:0002ff80       ??4?$_Tree_unchecked_const_iterator@V?$_Tree_val@U?$_Tree_simple_types@U?$pair@$$CBHPAVSprite@@@std@@@std@@@std@@U_Iterator_base12@2@@std@@QAEAAV01@$$QAV01@@Z 0044ff80 f i CommonPathfindingLib:SpriteManager.obj
 0002:0002fff0       ??4?$_Tree_unchecked_const_iterator@V?$_Tree_val@U?$_Tree_simple_types@U?$pair@$$CBHPAVSprite@@@std@@@std@@@std@@U_Iterator_base12@2@@std@@QAEAAV01@ABV01@@Z 0044fff0 f i CommonPathfindingLib:SpriteManager.obj
 0002:00030060       ??8?$_Tree_const_iterator@V?$_Tree_val@U?$_Tree_simple_types@U?$pair@$$CBHPAVSprite@@@std@@@std@@@std@@@std@@QBE_NABV01@@Z 00450060 f i CommonPathfindingLib:SpriteManager.obj
 0002:00030150       ??9?$_Tree_const_iterator@V?$_Tree_val@U?$_Tree_simple_types@U?$pair@$$CBHPAVSprite@@@std@@@std@@@std@@@std@@QBE_NABV01@@Z 00450150 f i CommonPathfindingLib:SpriteManager.obj
 0002:000301e0       ??A?$map@HPAVSprite@@U?$less@H@std@@V?$allocator@U?$pair@$$CBHPAVSprite@@@std@@@3@@std@@QAEAAPAVSprite@@ABH@Z 004501e0 f i CommonPathfindingLib:SpriteManager.obj
 0002:000302d0       ??C?$_Tree_iterator@V?$_Tree_val@U?$_Tree_simple_types@U?$pair@$$CBHPAVSprite@@@std@@@std@@@std@@@std@@QBEPAU?$pair@$$CBHPAVSprite@@@1@XZ 004502d0 f i CommonPathfindingLib:SpriteManager.obj
 0002:00030330       ??D?$_Tree_const_iterator@V?$_Tree_val@U?$_Tree_simple_types@U?$pair@$$CBHPAVSprite@@@std@@@std@@@std@@@std@@QBEABU?$pair@$$CBHPAVSprite@@@1@XZ 00450330 f i CommonPathfindingLib:SpriteManager.obj
 0002:00030400       ??D?$_Tree_iterator@V?$_Tree_val@U?$_Tree_simple_types@U?$pair@$$CBHPAVSprite@@@std@@@std@@@std@@@std@@QBEAAU?$pair@$$CBHPAVSprite@@@1@XZ 00450400 f i CommonPathfindingLib:SpriteManager.obj
 0002:00030450       ??E?$_Tree_const_iterator@V?$_Tree_val@U?$_Tree_simple_types@U?$pair@$$CBHPAVSprite@@@std@@@std@@@std@@@std@@QAE?AV01@H@Z 00450450 f i CommonPathfindingLib:SpriteManager.obj
 0002:00030570       ??E?$_Tree_const_iterator@V?$_Tree_val@U?$_Tree_simple_types@U?$pair@$$CBHPAVSprite@@@std@@@std@@@std@@@std@@QAEAAV01@XZ 00450570 f i CommonPathfindingLib:SpriteManager.obj
 0002:00030640       ??E?$_Tree_iterator@V?$_Tree_val@U?$_Tree_simple_types@U?$pair@$$CBHPAVSprite@@@std@@@std@@@std@@@std@@QAEAAV01@XZ 00450640 f i CommonPathfindingLib:SpriteManager.obj
 0002:000306a0       ??E?$_Tree_unchecked_const_iterator@V?$_Tree_val@U?$_Tree_simple_types@U?$pair@$$CBHPAVSprite@@@std@@@std@@@std@@U_Iterator_base12@2@@std@@QAEAAV01@XZ 004506a0 f i CommonPathfindingLib:SpriteManager.obj
 0002:00030780       ??F?$_Tree_const_iterator@V?$_Tree_val@U?$_Tree_simple_types@U?$pair@$$CBHPAVSprite@@@std@@@std@@@std@@@std@@QAEAAV01@XZ 00450780 f i CommonPathfindingLib:SpriteManager.obj
 0002:000308b0       ??F?$_Tree_iterator@V?$_Tree_val@U?$_Tree_simple_types@U?$pair@$$CBHPAVSprite@@@std@@@std@@@std@@@std@@QAEAAV01@XZ 004508b0 f i CommonPathfindingLib:SpriteManager.obj
 0002:00030910       ??F?$_Tree_unchecked_const_iterator@V?$_Tree_val@U?$_Tree_simple_types@U?$pair@$$CBHPAVSprite@@@std@@@std@@@std@@U_Iterator_base12@2@@std@@QAEAAV01@XZ 00450910 f i CommonPathfindingLib:SpriteManager.obj
 0002:00030a10       ??_GSprite@@QAEPAXI@Z      00450a10 f i CommonPathfindingLib:SpriteManager.obj
 0002:00030aa0       ?_Alloc_proxy@?$_Tree_comp_alloc@V?$_Tmap_traits@HPAVSprite@@U?$less@H@std@@V?$allocator@U?$pair@$$CBHPAVSprite@@@std@@@3@$0A@@std@@@std@@QAEXXZ 00450aa0 f i CommonPathfindingLib:SpriteManager.obj
 0002:00030bc0       ?_Buyheadnode@?$_Tree_comp_alloc@V?$_Tmap_traits@HPAVSprite@@U?$less@H@std@@V?$allocator@U?$pair@$$CBHPAVSprite@@@std@@@3@$0A@@std@@@std@@QAEPAU?$_Tree_node@U?$pair@$$CBHPAVSprite@@@std@@PAX@2@XZ 00450bc0 f i CommonPathfindingLib:SpriteManager.obj
 0002:00030d70       ?_Buynode0@?$_Tree_comp_alloc@V?$_Tmap_traits@HPAVSprite@@U?$less@H@std@@V?$allocator@U?$pair@$$CBHPAVSprite@@@std@@@3@$0A@@std@@@std@@QAEPAU?$_Tree_node@U?$pair@$$CBHPAVSprite@@@std@@PAX@2@XZ 00450d70 f i CommonPathfindingLib:SpriteManager.obj
 0002:00030ee0       ?_Compare@?$_Tree@V?$_Tmap_traits@HPAVSprite@@U?$less@H@std@@V?$allocator@U?$pair@$$CBHPAVSprite@@@std@@@3@$0A@@std@@@std@@IBE_NABH0@Z 00450ee0 f i CommonPathfindingLib:SpriteManager.obj
 0002:00030f60       ?_Construct@?$_Tree_comp_alloc@V?$_Tmap_traits@HPAVSprite@@U?$less@H@std@@V?$allocator@U?$pair@$$CBHPAVSprite@@@std@@@3@$0A@@std@@@std@@QAEXXZ 00450f60 f i CommonPathfindingLib:SpriteManager.obj
 0002:00031050       ?_Destroy_if_not_nil@?$_Tree@V?$_Tmap_traits@HPAVSprite@@U?$less@H@std@@V?$allocator@U?$pair@$$CBHPAVSprite@@@std@@@3@$0A@@std@@@std@@IAEXPAU?$_Tree_node@U?$pair@$$CBHPAVSprite@@@std@@PAX@2@@Z 00451050 f i CommonPathfindingLib:SpriteManager.obj
 0002:000310e0       ?_Erase@?$_Tree@V?$_Tmap_traits@HPAVSprite@@U?$less@H@std@@V?$allocator@U?$pair@$$CBHPAVSprite@@@std@@@3@$0A@@std@@@std@@IAEXPAU?$_Tree_node@U?$pair@$$CBHPAVSprite@@@std@@PAX@2@@Z 004510e0 f i CommonPathfindingLib:SpriteManager.obj
 0002:000311b0       ?_Free_proxy@?$_Tree_comp_alloc@V?$_Tmap_traits@HPAVSprite@@U?$less@H@std@@V?$allocator@U?$pair@$$CBHPAVSprite@@@std@@@3@$0A@@std@@@std@@QAEXXZ 004511b0 f i CommonPathfindingLib:SpriteManager.obj
 0002:000312b0       ?_Freeheadnode@?$_Tree_comp_alloc@V?$_Tmap_traits@HPAVSprite@@U?$less@H@std@@V?$allocator@U?$pair@$$CBHPAVSprite@@@std@@@3@$0A@@std@@@std@@QAEXPAU?$_Tree_node@U?$pair@$$CBHPAVSprite@@@std@@PAX@2@@Z 004512b0 f i CommonPathfindingLib:SpriteManager.obj
 0002:00031380       ?_Freenode0@?$_Tree_comp_alloc@V?$_Tmap_traits@HPAVSprite@@U?$less@H@std@@V?$allocator@U?$pair@$$CBHPAVSprite@@@std@@@3@$0A@@std@@@std@@QAEXPAU?$_Tree_node@U?$pair@$$CBHPAVSprite@@@std@@PAX@2@@Z 00451380 f i CommonPathfindingLib:SpriteManager.obj
 0002:00031450       ?_Get_data@?$_Tree_comp_alloc@V?$_Tmap_traits@HPAVSprite@@U?$less@H@std@@V?$allocator@U?$pair@$$CBHPAVSprite@@@std@@@3@$0A@@std@@@std@@QAEAAV?$_Tree_val@U?$_Tree_simple_types@U?$pair@$$CBHPAVSprite@@@std@@@std@@@2@XZ 00451450 f i CommonPathfindingLib:SpriteManager.obj
 0002:000314b0       ?_Get_data@?$_Tree_comp_alloc@V?$_Tmap_traits@HPAVSprite@@U?$less@H@std@@V?$allocator@U?$pair@$$CBHPAVSprite@@@std@@@3@$0A@@std@@@std@@QBEABV?$_Tree_val@U?$_Tree_simple_types@U?$pair@$$CBHPAVSprite@@@std@@@std@@@2@XZ 004514b0 f i CommonPathfindingLib:SpriteManager.obj
 0002:00031510       ?_Get_first@?$_Compressed_pair@U?$less@H@std@@V?$_Compressed_pair@V?$allocator@U?$_Tree_node@U?$pair@$$CBHPAVSprite@@@std@@PAX@std@@@std@@V?$_Tree_val@U?$_Tree_simple_types@U?$pair@$$CBHPAVSprite@@@std@@@std@@@2@$00@2@$00@std@@QAEAAU?$less@H@2@XZ 00451510 f i CommonPathfindingLib:SpriteManager.obj
 0002:00031550       ?_Get_first@?$_Compressed_pair@U?$less@H@std@@V?$_Compressed_pair@V?$allocator@U?$_Tree_node@U?$pair@$$CBHPAVSprite@@@std@@PAX@std@@@std@@V?$_Tree_val@U?$_Tree_simple_types@U?$pair@$$CBHPAVSprite@@@std@@@std@@@2@$00@2@$00@std@@QBEABU?$less@H@2@XZ 00451550 f i CommonPathfindingLib:SpriteManager.obj
 0002:00031590       ?_Get_first@?$_Compressed_pair@V?$allocator@U?$_Tree_node@U?$pair@$$CBHPAVSprite@@@std@@PAX@std@@@std@@V?$_Tree_val@U?$_Tree_simple_types@U?$pair@$$CBHPAVSprite@@@std@@@std@@@2@$00@std@@QAEAAV?$allocator@U?$_Tree_node@U?$pair@$$CBHPAVSprite@@@std@@PAX@std@@@2@XZ 00451590 f i CommonPathfindingLib:SpriteManager.obj
 0002:000315d0       ?_Get_first@?$_Compressed_pair@V?$allocator@U?$_Tree_node@U?$pair@$$CBHPAVSprite@@@std@@PAX@std@@@std@@V?$_Tree_val@U?$_Tree_simple_types@U?$pair@$$CBHPAVSprite@@@std@@@std@@@2@$00@std@@QBEABV?$allocator@U?$_Tree_node@U?$pair@$$CBHPAVSprite@@@std@@PAX@std@@@2@XZ 004515d0 f i CommonPathfindingLib:SpriteManager.obj
 0002:00031610       ?_Get_second@?$_Compressed_pair@U?$less@H@std@@V?$_Compressed_pair@V?$allocator@U?$_Tree_node@U?$pair@$$CBHPAVSprite@@@std@@PAX@std@@@std@@V?$_Tree_val@U?$_Tree_simple_types@U?$pair@$$CBHPAVSprite@@@std@@@std@@@2@$00@2@$00@std@@QAEAAV?$_Compressed_pair@V?$allocator@U?$_Tree_node@U?$pair@$$CBHPAVSprite@@@std@@PAX@std@@@std@@V?$_Tree_val@U?$_Tree_simple_types@U?$pair@$$CBHPAVSprite@@@std@@@std@@@2@$00@2@XZ 00451610 f i CommonPathfindingLib:SpriteManager.obj
 0002:00031650       ?_Get_second@?$_Compressed_pair@U?$less@H@std@@V?$_Compressed_pair@V?$allocator@U?$_Tree_node@U?$pair@$$CBHPAVSprite@@@std@@PAX@std@@@std@@V?$_Tree_val@U?$_Tree_simple_types@U?$pair@$$CBHPAVSprite@@@std@@@std@@@2@$00@2@$00@std@@QBEABV?$_Compressed_pair@V?$allocator@U?$_Tree_node@U?$pair@$$CBHPAVSprite@@@std@@PAX@std@@@std@@V?$_Tree_val@U?$_Tree_simple_types@U?$pair@$$CBHPAVSprite@@@std@@@std@@@2@$00@2@XZ 00451650 f i CommonPathfindingLib:SpriteManager.obj
 0002:00031690       ?_Get_second@?$_Compressed_pair@V?$allocator@U?$_Tree_node@U?$pair@$$CBHPAVSprite@@@std@@PAX@std@@@std@@V?$_Tree_val@U?$_Tree_simple_types@U?$pair@$$CBHPAVSprite@@@std@@@std@@@2@$00@std@@QAEAAV?$_Tree_val@U?$_Tree_simple_types@U?$pair@$$CBHPAVSprite@@@std@@@std@@@2@XZ 00451690 f i CommonPathfindingLib:SpriteManager.obj
 0002:000316d0       ?_Get_second@?$_Compressed_pair@V?$allocator@U?$_Tree_node@U?$pair@$$CBHPAVSprite@@@std@@PAX@std@@@std@@V?$_Tree_val@U?$_Tree_simple_types@U?$pair@$$CBHPAVSprite@@@std@@@std@@@2@$00@std@@QBEABV?$_Tree_val@U?$_Tree_simple_types@U?$pair@$$CBHPAVSprite@@@std@@@std@@@2@XZ 004516d0 f i CommonPathfindingLib:SpriteManager.obj
 0002:00031710       ?_Getal@?$_Tree_comp_alloc@V?$_Tmap_traits@HPAVSprite@@U?$less@H@std@@V?$allocator@U?$pair@$$CBHPAVSprite@@@std@@@3@$0A@@std@@@std@@QAEAAV?$allocator@U?$_Tree_node@U?$pair@$$CBHPAVSprite@@@std@@PAX@std@@@2@XZ 00451710 f i CommonPathfindingLib:SpriteManager.obj
 0002:00031770       ?_Getal@?$_Tree_comp_alloc@V?$_Tmap_traits@HPAVSprite@@U?$less@H@std@@V?$allocator@U?$pair@$$CBHPAVSprite@@@std@@@3@$0A@@std@@@std@@QBEABV?$allocator@U?$_Tree_node@U?$pair@$$CBHPAVSprite@@@std@@PAX@std@@@2@XZ 00451770 f i CommonPathfindingLib:SpriteManager.obj
 0002:000317d0       ?_Getcomp@?$_Tree_comp_alloc@V?$_Tmap_traits@HPAVSprite@@U?$less@H@std@@V?$allocator@U?$pair@$$CBHPAVSprite@@@std@@@3@$0A@@std@@@std@@QAEAAU?$less@H@2@XZ 004517d0 f i CommonPathfindingLib:SpriteManager.obj
 0002:00031820       ?_Getcomp@?$_Tree_comp_alloc@V?$_Tmap_traits@HPAVSprite@@U?$less@H@std@@V?$allocator@U?$pair@$$CBHPAVSprite@@@std@@@3@$0A@@std@@@std@@QBEABU?$less@H@2@XZ 00451820 f i CommonPathfindingLib:SpriteManager.obj
 0002:00031870       ?_Getpfirst@?$_Tree_comp_alloc@V?$_Tmap_traits@HPAVSprite@@U?$less@H@std@@V?$allocator@U?$pair@$$CBHPAVSprite@@@std@@@3@$0A@@std@@@std@@QBEPAPAU_Iterator_base12@2@XZ 00451870 f i CommonPathfindingLib:SpriteManager.obj
 0002:000318d0       ?_Key@?$_Tree@V?$_Tmap_traits@HPAVSprite@@U?$less@H@std@@V?$allocator@U?$pair@$$CBHPAVSprite@@@std@@@3@$0A@@std@@@std@@IBEABHPAU?$_Tree_node@U?$pair@$$CBHPAVSprite@@@std@@PAX@2@@Z 004518d0 f i CommonPathfindingLib:SpriteManager.obj
 0002:00031930       ?_Kfn@?$_Tree@V?$_Tmap_traits@HPAVSprite@@U?$less@H@std@@V?$allocator@U?$pair@$$CBHPAVSprite@@@std@@@3@$0A@@std@@@std@@IBEABHABU?$pair@$$CBHPAVSprite@@@2@@Z 00451930 f i CommonPathfindingLib:SpriteManager.obj
 0002:00031990       ?_Lmost@?$_Tree@V?$_Tmap_traits@HPAVSprite@@U?$less@H@std@@V?$allocator@U?$pair@$$CBHPAVSprite@@@std@@@3@$0A@@std@@@std@@IBEAAPAU?$_Tree_node@U?$pair@$$CBHPAVSprite@@@std@@PAX@2@XZ 00451990 f i CommonPathfindingLib:SpriteManager.obj
 0002:000319f0       ?_Lrotate@?$_Tree@V?$_Tmap_traits@HPAVSprite@@U?$less@H@std@@V?$allocator@U?$pair@$$CBHPAVSprite@@@std@@@3@$0A@@std@@@std@@IAEXPAU?$_Tree_node@U?$pair@$$CBHPAVSprite@@@std@@PAX@2@@Z 004519f0 f i CommonPathfindingLib:SpriteManager.obj
 0002:00031af0       ?_Max@?$_Tree_comp_alloc@V?$_Tmap_traits@HPAVSprite@@U?$less@H@std@@V?$allocator@U?$pair@$$CBHPAVSprite@@@std@@@3@$0A@@std@@@std@@SAPAU?$_Tree_node@U?$pair@$$CBHPAVSprite@@@std@@PAX@2@PAU32@@Z 00451af0 f i CommonPathfindingLib:SpriteManager.obj
 0002:00031b40       ?_Max@?$_Tree_val@U?$_Tree_simple_types@U?$pair@$$CBHPAVSprite@@@std@@@std@@@std@@SAPAU?$_Tree_node@U?$pair@$$CBHPAVSprite@@@std@@PAX@2@PAU32@@Z 00451b40 f i CommonPathfindingLib:SpriteManager.obj
 0002:00031ba0       ?_Min@?$_Tree_comp_alloc@V?$_Tmap_traits@HPAVSprite@@U?$less@H@std@@V?$allocator@U?$pair@$$CBHPAVSprite@@@std@@@3@$0A@@std@@@std@@SAPAU?$_Tree_node@U?$pair@$$CBHPAVSprite@@@std@@PAX@2@PAU32@@Z 00451ba0 f i CommonPathfindingLib:SpriteManager.obj
 0002:00031bf0       ?_Min@?$_Tree_val@U?$_Tree_simple_types@U?$pair@$$CBHPAVSprite@@@std@@@std@@@std@@SAPAU?$_Tree_node@U?$pair@$$CBHPAVSprite@@@std@@PAX@2@PAU32@@Z 00451bf0 f i CommonPathfindingLib:SpriteManager.obj
 0002:00031c40       ?_Myhead@?$_Tree_comp_alloc@V?$_Tmap_traits@HPAVSprite@@U?$less@H@std@@V?$allocator@U?$pair@$$CBHPAVSprite@@@std@@@3@$0A@@std@@@std@@QAEAAPAU?$_Tree_node@U?$pair@$$CBHPAVSprite@@@std@@PAX@2@XZ 00451c40 f i CommonPathfindingLib:SpriteManager.obj
 0002:00031ca0       ?_Myhead@?$_Tree_comp_alloc@V?$_Tmap_traits@HPAVSprite@@U?$less@H@std@@V?$allocator@U?$pair@$$CBHPAVSprite@@@std@@@3@$0A@@std@@@std@@QBEABQAU?$_Tree_node@U?$pair@$$CBHPAVSprite@@@std@@PAX@2@XZ 00451ca0 f i CommonPathfindingLib:SpriteManager.obj
 0002:00031d00       ?_Mynode@?$_Tree_unchecked_const_iterator@V?$_Tree_val@U?$_Tree_simple_types@U?$pair@$$CBHPAVSprite@@@std@@@std@@@std@@U_Iterator_base12@2@@std@@QBEPAU?$_Tree_node@U?$pair@$$CBHPAVSprite@@@std@@PAX@2@XZ 00451d00 f i CommonPathfindingLib:SpriteManager.obj
 0002:00031d40       ?_Myproxy@?$_Tree_comp_alloc@V?$_Tmap_traits@HPAVSprite@@U?$less@H@std@@V?$allocator@U?$pair@$$CBHPAVSprite@@@std@@@3@$0A@@std@@@std@@QAEAAPAU_Container_proxy@2@XZ 00451d40 f i CommonPathfindingLib:SpriteManager.obj
 0002:00031d90       ?_Mysize@?$_Tree_comp_alloc@V?$_Tmap_traits@HPAVSprite@@U?$less@H@std@@V?$allocator@U?$pair@$$CBHPAVSprite@@@std@@@3@$0A@@std@@@std@@QAEAAIXZ 00451d90 f i CommonPathfindingLib:SpriteManager.obj
 0002:00031df0       ?_Mysize@?$_Tree_comp_alloc@V?$_Tmap_traits@HPAVSprite@@U?$less@H@std@@V?$allocator@U?$pair@$$CBHPAVSprite@@@std@@@3@$0A@@std@@@std@@QBEABIXZ 00451df0 f i CommonPathfindingLib:SpriteManager.obj
 0002:00031e50       ?_Orphan_all@?$_Tree_comp_alloc@V?$_Tmap_traits@HPAVSprite@@U?$less@H@std@@V?$allocator@U?$pair@$$CBHPAVSprite@@@std@@@3@$0A@@std@@@std@@QAEXXZ 00451e50 f i CommonPathfindingLib:SpriteManager.obj
 0002:00031eb0       ?_Orphan_ptr@?$_Tree@V?$_Tmap_traits@HPAVSprite@@U?$less@H@std@@V?$allocator@U?$pair@$$CBHPAVSprite@@@std@@@3@$0A@@std@@@std@@IAEXPAU?$_Tree_node@U?$pair@$$CBHPAVSprite@@@std@@PAX@2@@Z 00451eb0 f i CommonPathfindingLib:SpriteManager.obj
 0002:00032030       ?_Rmost@?$_Tree@V?$_Tmap_traits@HPAVSprite@@U?$less@H@std@@V?$allocator@U?$pair@$$CBHPAVSprite@@@std@@@3@$0A@@std@@@std@@IBEAAPAU?$_Tree_node@U?$pair@$$CBHPAVSprite@@@std@@PAX@2@XZ 00452030 f i CommonPathfindingLib:SpriteManager.obj
 0002:00032090       ?_Root@?$_Tree@V?$_Tmap_traits@HPAVSprite@@U?$less@H@std@@V?$allocator@U?$pair@$$CBHPAVSprite@@@std@@@3@$0A@@std@@@std@@IBEAAPAU?$_Tree_node@U?$pair@$$CBHPAVSprite@@@std@@PAX@2@XZ 00452090 f i CommonPathfindingLib:SpriteManager.obj
 0002:000320f0       ?_Rrotate@?$_Tree@V?$_Tmap_traits@HPAVSprite@@U?$less@H@std@@V?$allocator@U?$pair@$$CBHPAVSprite@@@std@@@3@$0A@@std@@@std@@IAEXPAU?$_Tree_node@U?$pair@$$CBHPAVSprite@@@std@@PAX@2@@Z 004520f0 f i CommonPathfindingLib:SpriteManager.obj
 0002:000321f0       ?_Tidy@?$_Tree@V?$_Tmap_traits@HPAVSprite@@U?$less@H@std@@V?$allocator@U?$pair@$$CBHPAVSprite@@@std@@@3@$0A@@std@@@std@@IAEXXZ 004521f0 f i CommonPathfindingLib:SpriteManager.obj
 0002:00032360       ?allocate@?$allocator@U?$_Tree_node@U?$pair@$$CBHPAVSprite@@@std@@PAX@std@@@std@@QAEPAU?$_Tree_node@U?$pair@$$CBHPAVSprite@@@std@@PAX@2@I@Z 00452360 f i CommonPathfindingLib:SpriteManager.obj
 0002:000323c0       ?begin@?$_Tree@V?$_Tmap_traits@HPAVSprite@@U?$less@H@std@@V?$allocator@U?$pair@$$CBHPAVSprite@@@std@@@3@$0A@@std@@@std@@QAE?AV?$_Tree_iterator@V?$_Tree_val@U?$_Tree_simple_types@U?$pair@$$CBHPAVSprite@@@std@@@std@@@std@@@2@XZ 004523c0 f i CommonPathfindingLib:SpriteManager.obj
 0002:00032470       ?clear@?$_Tree@V?$_Tmap_traits@HPAVSprite@@U?$less@H@std@@V?$allocator@U?$pair@$$CBHPAVSprite@@@std@@@3@$0A@@std@@@std@@QAEXXZ 00452470 f i CommonPathfindingLib:SpriteManager.obj
 0002:00032580       ?createAndManageSprite@SpriteManager@@QAEPAVSprite@@ABHPAVGraphicsBuffer@@MMMM@Z 00452580 f   CommonPathfindingLib:SpriteManager.obj
 0002:00032830       ?deallocate@?$allocator@U?$_Tree_node@U?$pair@$$CBHPAVSprite@@@std@@PAX@std@@@std@@QAEXQAU?$_Tree_node@U?$pair@$$CBHPAVSprite@@@std@@PAX@2@I@Z 00452830 f i CommonPathfindingLib:SpriteManager.obj
 0002:00032890       ?destroySprite@SpriteManager@@QAEXABH@Z 00452890 f   CommonPathfindingLib:SpriteManager.obj
 0002:00032a80       ?end@?$_Tree@V?$_Tmap_traits@HPAVSprite@@U?$less@H@std@@V?$allocator@U?$pair@$$CBHPAVSprite@@@std@@@3@$0A@@std@@@std@@QAE?AV?$_Tree_iterator@V?$_Tree_val@U?$_Tree_simple_types@U?$pair@$$CBHPAVSprite@@@std@@@std@@@std@@@2@XZ 00452a80 f i CommonPathfindingLib:SpriteManager.obj
 0002:00032b30       ?erase@?$_Tree@V?$_Tmap_traits@HPAVSprite@@U?$less@H@std@@V?$allocator@U?$pair@$$CBHPAVSprite@@@std@@@3@$0A@@std@@@std@@QAE?AV?$_Tree_iterator@V?$_Tree_val@U?$_Tree_simple_types@U?$pair@$$CBHPAVSprite@@@std@@@std@@@std@@@2@V?$_Tree_const_iterator@V?$_Tree_val@U?$_Tree_simple_types@U?$pair@$$CBHPAVSprite@@@std@@@std@@@std@@@2@0@Z 00452b30 f i CommonPathfindingLib:SpriteManager.obj
 0002:00032e50       ?erase@?$_Tree@V?$_Tmap_traits@HPAVSprite@@U?$less@H@std@@V?$allocator@U?$pair@$$CBHPAVSprite@@@std@@@3@$0A@@std@@@std@@QAE?AV?$_Tree_iterator@V?$_Tree_val@U?$_Tree_simple_types@U?$pair@$$CBHPAVSprite@@@std@@@std@@@std@@@2@V?$_Tree_const_iterator@V?$_Tree_val@U?$_Tree_simple_types@U?$pair@$$CBHPAVSprite@@@std@@@std@@@std@@@2@@Z 00452e50 f i CommonPathfindingLib:SpriteManager.obj
 0002:00033580       ?find@?$_Tree@V?$_Tmap_traits@HPAVSprite@@U?$less@H@std@@V?$allocator@U?$pair@$$CBHPAVSprite@@@std@@@3@$0A@@std@@@std@@QAE?AV?$_Tree_iterator@V?$_Tree_val@U?$_Tree_simple_types@U?$pair@$$CBHPAVSprite@@@std@@@std@@@std@@@2@ABH@Z 00453580 f i CommonPathfindingLib:SpriteManager.obj
 0002:00033840       ?getSprite@SpriteManager@@QAEPAVSprite@@ABH@Z 00453840 f   CommonPathfindingLib:SpriteManager.obj
 0002:000339f0       ?lower_bound@?$_Tree@V?$_Tmap_traits@HPAVSprite@@U?$less@H@std@@V?$allocator@U?$pair@$$CBHPAVSprite@@@std@@@3@$0A@@std@@@std@@QAE?AV?$_Tree_iterator@V?$_Tree_val@U?$_Tree_simple_types@U?$pair@$$CBHPAVSprite@@@std@@@std@@@std@@@2@ABH@Z 004539f0 f i CommonPathfindingLib:SpriteManager.obj
 0002:00033a90       ?max_size@?$_Default_allocator_traits@V?$allocator@U?$_Tree_node@U?$pair@$$CBHPAVSprite@@@std@@PAX@std@@@std@@@std@@SAIABV?$allocator@U?$_Tree_node@U?$pair@$$CBHPAVSprite@@@std@@PAX@std@@@2@@Z 00453a90 f i CommonPathfindingLib:SpriteManager.obj
 0002:00033ad0       ?max_size@?$_Tree@V?$_Tmap_traits@HPAVSprite@@U?$less@H@std@@V?$allocator@U?$pair@$$CBHPAVSprite@@@std@@@3@$0A@@std@@@std@@QBEIXZ 00453ad0 f i CommonPathfindingLib:SpriteManager.obj
 0002:00033b30       ?pointer_to@?$pointer_traits@PAU?$pair@$$CBHPAVSprite@@@std@@@std@@SAPAU?$pair@$$CBHPAVSprite@@@2@AAU32@@Z 00453b30 f i CommonPathfindingLib:SpriteManager.obj
 0002:00033b80       ?size@?$_Tree@V?$_Tmap_traits@HPAVSprite@@U?$less@H@std@@V?$allocator@U?$pair@$$CBHPAVSprite@@@std@@@3@$0A@@std@@@std@@QBEIXZ 00453b80 f i CommonPathfindingLib:SpriteManager.obj
 0002:00033be0       ??0GraphicsSystem@@QAE@XZ  00453be0 f   CommonPathfindingLib:GraphicsSystem.obj
 0002:00033c50       ??1GraphicsSystem@@QAE@XZ  00453c50 f   CommonPathfindingLib:GraphicsSystem.obj
 0002:00033ce0       ??RAllegroColorCompare@@QBE_NABUALLEGRO_COLOR@@0@Z 00453ce0 f   CommonPathfindingLib:GraphicsSystem.obj
 0002:00033e00       ?cleanup@GraphicsSystem@@QAEXXZ 00453e00 f   CommonPathfindingLib:GraphicsSystem.obj
 0002:00033ee0       ?init@GraphicsSystem@@QAE_NHH@Z 00453ee0 f   CommonPathfindingLib:GraphicsSystem.obj
 0002:00034090       ?invalidate@GraphicsBuffer@@QAEXXZ 00454090 f i CommonPathfindingLib:GraphicsSystem.obj
 0002:000340d0       ?setX@Vector2D@@QAEXM@Z    004540d0 f i CommonPathfindingLib:GraphicsSystem.obj
 0002:00034120       ?setY@Vector2D@@QAEXM@Z    00454120 f i CommonPathfindingLib:GraphicsSystem.obj
 0002:00034170       ?swap@GraphicsSystem@@QAEXXZ 00454170 f   CommonPathfindingLib:GraphicsSystem.obj
 0002:000341d0       ?switchTargetBitmap@GraphicsSystem@@SAPAUALLEGRO_BITMAP@@PAU2@@Z 004541d0 f   CommonPathfindingLib:GraphicsSystem.obj
 0002:00034250       ?wrapCoordinates@GraphicsSystem@@QAEXAAVVector2D@@@Z 00454250 f   CommonPathfindingLib:GraphicsSystem.obj
 0002:000343f0       ??0Sprite@@QAE@PAVGraphicsBuffer@@MMMM@Z 004543f0 f   CommonPathfindingLib:Sprite.obj
 0002:000344c0       ??1Sprite@@QAE@XZ          004544c0 f   CommonPathfindingLib:Sprite.obj
 0002:00034500       ?draw@Sprite@@QAEXAAVGraphicsBuffer@@MMMH@Z 00454500 f   CommonPathfindingLib:Sprite.obj
 0002:000346c0       ??0GraphicsBuffer@@QAE@ABV0@@Z 004546c0 f   CommonPathfindingLib:GraphicsBuffer.obj
 0002:00034730       ??0GraphicsBuffer@@QAE@ABV?$basic_string@DU?$char_traits@D@std@@V?$allocator@D@2@@std@@@Z 00454730 f   CommonPathfindingLib:GraphicsBuffer.obj
 0002:000347b0       ??0GraphicsBuffer@@QAE@HHABUALLEGRO_COLOR@@@Z 004547b0 f   CommonPathfindingLib:GraphicsBuffer.obj
 0002:00034830       ??0GraphicsBuffer@@QAE@PAUALLEGRO_BITMAP@@@Z 00454830 f   CommonPathfindingLib:GraphicsBuffer.obj
 0002:00034880       ??0GraphicsBuffer@@QAE@XZ  00454880 f   CommonPathfindingLib:GraphicsBuffer.obj
 0002:000348d0       ??1GraphicsBuffer@@QAE@XZ  004548d0 f   CommonPathfindingLib:GraphicsBuffer.obj
 0002:00034940       ??4GraphicsBuffer@@QAEAAV0@ABV0@@Z 00454940 f   CommonPathfindingLib:GraphicsBuffer.obj
 0002:000349e0       ?clear@GraphicsBuffer@@QAEXABUALLEGRO_COLOR@@@Z 004549e0 f   CommonPathfindingLib:GraphicsBuffer.obj
 0002:00034a90       ?fillRegion@GraphicsBuffer@@QAEXABVVector2D@@0ABUALLEGRO_COLOR@@@Z 00454a90 f   CommonPathfindingLib:GraphicsBuffer.obj
 0002:00034b73       _al_get_bitmap_width       00454b73 f   allegro-5.0.10-monolith-md:allegro-5.0.10-monolith-md.dll
 0002:00034b79       _al_get_bitmap_height      00454b79 f   allegro-5.0.10-monolith-md:allegro-5.0.10-monolith-md.dll
 0002:00034b7f       _al_get_mouse_state        00454b7f f   allegro-5.0.10-monolith-md:allegro-5.0.10-monolith-md.dll
 0002:00034b85       _al_mouse_button_down      00454b85 f   allegro-5.0.10-monolith-md:allegro-5.0.10-monolith-md.dll
 0002:00034b8b       _al_get_keyboard_state     00454b8b f   allegro-5.0.10-monolith-md:allegro-5.0.10-monolith-md.dll
 0002:00034b91       _al_key_down               00454b91 f   allegro-5.0.10-monolith-md:allegro-5.0.10-monolith-md.dll
 0002:00034b97       _al_install_keyboard       00454b97 f   allegro-5.0.10-monolith-md:allegro-5.0.10-monolith-md.dll
 0002:00034b9d       _al_uninstall_keyboard     00454b9d f   allegro-5.0.10-monolith-md:allegro-5.0.10-monolith-md.dll
 0002:00034ba3       _al_install_mouse          00454ba3 f   allegro-5.0.10-monolith-md:allegro-5.0.10-monolith-md.dll
 0002:00034ba9       _al_uninstall_mouse        00454ba9 f   allegro-5.0.10-monolith-md:allegro-5.0.10-monolith-md.dll
 0002:00034baf       _al_install_system         00454baf f   allegro-5.0.10-monolith-md:allegro-5.0.10-monolith-md.dll
 0002:00034bb5       _al_install_audio          00454bb5 f   allegro-5.0.10-monolith-md:allegro-5.0.10-monolith-md.dll
 0002:00034bbb       _al_uninstall_audio        00454bbb f   allegro-5.0.10-monolith-md:allegro-5.0.10-monolith-md.dll
 0002:00034bc1       _al_reserve_samples        00454bc1 f   allegro-5.0.10-monolith-md:allegro-5.0.10-monolith-md.dll
 0002:00034bc7       _al_init_acodec_addon      00454bc7 f   allegro-5.0.10-monolith-md:allegro-5.0.10-monolith-md.dll
 0002:00034bcd       _al_init_image_addon       00454bcd f   allegro-5.0.10-monolith-md:allegro-5.0.10-monolith-md.dll
 0002:00034bd3       _al_shutdown_image_addon   00454bd3 f   allegro-5.0.10-monolith-md:allegro-5.0.10-monolith-md.dll
 0002:00034bd9       _al_destroy_font           00454bd9 f   allegro-5.0.10-monolith-md:allegro-5.0.10-monolith-md.dll
 0002:00034bdf       _al_init_font_addon        00454bdf f   allegro-5.0.10-monolith-md:allegro-5.0.10-monolith-md.dll
 0002:00034be5       _al_shutdown_font_addon    00454be5 f   allegro-5.0.10-monolith-md:allegro-5.0.10-monolith-md.dll
 0002:00034beb       _al_load_ttf_font          00454beb f   allegro-5.0.10-monolith-md:allegro-5.0.10-monolith-md.dll
 0002:00034bf1       _al_init_ttf_addon         00454bf1 f   allegro-5.0.10-monolith-md:allegro-5.0.10-monolith-md.dll
 0002:00034bf7       _al_shutdown_ttf_addon     00454bf7 f   allegro-5.0.10-monolith-md:allegro-5.0.10-monolith-md.dll
 0002:00034bfd       _al_init_primitives_addon  00454bfd f   allegro-5.0.10-monolith-md:allegro-5.0.10-monolith-md.dll
 0002:00034c03       _al_shutdown_primitives_addon 00454c03 f   allegro-5.0.10-monolith-md:allegro-5.0.10-monolith-md.dll
 0002:00034c09       _al_draw_filled_rectangle  00454c09 f   allegro-5.0.10-monolith-md:allegro-5.0.10-monolith-md.dll
 0002:00034c0f       _al_create_display         00454c0f f   allegro-5.0.10-monolith-md:allegro-5.0.10-monolith-md.dll
 0002:00034c15       _al_destroy_display        00454c15 f   allegro-5.0.10-monolith-md:allegro-5.0.10-monolith-md.dll
 0002:00034c1b       _al_set_target_bitmap      00454c1b f   allegro-5.0.10-monolith-md:allegro-5.0.10-monolith-md.dll
 0002:00034c21       _al_get_backbuffer         00454c21 f   allegro-5.0.10-monolith-md:allegro-5.0.10-monolith-md.dll
 0002:00034c27       _al_get_target_bitmap      00454c27 f   allegro-5.0.10-monolith-md:allegro-5.0.10-monolith-md.dll
 0002:00034c2d       _al_flip_display           00454c2d f   allegro-5.0.10-monolith-md:allegro-5.0.10-monolith-md.dll
 0002:00034c33       _al_create_sub_bitmap      00454c33 f   allegro-5.0.10-monolith-md:allegro-5.0.10-monolith-md.dll
 0002:00034c39       _al_draw_bitmap            00454c39 f   allegro-5.0.10-monolith-md:allegro-5.0.10-monolith-md.dll
 0002:00034c3f       _al_draw_rotated_bitmap    00454c3f f   allegro-5.0.10-monolith-md:allegro-5.0.10-monolith-md.dll
 0002:00034c45       _al_create_bitmap          00454c45 f   allegro-5.0.10-monolith-md:allegro-5.0.10-monolith-md.dll
 0002:00034c4b       _al_destroy_bitmap         00454c4b f   allegro-5.0.10-monolith-md:allegro-5.0.10-monolith-md.dll
 0002:00034c51       _al_clone_bitmap           00454c51 f   allegro-5.0.10-monolith-md:allegro-5.0.10-monolith-md.dll
 0002:00034c57       _al_load_bitmap            00454c57 f   allegro-5.0.10-monolith-md:allegro-5.0.10-monolith-md.dll
 0002:00034c5d       _al_clear_to_color         00454c5d f   allegro-5.0.10-monolith-md:allegro-5.0.10-monolith-md.dll
 0002:00034c70       ??2Trackable@@SAPAXI@Z     00454c70 f   DeanLib:Trackable.obj
 0002:00034cf0       ??3Trackable@@SAXPAX@Z     00454cf0 f   DeanLib:Trackable.obj
 0002:00034d90       ??_UTrackable@@SAPAXI@Z    00454d90 f   DeanLib:Trackable.obj
 0002:00034e10       ??_VTrackable@@SAXPAX@Z    00454e10 f   DeanLib:Trackable.obj
 0002:00034eb0       ??0Timer@@QAE@XZ           00454eb0 f   DeanLib:Timer.obj
 0002:00034f80       ??1Timer@@QAE@XZ           00454f80 f   DeanLib:Timer.obj
 0002:00034fc0       ?calcDifferenceInMS@Timer@@ABENT_LARGE_INTEGER@@0@Z 00454fc0 f   DeanLib:Timer.obj
 0002:00035090       ?getElapsedTime@Timer@@QBENXZ 00455090 f   DeanLib:Timer.obj
 0002:000351a0       ?pause@Timer@@QAEX_N@Z     004551a0 f   DeanLib:Timer.obj
 0002:000352b0       ?sleepUntilElapsed@Timer@@QAEXN@Z 004552b0 f   DeanLib:Timer.obj
 0002:00035460       ?start@Timer@@QAEXXZ       00455460 f   DeanLib:Timer.obj
 0002:000354f0       ?stop@Timer@@QAEXXZ        004554f0 f   DeanLib:Timer.obj
 0002:00035580       ??$?0$$V@?$_Compressed_pair@V?$allocator@U?$_Tree_node@U?$pair@QAXUAllocationRecord@@@std@@PAX@std@@@std@@V?$_Tree_val@U?$_Tree_simple_types@U?$pair@QAXUAllocationRecord@@@std@@@std@@@2@$00@std@@QAE@U_Zero_then_variadic_args_t@1@@Z 00455580 f i DeanLib:MemoryTracker.obj
 0002:000355e0       ??$?0AAPAXAAUAllocationRecord@@X$0A@@?$pair@PAXUAllocationRecord@@@std@@QAE@AAPAXAAUAllocationRecord@@@Z 004555e0 f i DeanLib:MemoryTracker.obj
 0002:00035670       ??$?0AAV?$_Tree_iterator@V?$_Tree_val@U?$_Tree_simple_types@U?$pair@QAXUAllocationRecord@@@std@@@std@@@std@@@std@@_NX$0A@@?$pair@V?$_Tree_iterator@V?$_Tree_val@U?$_Tree_simple_types@U?$pair@QAXUAllocationRecord@@@std@@@std@@@std@@@std@@_N@std@@QAE@AAV?$_Tree_iterator@V?$_Tree_val@U?$_Tree_simple_types@U?$pair@QAXUAllocationRecord@@@std@@@std@@@std@@@1@$$QA_N@Z 00455670 f i DeanLib:MemoryTracker.obj
 0002:000356f0       ??$?0ABU?$less@PAX@std@@U_Zero_then_variadic_args_t@1@@?$_Compressed_pair@U?$less@PAX@std@@V?$_Compressed_pair@V?$allocator@U?$_Tree_node@U?$pair@QAXUAllocationRecord@@@std@@PAX@std@@@std@@V?$_Tree_val@U?$_Tree_simple_types@U?$pair@QAXUAllocationRecord@@@std@@@std@@@2@$00@2@$00@std@@QAE@U_One_then_variadic_args_t@1@ABU?$less@PAX@1@$$QAU_Zero_then_variadic_args_t@1@@Z 004556f0 f i DeanLib:MemoryTracker.obj
 0002:00035770       ??$?0PAXUAllocationRecord@@X$0A@@?$pair@QAXUAllocationRecord@@@std@@QAE@ABU?$pair@PAXUAllocationRecord@@@1@@Z 00455770 f i DeanLib:MemoryTracker.obj
 0002:000357d0       ??$?0U?$_Tree_node@U?$pair@QAXUAllocationRecord@@@std@@PAX@std@@@?$allocator@U_Container_proxy@std@@@std@@QAE@ABV?$allocator@U?$_Tree_node@U?$pair@QAXUAllocationRecord@@@std@@PAX@std@@@1@@Z 004557d0 f i DeanLib:MemoryTracker.obj
 0002:00035810       ??$?0V?$_Tree_iterator@V?$_Tree_val@U?$_Tree_simple_types@U?$pair@QAXUAllocationRecord@@@std@@@std@@@std@@@std@@_NX$0A@@?$pair@V?$_Tree_iterator@V?$_Tree_val@U?$_Tree_simple_types@U?$pair@QAXUAllocationRecord@@@std@@@std@@@std@@@std@@_N@std@@QAE@$$QAV?$_Tree_iterator@V?$_Tree_val@U?$_Tree_simple_types@U?$pair@QAXUAllocationRecord@@@std@@@std@@@std@@@1@$$QA_N@Z 00455810 f i DeanLib:MemoryTracker.obj
 0002:00035890       ??$_Buynode@AAU?$pair@PAXUAllocationRecord@@@std@@@?$_Tree_comp_alloc@V?$_Tmap_traits@PAXUAllocationRecord@@U?$less@PAX@std@@V?$allocator@U?$pair@QAXUAllocationRecord@@@std@@@3@$0A@@std@@@std@@QAEPAU?$_Tree_node@U?$pair@QAXUAllocationRecord@@@std@@PAX@1@AAU?$pair@PAXUAllocationRecord@@@1@@Z 00455890 f i DeanLib:MemoryTracker.obj
 0002:000359b0       ??$_Buynode_if_nil@AAU?$pair@QAXUAllocationRecord@@@std@@@?$_Tree@V?$_Tmap_traits@PAXUAllocationRecord@@U?$less@PAX@std@@V?$allocator@U?$pair@QAXUAllocationRecord@@@std@@@3@$0A@@std@@@std@@IAEPAU?$_Tree_node@U?$pair@QAXUAllocationRecord@@@std@@PAX@1@PAU21@AAU?$pair@QAXUAllocationRecord@@@1@@Z 004559b0 f i DeanLib:MemoryTracker.obj
 0002:000359f0       ??$_Debug_lt_pred@AAU?$less@PAX@std@@ABQAXABQAX@std@@YA_NAAU?$less@PAX@0@ABQAX1PB_WI@Z 004559f0 f i DeanLib:MemoryTracker.obj
 0002:00035af0       ??$_Debug_lt_pred@ABU?$less@PAX@std@@ABQAXABQAX@std@@YA_NABU?$less@PAX@0@ABQAX1PB_WI@Z 00455af0 f i DeanLib:MemoryTracker.obj
 0002:00035bf0       ??$_Insert_at@AAU?$pair@QAXUAllocationRecord@@@std@@PAU?$_Tree_node@U?$pair@QAXUAllocationRecord@@@std@@PAX@2@@?$_Tree@V?$_Tmap_traits@PAXUAllocationRecord@@U?$less@PAX@std@@V?$allocator@U?$pair@QAXUAllocationRecord@@@std@@@3@$0A@@std@@@std@@IAE?AV?$_Tree_iterator@V?$_Tree_val@U?$_Tree_simple_types@U?$pair@QAXUAllocationRecord@@@std@@@std@@@std@@@1@_NPAU?$_Tree_node@U?$pair@QAXUAllocationRecord@@@std@@PAX@1@AAU?$pair@QAXUAllocationRecord@@@1@1@Z 00455bf0 f i DeanLib:MemoryTracker.obj
 0002:00035f90       ??$_Insert_nohint@AAU?$pair@QAXUAllocationRecord@@@std@@PAU?$_Tree_node@U?$pair@QAXUAllocationRecord@@@std@@PAX@2@@?$_Tree@V?$_Tmap_traits@PAXUAllocationRecord@@U?$less@PAX@std@@V?$allocator@U?$pair@QAXUAllocationRecord@@@std@@@3@$0A@@std@@@std@@IAE?AU?$pair@V?$_Tree_iterator@V?$_Tree_val@U?$_Tree_simple_types@U?$pair@QAXUAllocationRecord@@@std@@@std@@@std@@@std@@_N@1@_NAAU?$pair@QAXUAllocationRecord@@@1@PAU?$_Tree_node@U?$pair@QAXUAllocationRecord@@@std@@PAX@1@@Z 00455f90 f i DeanLib:MemoryTracker.obj
 0002:000365e0       ??$_Kfn@QAXUAllocationRecord@@@?$_Tmap_traits@PAXUAllocationRecord@@U?$less@PAX@std@@V?$allocator@U?$pair@QAXUAllocationRecord@@@std@@@3@$0A@@std@@SAABQAXABU?$pair@QAXUAllocationRecord@@@1@@Z 004565e0 f i DeanLib:MemoryTracker.obj
 0002:00036620       ??$_Lbound@PAX@?$_Tree@V?$_Tmap_traits@PAXUAllocationRecord@@U?$less@PAX@std@@V?$allocator@U?$pair@QAXUAllocationRecord@@@std@@@3@$0A@@std@@@std@@IBEPAU?$_Tree_node@U?$pair@QAXUAllocationRecord@@@std@@PAX@1@ABQAX@Z 00456620 f i DeanLib:MemoryTracker.obj
 0002:000366f0       ??$addressof@PAU?$_Tree_node@U?$pair@QAXUAllocationRecord@@@std@@PAX@std@@@std@@YAPAPAU?$_Tree_node@U?$pair@QAXUAllocationRecord@@@std@@PAX@0@AAPAU10@@Z 004566f0 f i DeanLib:MemoryTracker.obj
 0002:00036730       ??$addressof@U?$pair@QAXUAllocationRecord@@@std@@@std@@YAPAU?$pair@QAXUAllocationRecord@@@0@AAU10@@Z 00456730 f i DeanLib:MemoryTracker.obj
 0002:00036770       ??$addressof@V?$_Tree_val@U?$_Tree_simple_types@U?$pair@QAXUAllocationRecord@@@std@@@std@@@std@@@std@@YAPAV?$_Tree_val@U?$_Tree_simple_types@U?$pair@QAXUAllocationRecord@@@std@@@std@@@0@AAV10@@Z 00456770 f i DeanLib:MemoryTracker.obj
 0002:000367b0       ??$construct@PAU?$_Tree_node@U?$pair@QAXUAllocationRecord@@@std@@PAX@std@@AAPAU12@@?$_Default_allocator_traits@V?$allocator@U?$_Tree_node@U?$pair@QAXUAllocationRecord@@@std@@PAX@std@@@std@@@std@@SAXAAV?$allocator@U?$_Tree_node@U?$pair@QAXUAllocationRecord@@@std@@PAX@std@@@1@QAPAU?$_Tree_node@U?$pair@QAXUAllocationRecord@@@std@@PAX@1@AAPAU31@@Z 004567b0 f i DeanLib:MemoryTracker.obj
 0002:00036830       ??$construct@U?$pair@QAXUAllocationRecord@@@std@@AAU?$pair@PAXUAllocationRecord@@@2@@?$_Default_allocator_traits@V?$allocator@U?$_Tree_node@U?$pair@QAXUAllocationRecord@@@std@@PAX@std@@@std@@@std@@SAXAAV?$allocator@U?$_Tree_node@U?$pair@QAXUAllocationRecord@@@std@@PAX@std@@@1@QAU?$pair@QAXUAllocationRecord@@@1@AAU?$pair@PAXUAllocationRecord@@@1@@Z 00456830 f i DeanLib:MemoryTracker.obj
 0002:00036900       ??$destroy@PAU?$_Tree_node@U?$pair@QAXUAllocationRecord@@@std@@PAX@std@@@?$_Default_allocator_traits@V?$allocator@U?$_Tree_node@U?$pair@QAXUAllocationRecord@@@std@@PAX@std@@@std@@@std@@SAXAAV?$allocator@U?$_Tree_node@U?$pair@QAXUAllocationRecord@@@std@@PAX@std@@@1@QAPAU?$_Tree_node@U?$pair@QAXUAllocationRecord@@@std@@PAX@1@@Z 00456900 f i DeanLib:MemoryTracker.obj
 0002:00036930       ??$destroy@U?$pair@QAXUAllocationRecord@@@std@@@?$_Default_allocator_traits@V?$allocator@U?$_Tree_node@U?$pair@QAXUAllocationRecord@@@std@@PAX@std@@@std@@@std@@SAXAAV?$allocator@U?$_Tree_node@U?$pair@QAXUAllocationRecord@@@std@@PAX@std@@@1@QAU?$pair@QAXUAllocationRecord@@@1@@Z 00456930 f i DeanLib:MemoryTracker.obj
 0002:00036960       ??$emplace@AAU?$pair@PAXUAllocationRecord@@@std@@@?$_Tree@V?$_Tmap_traits@PAXUAllocationRecord@@U?$less@PAX@std@@V?$allocator@U?$pair@QAXUAllocationRecord@@@std@@@3@$0A@@std@@@std@@QAE?AU?$pair@V?$_Tree_iterator@V?$_Tree_val@U?$_Tree_simple_types@U?$pair@QAXUAllocationRecord@@@std@@@std@@@std@@@std@@_N@1@AAU?$pair@PAXUAllocationRecord@@@1@@Z 00456960 f i DeanLib:MemoryTracker.obj
 0002:00036a10       ??$endl@DU?$char_traits@D@std@@@std@@YAAAV?$basic_ostream@DU?$char_traits@D@std@@@0@AAV10@@Z 00456a10 f i DeanLib:MemoryTracker.obj
 0002:00036ab0       ??$erase@V?$_Tree_iterator@V?$_Tree_val@U?$_Tree_simple_types@U?$pair@QAXUAllocationRecord@@@std@@@std@@@std@@@std@@X@?$_Tree@V?$_Tmap_traits@PAXUAllocationRecord@@U?$less@PAX@std@@V?$allocator@U?$pair@QAXUAllocationRecord@@@std@@@3@$0A@@std@@@std@@QAE?AV?$_Tree_iterator@V?$_Tree_val@U?$_Tree_simple_types@U?$pair@QAXUAllocationRecord@@@std@@@std@@@std@@@1@V21@@Z 00456ab0 f i DeanLib:MemoryTracker.obj
 0002:00036ba0       ??$forward@AAPAU?$_Tree_node@U?$pair@QAXUAllocationRecord@@@std@@PAX@std@@@std@@YAAAPAU?$_Tree_node@U?$pair@QAXUAllocationRecord@@@std@@PAX@0@AAPAU10@@Z 00456ba0 f i DeanLib:MemoryTracker.obj
 0002:00036be0       ??$forward@AAPAX@std@@YAAAPAXAAPAX@Z 00456be0 f i DeanLib:MemoryTracker.obj
 0002:00036c20       ??$forward@AAU?$pair@PAXUAllocationRecord@@@std@@@std@@YAAAU?$pair@PAXUAllocationRecord@@@0@AAU10@@Z 00456c20 f i DeanLib:MemoryTracker.obj
 0002:00036c60       ??$forward@AAU?$pair@QAXUAllocationRecord@@@std@@@std@@YAAAU?$pair@QAXUAllocationRecord@@@0@AAU10@@Z 00456c60 f i DeanLib:MemoryTracker.obj
 0002:00036ca0       ??$forward@AAUAllocationRecord@@@std@@YAAAUAllocationRecord@@AAU1@@Z 00456ca0 f i DeanLib:MemoryTracker.obj
 0002:00036ce0       ??$forward@AAV?$_Tree_iterator@V?$_Tree_val@U?$_Tree_simple_types@U?$pair@QAXUAllocationRecord@@@std@@@std@@@std@@@std@@@std@@YAAAV?$_Tree_iterator@V?$_Tree_val@U?$_Tree_simple_types@U?$pair@QAXUAllocationRecord@@@std@@@std@@@std@@@0@AAV10@@Z 00456ce0 f i DeanLib:MemoryTracker.obj
 0002:00036d20       ??$forward@ABU?$less@PAX@std@@@std@@YAABU?$less@PAX@0@ABU10@@Z 00456d20 f i DeanLib:MemoryTracker.obj
 0002:00036d60       ??$forward@V?$_Tree_iterator@V?$_Tree_val@U?$_Tree_simple_types@U?$pair@QAXUAllocationRecord@@@std@@@std@@@std@@@std@@@std@@YA$$QAV?$_Tree_iterator@V?$_Tree_val@U?$_Tree_simple_types@U?$pair@QAXUAllocationRecord@@@std@@@std@@@std@@@0@AAV10@@Z 00456d60 f i DeanLib:MemoryTracker.obj
 0002:00036da0       ??$insert@AAU?$pair@PAXUAllocationRecord@@@std@@X@?$map@PAXUAllocationRecord@@U?$less@PAX@std@@V?$allocator@U?$pair@QAXUAllocationRecord@@@std@@@3@@std@@QAE?AU?$pair@V?$_Tree_iterator@V?$_Tree_val@U?$_Tree_simple_types@U?$pair@QAXUAllocationRecord@@@std@@@std@@@std@@@std@@_N@1@AAU?$pair@PAXUAllocationRecord@@@1@@Z 00456da0 f i DeanLib:MemoryTracker.obj
 0002:00036e30       ??0?$_Tree@V?$_Tmap_traits@PAXUAllocationRecord@@U?$less@PAX@std@@V?$allocator@U?$pair@QAXUAllocationRecord@@@std@@@3@$0A@@std@@@std@@QAE@ABU?$less@PAX@1@@Z 00456e30 f i DeanLib:MemoryTracker.obj
 0002:00036e90       ??0?$_Tree_comp_alloc@V?$_Tmap_traits@PAXUAllocationRecord@@U?$less@PAX@std@@V?$allocator@U?$pair@QAXUAllocationRecord@@@std@@@3@$0A@@std@@@std@@QAE@ABU?$less@PAX@1@@Z 00456e90 f i DeanLib:MemoryTracker.obj
 0002:00036f50       ??0?$_Tree_const_iterator@V?$_Tree_val@U?$_Tree_simple_types@U?$pair@QAXUAllocationRecord@@@std@@@std@@@std@@@std@@QAE@$$QAV01@@Z 00456f50 f i DeanLib:MemoryTracker.obj
 0002:00036fb0       ??0?$_Tree_const_iterator@V?$_Tree_val@U?$_Tree_simple_types@U?$pair@QAXUAllocationRecord@@@std@@@std@@@std@@@std@@QAE@ABV01@@Z 00456fb0 f i DeanLib:MemoryTracker.obj
 0002:00037010       ??0?$_Tree_const_iterator@V?$_Tree_val@U?$_Tree_simple_types@U?$pair@QAXUAllocationRecord@@@std@@@std@@@std@@@std@@QAE@PAU?$_Tree_node@U?$pair@QAXUAllocationRecord@@@std@@PAX@1@PBV?$_Tree_val@U?$_Tree_simple_types@U?$pair@QAXUAllocationRecord@@@std@@@std@@@1@@Z 00457010 f i DeanLib:MemoryTracker.obj
 0002:00037070       ??0?$_Tree_const_iterator@V?$_Tree_val@U?$_Tree_simple_types@U?$pair@QAXUAllocationRecord@@@std@@@std@@@std@@@std@@QAE@XZ 00457070 f i DeanLib:MemoryTracker.obj
 0002:000370d0       ??0?$_Tree_iterator@V?$_Tree_val@U?$_Tree_simple_types@U?$pair@QAXUAllocationRecord@@@std@@@std@@@std@@@std@@QAE@$$QAV01@@Z 004570d0 f i DeanLib:MemoryTracker.obj
 0002:00037130       ??0?$_Tree_iterator@V?$_Tree_val@U?$_Tree_simple_types@U?$pair@QAXUAllocationRecord@@@std@@@std@@@std@@@std@@QAE@ABV01@@Z 00457130 f i DeanLib:MemoryTracker.obj
 0002:00037190       ??0?$_Tree_iterator@V?$_Tree_val@U?$_Tree_simple_types@U?$pair@QAXUAllocationRecord@@@std@@@std@@@std@@@std@@QAE@PAU?$_Tree_node@U?$pair@QAXUAllocationRecord@@@std@@PAX@1@PBV?$_Tree_val@U?$_Tree_simple_types@U?$pair@QAXUAllocationRecord@@@std@@@std@@@1@@Z 00457190 f i DeanLib:MemoryTracker.obj
 0002:000371f0       ??0?$_Tree_iterator@V?$_Tree_val@U?$_Tree_simple_types@U?$pair@QAXUAllocationRecord@@@std@@@std@@@std@@@std@@QAE@XZ 004571f0 f i DeanLib:MemoryTracker.obj
 0002:00037250       ??0?$_Tree_unchecked_const_iterator@V?$_Tree_val@U?$_Tree_simple_types@U?$pair@QAXUAllocationRecord@@@std@@@std@@@std@@U_Iterator_base12@2@@std@@QAE@$$QAV01@@Z 00457250 f i DeanLib:MemoryTracker.obj
 0002:000372c0       ??0?$_Tree_unchecked_const_iterator@V?$_Tree_val@U?$_Tree_simple_types@U?$pair@QAXUAllocationRecord@@@std@@@std@@@std@@U_Iterator_base12@2@@std@@QAE@ABV01@@Z 004572c0 f i DeanLib:MemoryTracker.obj
 0002:00037330       ??0?$_Tree_unchecked_const_iterator@V?$_Tree_val@U?$_Tree_simple_types@U?$pair@QAXUAllocationRecord@@@std@@@std@@@std@@U_Iterator_base12@2@@std@@QAE@PAU?$_Tree_node@U?$pair@QAXUAllocationRecord@@@std@@PAX@1@PBV?$_Tree_val@U?$_Tree_simple_types@U?$pair@QAXUAllocationRecord@@@std@@@std@@@1@@Z 00457330 f i DeanLib:MemoryTracker.obj
 0002:000373a0       ??0?$_Tree_unchecked_const_iterator@V?$_Tree_val@U?$_Tree_simple_types@U?$pair@QAXUAllocationRecord@@@std@@@std@@@std@@U_Iterator_base12@2@@std@@QAE@XZ 004573a0 f i DeanLib:MemoryTracker.obj
 0002:00037400       ??0?$_Tree_val@U?$_Tree_simple_types@U?$pair@QAXUAllocationRecord@@@std@@@std@@@std@@QAE@XZ 00457400 f i DeanLib:MemoryTracker.obj
 0002:00037470       ??0?$allocator@U?$_Tree_node@U?$pair@QAXUAllocationRecord@@@std@@PAX@std@@@std@@QAE@XZ 00457470 f i DeanLib:MemoryTracker.obj
 0002:000374b0       ??0?$map@PAXUAllocationRecord@@U?$less@PAX@std@@V?$allocator@U?$pair@QAXUAllocationRecord@@@std@@@3@@std@@QAE@XZ 004574b0 f i DeanLib:MemoryTracker.obj
 0002:00037510       ??0AllocationRecord@@QAE@HI@Z 00457510 f i DeanLib:MemoryTracker.obj
 0002:00037560       ??0MemoryTracker@@QAE@XZ   00457560 f   DeanLib:MemoryTracker.obj
 0002:000375c0       ??1?$_Compressed_pair@U?$less@PAX@std@@V?$_Compressed_pair@V?$allocator@U?$_Tree_node@U?$pair@QAXUAllocationRecord@@@std@@PAX@std@@@std@@V?$_Tree_val@U?$_Tree_simple_types@U?$pair@QAXUAllocationRecord@@@std@@@std@@@2@$00@2@$00@std@@QAE@XZ 004575c0 f i DeanLib:MemoryTracker.obj
 0002:00037610       ??1?$_Compressed_pair@V?$allocator@U?$_Tree_node@U?$pair@QAXUAllocationRecord@@@std@@PAX@std@@@std@@V?$_Tree_val@U?$_Tree_simple_types@U?$pair@QAXUAllocationRecord@@@std@@@std@@@2@$00@std@@QAE@XZ 00457610 f i DeanLib:MemoryTracker.obj
 0002:00037660       ??1?$_Tree@V?$_Tmap_traits@PAXUAllocationRecord@@U?$less@PAX@std@@V?$allocator@U?$pair@QAXUAllocationRecord@@@std@@@3@$0A@@std@@@std@@QAE@XZ 00457660 f i DeanLib:MemoryTracker.obj
 0002:000376f0       ??1?$_Tree_comp_alloc@V?$_Tmap_traits@PAXUAllocationRecord@@U?$less@PAX@std@@V?$allocator@U?$pair@QAXUAllocationRecord@@@std@@@3@$0A@@std@@@std@@QAE@XZ 004576f0 f i DeanLib:MemoryTracker.obj
 0002:000377a0       ??1?$_Tree_const_iterator@V?$_Tree_val@U?$_Tree_simple_types@U?$pair@QAXUAllocationRecord@@@std@@@std@@@std@@@std@@QAE@XZ 004577a0 f i DeanLib:MemoryTracker.obj
 0002:000377f0       ??1?$_Tree_iterator@V?$_Tree_val@U?$_Tree_simple_types@U?$pair@QAXUAllocationRecord@@@std@@@std@@@std@@@std@@QAE@XZ 004577f0 f i DeanLib:MemoryTracker.obj
 0002:00037840       ??1?$_Tree_unchecked_const_iterator@V?$_Tree_val@U?$_Tree_simple_types@U?$pair@QAXUAllocationRecord@@@std@@@std@@@std@@U_Iterator_base12@2@@std@@QAE@XZ 00457840 f i DeanLib:MemoryTracker.obj
 0002:00037890       ??1?$_Tree_val@U?$_Tree_simple_types@U?$pair@QAXUAllocationRecord@@@std@@@std@@@std@@QAE@XZ 00457890 f i DeanLib:MemoryTracker.obj
 0002:000378e0       ??1?$map@PAXUAllocationRecord@@U?$less@PAX@std@@V?$allocator@U?$pair@QAXUAllocationRecord@@@std@@@3@@std@@QAE@XZ 004578e0 f i DeanLib:MemoryTracker.obj
 0002:00037930       ??1?$pair@V?$_Tree_iterator@V?$_Tree_val@U?$_Tree_simple_types@U?$pair@QAXUAllocationRecord@@@std@@@std@@@std@@@std@@_N@std@@QAE@XZ 00457930 f i DeanLib:MemoryTracker.obj
 0002:00037980       ??1MemoryTracker@@QAE@XZ   00457980 f   DeanLib:MemoryTracker.obj
 0002:00037a30       ??4?$_Tree_const_iterator@V?$_Tree_val@U?$_Tree_simple_types@U?$pair@QAXUAllocationRecord@@@std@@@std@@@std@@@std@@QAEAAV01@$$QAV01@@Z 00457a30 f i DeanLib:MemoryTracker.obj
 0002:00037a90       ??4?$_Tree_iterator@V?$_Tree_val@U?$_Tree_simple_types@U?$pair@QAXUAllocationRecord@@@std@@@std@@@std@@@std@@QAEAAV01@$$QAV01@@Z 00457a90 f i DeanLib:MemoryTracker.obj
 0002:00037af0       ??4?$_Tree_unchecked_const_iterator@V?$_Tree_val@U?$_Tree_simple_types@U?$pair@QAXUAllocationRecord@@@std@@@std@@@std@@U_Iterator_base12@2@@std@@QAEAAV01@$$QAV01@@Z 00457af0 f i DeanLib:MemoryTracker.obj
 0002:00037b60       ??8?$_Tree_const_iterator@V?$_Tree_val@U?$_Tree_simple_types@U?$pair@QAXUAllocationRecord@@@std@@@std@@@std@@@std@@QBE_NABV01@@Z 00457b60 f i DeanLib:MemoryTracker.obj
 0002:00037c50       ??9?$_Tree_const_iterator@V?$_Tree_val@U?$_Tree_simple_types@U?$pair@QAXUAllocationRecord@@@std@@@std@@@std@@@std@@QBE_NABV01@@Z 00457c50 f i DeanLib:MemoryTracker.obj
 0002:00037ce0       ??C?$_Tree_iterator@V?$_Tree_val@U?$_Tree_simple_types@U?$pair@QAXUAllocationRecord@@@std@@@std@@@std@@@std@@QBEPAU?$pair@QAXUAllocationRecord@@@1@XZ 00457ce0 f i DeanLib:MemoryTracker.obj
 0002:00037d40       ??D?$_Tree_const_iterator@V?$_Tree_val@U?$_Tree_simple_types@U?$pair@QAXUAllocationRecord@@@std@@@std@@@std@@@std@@QBEABU?$pair@QAXUAllocationRecord@@@1@XZ 00457d40 f i DeanLib:MemoryTracker.obj
 0002:00037e10       ??D?$_Tree_iterator@V?$_Tree_val@U?$_Tree_simple_types@U?$pair@QAXUAllocationRecord@@@std@@@std@@@std@@@std@@QBEAAU?$pair@QAXUAllocationRecord@@@1@XZ 00457e10 f i DeanLib:MemoryTracker.obj
 0002:00037e60       ??E?$_Tree_const_iterator@V?$_Tree_val@U?$_Tree_simple_types@U?$pair@QAXUAllocationRecord@@@std@@@std@@@std@@@std@@QAE?AV01@H@Z 00457e60 f i DeanLib:MemoryTracker.obj
 0002:00037fa0       ??E?$_Tree_const_iterator@V?$_Tree_val@U?$_Tree_simple_types@U?$pair@QAXUAllocationRecord@@@std@@@std@@@std@@@std@@QAEAAV01@XZ 00457fa0 f i DeanLib:MemoryTracker.obj
 0002:00038070       ??E?$_Tree_iterator@V?$_Tree_val@U?$_Tree_simple_types@U?$pair@QAXUAllocationRecord@@@std@@@std@@@std@@@std@@QAEAAV01@XZ 00458070 f i DeanLib:MemoryTracker.obj
 0002:000380d0       ??E?$_Tree_unchecked_const_iterator@V?$_Tree_val@U?$_Tree_simple_types@U?$pair@QAXUAllocationRecord@@@std@@@std@@@std@@U_Iterator_base12@2@@std@@QAEAAV01@XZ 004580d0 f i DeanLib:MemoryTracker.obj
 0002:000381b0       ??F?$_Tree_const_iterator@V?$_Tree_val@U?$_Tree_simple_types@U?$pair@QAXUAllocationRecord@@@std@@@std@@@std@@@std@@QAEAAV01@XZ 004581b0 f i DeanLib:MemoryTracker.obj
 0002:000382e0       ??F?$_Tree_iterator@V?$_Tree_val@U?$_Tree_simple_types@U?$pair@QAXUAllocationRecord@@@std@@@std@@@std@@@std@@QAEAAV01@XZ 004582e0 f i DeanLib:MemoryTracker.obj
 0002:00038340       ??F?$_Tree_unchecked_const_iterator@V?$_Tree_val@U?$_Tree_simple_types@U?$pair@QAXUAllocationRecord@@@std@@@std@@@std@@U_Iterator_base12@2@@std@@QAEAAV01@XZ 00458340 f i DeanLib:MemoryTracker.obj
 0002:00038440       ??R?$less@PAX@std@@QBE_NABQAX0@Z 00458440 f i DeanLib:MemoryTracker.obj
 0002:000384b0       ?_Alloc_proxy@?$_Tree_comp_alloc@V?$_Tmap_traits@PAXUAllocationRecord@@U?$less@PAX@std@@V?$allocator@U?$pair@QAXUAllocationRecord@@@std@@@3@$0A@@std@@@std@@QAEXXZ 004584b0 f i DeanLib:MemoryTracker.obj
 0002:000385f0       ?_Buyheadnode@?$_Tree_comp_alloc@V?$_Tmap_traits@PAXUAllocationRecord@@U?$less@PAX@std@@V?$allocator@U?$pair@QAXUAllocationRecord@@@std@@@3@$0A@@std@@@std@@QAEPAU?$_Tree_node@U?$pair@QAXUAllocationRecord@@@std@@PAX@2@XZ 004585f0 f i DeanLib:MemoryTracker.obj
 0002:000387b0       ?_Buynode0@?$_Tree_comp_alloc@V?$_Tmap_traits@PAXUAllocationRecord@@U?$less@PAX@std@@V?$allocator@U?$pair@QAXUAllocationRecord@@@std@@@3@$0A@@std@@@std@@QAEPAU?$_Tree_node@U?$pair@QAXUAllocationRecord@@@std@@PAX@2@XZ 004587b0 f i DeanLib:MemoryTracker.obj
 0002:00038920       ?_Compare@?$_Tree@V?$_Tmap_traits@PAXUAllocationRecord@@U?$less@PAX@std@@V?$allocator@U?$pair@QAXUAllocationRecord@@@std@@@3@$0A@@std@@@std@@IBE_NABQAX0@Z 00458920 f i DeanLib:MemoryTracker.obj
 0002:000389a0       ?_Construct@?$_Tree_comp_alloc@V?$_Tmap_traits@PAXUAllocationRecord@@U?$less@PAX@std@@V?$allocator@U?$pair@QAXUAllocationRecord@@@std@@@3@$0A@@std@@@std@@QAEXXZ 004589a0 f i DeanLib:MemoryTracker.obj
 0002:00038a90       ?_Destroy_if_not_nil@?$_Tree@V?$_Tmap_traits@PAXUAllocationRecord@@U?$less@PAX@std@@V?$allocator@U?$pair@QAXUAllocationRecord@@@std@@@3@$0A@@std@@@std@@IAEXPAU?$_Tree_node@U?$pair@QAXUAllocationRecord@@@std@@PAX@2@@Z 00458a90 f i DeanLib:MemoryTracker.obj
 0002:00038b20       ?_Erase@?$_Tree@V?$_Tmap_traits@PAXUAllocationRecord@@U?$less@PAX@std@@V?$allocator@U?$pair@QAXUAllocationRecord@@@std@@@3@$0A@@std@@@std@@IAEXPAU?$_Tree_node@U?$pair@QAXUAllocationRecord@@@std@@PAX@2@@Z 00458b20 f i DeanLib:MemoryTracker.obj
 0002:00038bf0       ?_Free_proxy@?$_Tree_comp_alloc@V?$_Tmap_traits@PAXUAllocationRecord@@U?$less@PAX@std@@V?$allocator@U?$pair@QAXUAllocationRecord@@@std@@@3@$0A@@std@@@std@@QAEXXZ 00458bf0 f i DeanLib:MemoryTracker.obj
 0002:00038d00       ?_Freeheadnode@?$_Tree_comp_alloc@V?$_Tmap_traits@PAXUAllocationRecord@@U?$less@PAX@std@@V?$allocator@U?$pair@QAXUAllocationRecord@@@std@@@3@$0A@@std@@@std@@QAEXPAU?$_Tree_node@U?$pair@QAXUAllocationRecord@@@std@@PAX@2@@Z 00458d00 f i DeanLib:MemoryTracker.obj
 0002:00038dd0       ?_Freenode0@?$_Tree_comp_alloc@V?$_Tmap_traits@PAXUAllocationRecord@@U?$less@PAX@std@@V?$allocator@U?$pair@QAXUAllocationRecord@@@std@@@3@$0A@@std@@@std@@QAEXPAU?$_Tree_node@U?$pair@QAXUAllocationRecord@@@std@@PAX@2@@Z 00458dd0 f i DeanLib:MemoryTracker.obj
 0002:00038ea0       ?_Get_data@?$_Tree_comp_alloc@V?$_Tmap_traits@PAXUAllocationRecord@@U?$less@PAX@std@@V?$allocator@U?$pair@QAXUAllocationRecord@@@std@@@3@$0A@@std@@@std@@QAEAAV?$_Tree_val@U?$_Tree_simple_types@U?$pair@QAXUAllocationRecord@@@std@@@std@@@2@XZ 00458ea0 f i DeanLib:MemoryTracker.obj
 0002:00038f00       ?_Get_data@?$_Tree_comp_alloc@V?$_Tmap_traits@PAXUAllocationRecord@@U?$less@PAX@std@@V?$allocator@U?$pair@QAXUAllocationRecord@@@std@@@3@$0A@@std@@@std@@QBEABV?$_Tree_val@U?$_Tree_simple_types@U?$pair@QAXUAllocationRecord@@@std@@@std@@@2@XZ 00458f00 f i DeanLib:MemoryTracker.obj
 0002:00038f60       ?_Get_first@?$_Compressed_pair@U?$less@PAX@std@@V?$_Compressed_pair@V?$allocator@U?$_Tree_node@U?$pair@QAXUAllocationRecord@@@std@@PAX@std@@@std@@V?$_Tree_val@U?$_Tree_simple_types@U?$pair@QAXUAllocationRecord@@@std@@@std@@@2@$00@2@$00@std@@QAEAAU?$less@PAX@2@XZ 00458f60 f i DeanLib:MemoryTracker.obj
 0002:00038fa0       ?_Get_first@?$_Compressed_pair@U?$less@PAX@std@@V?$_Compressed_pair@V?$allocator@U?$_Tree_node@U?$pair@QAXUAllocationRecord@@@std@@PAX@std@@@std@@V?$_Tree_val@U?$_Tree_simple_types@U?$pair@QAXUAllocationRecord@@@std@@@std@@@2@$00@2@$00@std@@QBEABU?$less@PAX@2@XZ 00458fa0 f i DeanLib:MemoryTracker.obj
 0002:00038fe0       ?_Get_first@?$_Compressed_pair@V?$allocator@U?$_Tree_node@U?$pair@QAXUAllocationRecord@@@std@@PAX@std@@@std@@V?$_Tree_val@U?$_Tree_simple_types@U?$pair@QAXUAllocationRecord@@@std@@@std@@@2@$00@std@@QAEAAV?$allocator@U?$_Tree_node@U?$pair@QAXUAllocationRecord@@@std@@PAX@std@@@2@XZ 00458fe0 f i DeanLib:MemoryTracker.obj
 0002:00039020       ?_Get_first@?$_Compressed_pair@V?$allocator@U?$_Tree_node@U?$pair@QAXUAllocationRecord@@@std@@PAX@std@@@std@@V?$_Tree_val@U?$_Tree_simple_types@U?$pair@QAXUAllocationRecord@@@std@@@std@@@2@$00@std@@QBEABV?$allocator@U?$_Tree_node@U?$pair@QAXUAllocationRecord@@@std@@PAX@std@@@2@XZ 00459020 f i DeanLib:MemoryTracker.obj
 0002:00039060       ?_Get_second@?$_Compressed_pair@U?$less@PAX@std@@V?$_Compressed_pair@V?$allocator@U?$_Tree_node@U?$pair@QAXUAllocationRecord@@@std@@PAX@std@@@std@@V?$_Tree_val@U?$_Tree_simple_types@U?$pair@QAXUAllocationRecord@@@std@@@std@@@2@$00@2@$00@std@@QAEAAV?$_Compressed_pair@V?$allocator@U?$_Tree_node@U?$pair@QAXUAllocationRecord@@@std@@PAX@std@@@std@@V?$_Tree_val@U?$_Tree_simple_types@U?$pair@QAXUAllocationRecord@@@std@@@std@@@2@$00@2@XZ 00459060 f i DeanLib:MemoryTracker.obj
 0002:000390a0       ?_Get_second@?$_Compressed_pair@U?$less@PAX@std@@V?$_Compressed_pair@V?$allocator@U?$_Tree_node@U?$pair@QAXUAllocationRecord@@@std@@PAX@std@@@std@@V?$_Tree_val@U?$_Tree_simple_types@U?$pair@QAXUAllocationRecord@@@std@@@std@@@2@$00@2@$00@std@@QBEABV?$_Compressed_pair@V?$allocator@U?$_Tree_node@U?$pair@QAXUAllocationRecord@@@std@@PAX@std@@@std@@V?$_Tree_val@U?$_Tree_simple_types@U?$pair@QAXUAllocationRecord@@@std@@@std@@@2@$00@2@XZ 004590a0 f i DeanLib:MemoryTracker.obj
 0002:000390e0       ?_Get_second@?$_Compressed_pair@V?$allocator@U?$_Tree_node@U?$pair@QAXUAllocationRecord@@@std@@PAX@std@@@std@@V?$_Tree_val@U?$_Tree_simple_types@U?$pair@QAXUAllocationRecord@@@std@@@std@@@2@$00@std@@QAEAAV?$_Tree_val@U?$_Tree_simple_types@U?$pair@QAXUAllocationRecord@@@std@@@std@@@2@XZ 004590e0 f i DeanLib:MemoryTracker.obj
 0002:00039120       ?_Get_second@?$_Compressed_pair@V?$allocator@U?$_Tree_node@U?$pair@QAXUAllocationRecord@@@std@@PAX@std@@@std@@V?$_Tree_val@U?$_Tree_simple_types@U?$pair@QAXUAllocationRecord@@@std@@@std@@@2@$00@std@@QBEABV?$_Tree_val@U?$_Tree_simple_types@U?$pair@QAXUAllocationRecord@@@std@@@std@@@2@XZ 00459120 f i DeanLib:MemoryTracker.obj
 0002:00039160       ?_Getal@?$_Tree_comp_alloc@V?$_Tmap_traits@PAXUAllocationRecord@@U?$less@PAX@std@@V?$allocator@U?$pair@QAXUAllocationRecord@@@std@@@3@$0A@@std@@@std@@QAEAAV?$allocator@U?$_Tree_node@U?$pair@QAXUAllocationRecord@@@std@@PAX@std@@@2@XZ 00459160 f i DeanLib:MemoryTracker.obj
 0002:000391c0       ?_Getal@?$_Tree_comp_alloc@V?$_Tmap_traits@PAXUAllocationRecord@@U?$less@PAX@std@@V?$allocator@U?$pair@QAXUAllocationRecord@@@std@@@3@$0A@@std@@@std@@QBEABV?$allocator@U?$_Tree_node@U?$pair@QAXUAllocationRecord@@@std@@PAX@std@@@2@XZ 004591c0 f i DeanLib:MemoryTracker.obj
 0002:00039220       ?_Getcomp@?$_Tree_comp_alloc@V?$_Tmap_traits@PAXUAllocationRecord@@U?$less@PAX@std@@V?$allocator@U?$pair@QAXUAllocationRecord@@@std@@@3@$0A@@std@@@std@@QAEAAU?$less@PAX@2@XZ 00459220 f i DeanLib:MemoryTracker.obj
 0002:00039270       ?_Getcomp@?$_Tree_comp_alloc@V?$_Tmap_traits@PAXUAllocationRecord@@U?$less@PAX@std@@V?$allocator@U?$pair@QAXUAllocationRecord@@@std@@@3@$0A@@std@@@std@@QBEABU?$less@PAX@2@XZ 00459270 f i DeanLib:MemoryTracker.obj
 0002:000392c0       ?_Getpfirst@?$_Tree_comp_alloc@V?$_Tmap_traits@PAXUAllocationRecord@@U?$less@PAX@std@@V?$allocator@U?$pair@QAXUAllocationRecord@@@std@@@3@$0A@@std@@@std@@QBEPAPAU_Iterator_base12@2@XZ 004592c0 f i DeanLib:MemoryTracker.obj
 0002:00039320       ?_Key@?$_Tree@V?$_Tmap_traits@PAXUAllocationRecord@@U?$less@PAX@std@@V?$allocator@U?$pair@QAXUAllocationRecord@@@std@@@3@$0A@@std@@@std@@IBEABQAXPAU?$_Tree_node@U?$pair@QAXUAllocationRecord@@@std@@PAX@2@@Z 00459320 f i DeanLib:MemoryTracker.obj
 0002:00039380       ?_Kfn@?$_Tree@V?$_Tmap_traits@PAXUAllocationRecord@@U?$less@PAX@std@@V?$allocator@U?$pair@QAXUAllocationRecord@@@std@@@3@$0A@@std@@@std@@IBEABQAXABU?$pair@QAXUAllocationRecord@@@2@@Z 00459380 f i DeanLib:MemoryTracker.obj
 0002:000393e0       ?_Lmost@?$_Tree@V?$_Tmap_traits@PAXUAllocationRecord@@U?$less@PAX@std@@V?$allocator@U?$pair@QAXUAllocationRecord@@@std@@@3@$0A@@std@@@std@@IBEAAPAU?$_Tree_node@U?$pair@QAXUAllocationRecord@@@std@@PAX@2@XZ 004593e0 f i DeanLib:MemoryTracker.obj
 0002:00039440       ?_Lrotate@?$_Tree@V?$_Tmap_traits@PAXUAllocationRecord@@U?$less@PAX@std@@V?$allocator@U?$pair@QAXUAllocationRecord@@@std@@@3@$0A@@std@@@std@@IAEXPAU?$_Tree_node@U?$pair@QAXUAllocationRecord@@@std@@PAX@2@@Z 00459440 f i DeanLib:MemoryTracker.obj
 0002:00039540       ?_Max@?$_Tree_comp_alloc@V?$_Tmap_traits@PAXUAllocationRecord@@U?$less@PAX@std@@V?$allocator@U?$pair@QAXUAllocationRecord@@@std@@@3@$0A@@std@@@std@@SAPAU?$_Tree_node@U?$pair@QAXUAllocationRecord@@@std@@PAX@2@PAU32@@Z 00459540 f i DeanLib:MemoryTracker.obj
 0002:00039590       ?_Max@?$_Tree_val@U?$_Tree_simple_types@U?$pair@QAXUAllocationRecord@@@std@@@std@@@std@@SAPAU?$_Tree_node@U?$pair@QAXUAllocationRecord@@@std@@PAX@2@PAU32@@Z 00459590 f i DeanLib:MemoryTracker.obj
 0002:000395f0       ?_Min@?$_Tree_comp_alloc@V?$_Tmap_traits@PAXUAllocationRecord@@U?$less@PAX@std@@V?$allocator@U?$pair@QAXUAllocationRecord@@@std@@@3@$0A@@std@@@std@@SAPAU?$_Tree_node@U?$pair@QAXUAllocationRecord@@@std@@PAX@2@PAU32@@Z 004595f0 f i DeanLib:MemoryTracker.obj
 0002:00039640       ?_Min@?$_Tree_val@U?$_Tree_simple_types@U?$pair@QAXUAllocationRecord@@@std@@@std@@@std@@SAPAU?$_Tree_node@U?$pair@QAXUAllocationRecord@@@std@@PAX@2@PAU32@@Z 00459640 f i DeanLib:MemoryTracker.obj
 0002:00039690       ?_Myhead@?$_Tree_comp_alloc@V?$_Tmap_traits@PAXUAllocationRecord@@U?$less@PAX@std@@V?$allocator@U?$pair@QAXUAllocationRecord@@@std@@@3@$0A@@std@@@std@@QAEAAPAU?$_Tree_node@U?$pair@QAXUAllocationRecord@@@std@@PAX@2@XZ 00459690 f i DeanLib:MemoryTracker.obj
 0002:000396f0       ?_Myhead@?$_Tree_comp_alloc@V?$_Tmap_traits@PAXUAllocationRecord@@U?$less@PAX@std@@V?$allocator@U?$pair@QAXUAllocationRecord@@@std@@@3@$0A@@std@@@std@@QBEABQAU?$_Tree_node@U?$pair@QAXUAllocationRecord@@@std@@PAX@2@XZ 004596f0 f i DeanLib:MemoryTracker.obj
 0002:00039750       ?_Mynode@?$_Tree_unchecked_const_iterator@V?$_Tree_val@U?$_Tree_simple_types@U?$pair@QAXUAllocationRecord@@@std@@@std@@@std@@U_Iterator_base12@2@@std@@QBEPAU?$_Tree_node@U?$pair@QAXUAllocationRecord@@@std@@PAX@2@XZ 00459750 f i DeanLib:MemoryTracker.obj
 0002:00039790       ?_Myproxy@?$_Tree_comp_alloc@V?$_Tmap_traits@PAXUAllocationRecord@@U?$less@PAX@std@@V?$allocator@U?$pair@QAXUAllocationRecord@@@std@@@3@$0A@@std@@@std@@QAEAAPAU_Container_proxy@2@XZ 00459790 f i DeanLib:MemoryTracker.obj
 0002:000397e0       ?_Mysize@?$_Tree_comp_alloc@V?$_Tmap_traits@PAXUAllocationRecord@@U?$less@PAX@std@@V?$allocator@U?$pair@QAXUAllocationRecord@@@std@@@3@$0A@@std@@@std@@QAEAAIXZ 004597e0 f i DeanLib:MemoryTracker.obj
 0002:00039840       ?_Orphan_all@?$_Tree_comp_alloc@V?$_Tmap_traits@PAXUAllocationRecord@@U?$less@PAX@std@@V?$allocator@U?$pair@QAXUAllocationRecord@@@std@@@3@$0A@@std@@@std@@QAEXXZ 00459840 f i DeanLib:MemoryTracker.obj
 0002:000398a0       ?_Orphan_ptr@?$_Tree@V?$_Tmap_traits@PAXUAllocationRecord@@U?$less@PAX@std@@V?$allocator@U?$pair@QAXUAllocationRecord@@@std@@@3@$0A@@std@@@std@@IAEXPAU?$_Tree_node@U?$pair@QAXUAllocationRecord@@@std@@PAX@2@@Z 004598a0 f i DeanLib:MemoryTracker.obj
 0002:00039a30       ?_Rmost@?$_Tree@V?$_Tmap_traits@PAXUAllocationRecord@@U?$less@PAX@std@@V?$allocator@U?$pair@QAXUAllocationRecord@@@std@@@3@$0A@@std@@@std@@IBEAAPAU?$_Tree_node@U?$pair@QAXUAllocationRecord@@@std@@PAX@2@XZ 00459a30 f i DeanLib:MemoryTracker.obj
 0002:00039a90       ?_Root@?$_Tree@V?$_Tmap_traits@PAXUAllocationRecord@@U?$less@PAX@std@@V?$allocator@U?$pair@QAXUAllocationRecord@@@std@@@3@$0A@@std@@@std@@IBEAAPAU?$_Tree_node@U?$pair@QAXUAllocationRecord@@@std@@PAX@2@XZ 00459a90 f i DeanLib:MemoryTracker.obj
 0002:00039af0       ?_Rrotate@?$_Tree@V?$_Tmap_traits@PAXUAllocationRecord@@U?$less@PAX@std@@V?$allocator@U?$pair@QAXUAllocationRecord@@@std@@@3@$0A@@std@@@std@@IAEXPAU?$_Tree_node@U?$pair@QAXUAllocationRecord@@@std@@PAX@2@@Z 00459af0 f i DeanLib:MemoryTracker.obj
 0002:00039bf0       ?_Tidy@?$_Tree@V?$_Tmap_traits@PAXUAllocationRecord@@U?$less@PAX@std@@V?$allocator@U?$pair@QAXUAllocationRecord@@@std@@@3@$0A@@std@@@std@@IAEXXZ 00459bf0 f i DeanLib:MemoryTracker.obj
 0002:00039d60       ?__autoclassinit2@?$_Tree_const_iterator@V?$_Tree_val@U?$_Tree_simple_types@U?$pair@QAXUAllocationRecord@@@std@@@std@@@std@@@std@@QAEXI@Z 00459d60 f i DeanLib:MemoryTracker.obj
 0002:00039dc0       ?__autoclassinit2@?$_Tree_iterator@V?$_Tree_val@U?$_Tree_simple_types@U?$pair@QAXUAllocationRecord@@@std@@@std@@@std@@@std@@QAEXI@Z 00459dc0 f i DeanLib:MemoryTracker.obj
 0002:00039e20       ?__autoclassinit2@MemoryTracker@@QAEXI@Z 00459e20 f i DeanLib:MemoryTracker.obj
 0002:00039e80       ?addAllocation@MemoryTracker@@QAEXPAXI@Z 00459e80 f   DeanLib:MemoryTracker.obj
 0002:0003a080       ?allocate@?$allocator@U?$_Tree_node@U?$pair@QAXUAllocationRecord@@@std@@PAX@std@@@std@@QAEPAU?$_Tree_node@U?$pair@QAXUAllocationRecord@@@std@@PAX@2@I@Z 0045a080 f i DeanLib:MemoryTracker.obj
 0002:0003a0e0       ?begin@?$_Tree@V?$_Tmap_traits@PAXUAllocationRecord@@U?$less@PAX@std@@V?$allocator@U?$pair@QAXUAllocationRecord@@@std@@@3@$0A@@std@@@std@@QAE?AV?$_Tree_iterator@V?$_Tree_val@U?$_Tree_simple_types@U?$pair@QAXUAllocationRecord@@@std@@@std@@@std@@@2@XZ 0045a0e0 f i DeanLib:MemoryTracker.obj
 0002:0003a190       ?clear@?$_Tree@V?$_Tmap_traits@PAXUAllocationRecord@@U?$less@PAX@std@@V?$allocator@U?$pair@QAXUAllocationRecord@@@std@@@3@$0A@@std@@@std@@QAEXXZ 0045a190 f i DeanLib:MemoryTracker.obj
 0002:0003a2a0       ?deallocate@?$allocator@U?$_Tree_node@U?$pair@QAXUAllocationRecord@@@std@@PAX@std@@@std@@QAEXQAU?$_Tree_node@U?$pair@QAXUAllocationRecord@@@std@@PAX@2@I@Z 0045a2a0 f i DeanLib:MemoryTracker.obj
 0002:0003a300       ?end@?$_Tree@V?$_Tmap_traits@PAXUAllocationRecord@@U?$less@PAX@std@@V?$allocator@U?$pair@QAXUAllocationRecord@@@std@@@3@$0A@@std@@@std@@QAE?AV?$_Tree_iterator@V?$_Tree_val@U?$_Tree_simple_types@U?$pair@QAXUAllocationRecord@@@std@@@std@@@std@@@2@XZ 0045a300 f i DeanLib:MemoryTracker.obj
 0002:0003a3b0       ?erase@?$_Tree@V?$_Tmap_traits@PAXUAllocationRecord@@U?$less@PAX@std@@V?$allocator@U?$pair@QAXUAllocationRecord@@@std@@@3@$0A@@std@@@std@@QAE?AV?$_Tree_iterator@V?$_Tree_val@U?$_Tree_simple_types@U?$pair@QAXUAllocationRecord@@@std@@@std@@@std@@@2@V?$_Tree_const_iterator@V?$_Tree_val@U?$_Tree_simple_types@U?$pair@QAXUAllocationRecord@@@std@@@std@@@std@@@2@0@Z 0045a3b0 f i DeanLib:MemoryTracker.obj
 0002:0003a6d0       ?erase@?$_Tree@V?$_Tmap_traits@PAXUAllocationRecord@@U?$less@PAX@std@@V?$allocator@U?$pair@QAXUAllocationRecord@@@std@@@3@$0A@@std@@@std@@QAE?AV?$_Tree_iterator@V?$_Tree_val@U?$_Tree_simple_types@U?$pair@QAXUAllocationRecord@@@std@@@std@@@std@@@2@V?$_Tree_const_iterator@V?$_Tree_val@U?$_Tree_simple_types@U?$pair@QAXUAllocationRecord@@@std@@@std@@@std@@@2@@Z 0045a6d0 f i DeanLib:MemoryTracker.obj
 0002:0003ae00       ?find@?$_Tree@V?$_Tmap_traits@PAXUAllocationRecord@@U?$less@PAX@std@@V?$allocator@U?$pair@QAXUAllocationRecord@@@std@@@3@$0A@@std@@@std@@QAE?AV?$_Tree_iterator@V?$_Tree_val@U?$_Tree_simple_types@U?$pair@QAXUAllocationRecord@@@std@@@std@@@std@@@2@ABQAX@Z 0045ae00 f i DeanLib:MemoryTracker.obj
 0002:0003b0e0       ?lower_bound@?$_Tree@V?$_Tmap_traits@PAXUAllocationRecord@@U?$less@PAX@std@@V?$allocator@U?$pair@QAXUAllocationRecord@@@std@@@3@$0A@@std@@@std@@QAE?AV?$_Tree_iterator@V?$_Tree_val@U?$_Tree_simple_types@U?$pair@QAXUAllocationRecord@@@std@@@std@@@std@@@2@ABQAX@Z 0045b0e0 f i DeanLib:MemoryTracker.obj
 0002:0003b180       ?max_size@?$_Default_allocator_traits@V?$allocator@U?$_Tree_node@U?$pair@QAXUAllocationRecord@@@std@@PAX@std@@@std@@@std@@SAIABV?$allocator@U?$_Tree_node@U?$pair@QAXUAllocationRecord@@@std@@PAX@std@@@2@@Z 0045b180 f i DeanLib:MemoryTracker.obj
 0002:0003b1c0       ?max_size@?$_Tree@V?$_Tmap_traits@PAXUAllocationRecord@@U?$less@PAX@std@@V?$allocator@U?$pair@QAXUAllocationRecord@@@std@@@3@$0A@@std@@@std@@QBEIXZ 0045b1c0 f i DeanLib:MemoryTracker.obj
 0002:0003b220       ?pointer_to@?$pointer_traits@PAU?$pair@QAXUAllocationRecord@@@std@@@std@@SAPAU?$pair@QAXUAllocationRecord@@@2@AAU32@@Z 0045b220 f i DeanLib:MemoryTracker.obj
 0002:0003b270       ?removeAllocation@MemoryTracker@@QAEXPAX@Z 0045b270 f   DeanLib:MemoryTracker.obj
 0002:0003b420       ?reportAllocations@MemoryTracker@@QAEXAAV?$basic_ostream@DU?$char_traits@D@std@@@std@@@Z 0045b420 f   DeanLib:MemoryTracker.obj
 0002:0003b6c0       ??0Vector2D@@QAE@ABV0@@Z   0045b6c0 f   DeanLib:Vector2D.obj
 0002:0003b720       ??0Vector2D@@QAE@MM@Z      0045b720 f   DeanLib:Vector2D.obj
 0002:0003b780       ??1Vector2D@@QAE@XZ        0045b780 f   DeanLib:Vector2D.obj
 0002:0003b7c0       ??4Vector2D@@QAEAAV0@ABV0@@Z 0045b7c0 f   DeanLib:Vector2D.obj
 0002:0003b820       ??8Vector2D@@QAE_NABV0@@Z  0045b820 f   DeanLib:Vector2D.obj
 0002:0003b920       ??9Vector2D@@QAE_NABV0@@Z  0045b920 f   DeanLib:Vector2D.obj
 0002:0003ba20       ??DVector2D@@QBE?BV0@M@Z   0045ba20 f   DeanLib:Vector2D.obj
 0002:0003bb70       ??GVector2D@@QBE?BV0@ABV0@@Z 0045bb70 f   DeanLib:Vector2D.obj
 0002:0003bca0       ??HVector2D@@QBE?BV0@ABV0@@Z 0045bca0 f   DeanLib:Vector2D.obj
 0002:0003bdd0       ??XVector2D@@QAEAAV0@M@Z   0045bdd0 f   DeanLib:Vector2D.obj
 0002:0003be40       ??YVector2D@@QAEAAV0@ABV0@@Z 0045be40 f   DeanLib:Vector2D.obj
 0002:0003bec0       ??ZVector2D@@QAEAAV0@ABV0@@Z 0045bec0 f   DeanLib:Vector2D.obj
 0002:0003bf40       ??_0Vector2D@@QAEAAV0@M@Z  0045bf40 f   DeanLib:Vector2D.obj
 0002:0003bfb0       ?getLength@Vector2D@@QBEMXZ 0045bfb0 f   DeanLib:Vector2D.obj
 0002:0003c020       ?getLengthSquared@Vector2D@@QBEMXZ 0045c020 f   DeanLib:Vector2D.obj
 0002:0003c090       ?hasNonZeroLength@Vector2D@@QBE_NXZ 0045c090 f   DeanLib:Vector2D.obj
 0002:0003c110       ?normalize@Vector2D@@QAEXXZ 0045c110 f   DeanLib:Vector2D.obj
 0002:0003c1d0       ?sqrt@@YAMM@Z              0045c1d0 f i DeanLib:Vector2D.obj
 0002:0003c230       _sqrtf                     0045c230 f i DeanLib:Vector2D.obj
 0002:0003c297       _Sleep@4                   0045c297 f   kernel32:KERNEL32.dll
 0002:0003c29d       _QueryPerformanceCounter@4 0045c29d f   kernel32:KERNEL32.dll
 0002:0003c2a3       _QueryPerformanceFrequency@4 0045c2a3 f   kernel32:KERNEL32.dll
 0002:0003c2a9       ??0_Lockit@std@@QAE@H@Z    0045c2a9 f   msvcprtd:MSVCP140D.dll
 0002:0003c2af       ??1_Lockit@std@@QAE@XZ     0045c2af f   msvcprtd:MSVCP140D.dll
 0002:0003c2b5       ?_Xbad_alloc@std@@YAXXZ    0045c2b5 f   msvcprtd:MSVCP140D.dll
 0002:0003c2bb       ?_Xlength_error@std@@YAXPBD@Z 0045c2bb f   msvcprtd:MSVCP140D.dll
 0002:0003c2c1       ?uncaught_exception@std@@YA_NXZ 0045c2c1 f   msvcprtd:MSVCP140D.dll
 0002:0003c2c7       ?_Debug_message@std@@YAXPB_W0I@Z 0045c2c7 f   msvcprtd:MSVCP140D.dll
 0002:0003c2cd       ?_Xout_of_range@std@@YAXPBD@Z 0045c2cd f   msvcprtd:MSVCP140D.dll
 0002:0003c2e0       ??0_Fac_node@std@@QAE@PAU01@PAV_Facet_base@1@@Z 0045c2e0 f i msvcprtd:locale0_implib.obj
 0002:0003c310       ??1_Fac_node@std@@QAE@XZ   0045c310 f i msvcprtd:locale0_implib.obj
 0002:0003c3d0       ??1_Fac_tidy_reg_t@std@@QAE@XZ 0045c3d0 f i msvcprtd:locale0_implib.obj
 0002:0003c440       ??2_Fac_node@std@@SAPAXI@Z 0045c440 f i msvcprtd:locale0_implib.obj
 0002:0003c4a0       ??3_Fac_node@std@@SAXPAX@Z 0045c4a0 f i msvcprtd:locale0_implib.obj
 0002:0003c4c0       ??_G_Fac_node@std@@QAEPAXI@Z 0045c4c0 f i msvcprtd:locale0_implib.obj
 0002:0003c520       ?_Facet_Register@std@@YAXPAV_Facet_base@1@@Z 0045c520 f   msvcprtd:locale0_implib.obj
 0002:0003c5c2       ??Bid@locale@std@@QAEIXZ   0045c5c2 f   msvcprtd:MSVCP140D.dll
 0002:0003c5c8       ?_Getgloballocale@locale@std@@CAPAV_Locimp@12@XZ 0045c5c8 f   msvcprtd:MSVCP140D.dll
 0002:0003c5ce       ?always_noconv@codecvt_base@std@@QBE_NXZ 0045c5ce f   msvcprtd:MSVCP140D.dll
 0002:0003c5d4       ?in@?$codecvt@DDU_Mbstatet@@@std@@QBEHAAU_Mbstatet@@PBD1AAPBDPAD3AAPAD@Z 0045c5d4 f   msvcprtd:MSVCP140D.dll
 0002:0003c5da       ?out@?$codecvt@DDU_Mbstatet@@@std@@QBEHAAU_Mbstatet@@PBD1AAPBDPAD3AAPAD@Z 0045c5da f   msvcprtd:MSVCP140D.dll
 0002:0003c5e0       ?unshift@?$codecvt@DDU_Mbstatet@@@std@@QBEHAAU_Mbstatet@@PAD1AAPAD@Z 0045c5e0 f   msvcprtd:MSVCP140D.dll
 0002:0003c5e6       ?_Getcat@?$codecvt@DDU_Mbstatet@@@std@@SAIPAPBVfacet@locale@2@PBV42@@Z 0045c5e6 f   msvcprtd:MSVCP140D.dll
 0002:0003c5ec       ?good@ios_base@std@@QBE_NXZ 0045c5ec f   msvcprtd:MSVCP140D.dll
 0002:0003c5f2       ?flags@ios_base@std@@QBEHXZ 0045c5f2 f   msvcprtd:MSVCP140D.dll
 0002:0003c5f8       ?width@ios_base@std@@QBE_JXZ 0045c5f8 f   msvcprtd:MSVCP140D.dll
 0002:0003c5fe       ?width@ios_base@std@@QAE_J_J@Z 0045c5fe f   msvcprtd:MSVCP140D.dll
 0002:0003c604       ??0?$basic_streambuf@DU?$char_traits@D@std@@@std@@IAE@XZ 0045c604 f   msvcprtd:MSVCP140D.dll
 0002:0003c60a       ??1?$basic_streambuf@DU?$char_traits@D@std@@@std@@UAE@XZ 0045c60a f   msvcprtd:MSVCP140D.dll
 0002:0003c610       ?getloc@?$basic_streambuf@DU?$char_traits@D@std@@@std@@QBE?AVlocale@2@XZ 0045c610 f   msvcprtd:MSVCP140D.dll
 0002:0003c616       ?sputc@?$basic_streambuf@DU?$char_traits@D@std@@@std@@QAEHD@Z 0045c616 f   msvcprtd:MSVCP140D.dll
 0002:0003c61c       ?sputn@?$basic_streambuf@DU?$char_traits@D@std@@@std@@QAE_JPBD_J@Z 0045c61c f   msvcprtd:MSVCP140D.dll
 0002:0003c622       ?eback@?$basic_streambuf@DU?$char_traits@D@std@@@std@@IBEPADXZ 0045c622 f   msvcprtd:MSVCP140D.dll
 0002:0003c628       ?gptr@?$basic_streambuf@DU?$char_traits@D@std@@@std@@IBEPADXZ 0045c628 f   msvcprtd:MSVCP140D.dll
 0002:0003c62e       ?pptr@?$basic_streambuf@DU?$char_traits@D@std@@@std@@IBEPADXZ 0045c62e f   msvcprtd:MSVCP140D.dll
 0002:0003c634       ?egptr@?$basic_streambuf@DU?$char_traits@D@std@@@std@@IBEPADXZ 0045c634 f   msvcprtd:MSVCP140D.dll
 0002:0003c63a       ?setg@?$basic_streambuf@DU?$char_traits@D@std@@@std@@IAEXPAD00@Z 0045c63a f   msvcprtd:MSVCP140D.dll
 0002:0003c640       ?epptr@?$basic_streambuf@DU?$char_traits@D@std@@@std@@IBEPADXZ 0045c640 f   msvcprtd:MSVCP140D.dll
 0002:0003c646       ?_Gndec@?$basic_streambuf@DU?$char_traits@D@std@@@std@@IAEPADXZ 0045c646 f   msvcprtd:MSVCP140D.dll
 0002:0003c64c       ?_Gninc@?$basic_streambuf@DU?$char_traits@D@std@@@std@@IAEPADXZ 0045c64c f   msvcprtd:MSVCP140D.dll
 0002:0003c652       ?_Pninc@?$basic_streambuf@DU?$char_traits@D@std@@@std@@IAEPADXZ 0045c652 f   msvcprtd:MSVCP140D.dll
 0002:0003c658       ?_Init@?$basic_streambuf@DU?$char_traits@D@std@@@std@@IAEXXZ 0045c658 f   msvcprtd:MSVCP140D.dll
 0002:0003c65e       ?_Init@?$basic_streambuf@DU?$char_traits@D@std@@@std@@IAEXPAPAD0PAH001@Z 0045c65e f   msvcprtd:MSVCP140D.dll
 0002:0003c664       ??1?$basic_ios@DU?$char_traits@D@std@@@std@@UAE@XZ 0045c664 f   msvcprtd:MSVCP140D.dll
 0002:0003c66a       ?setstate@?$basic_ios@DU?$char_traits@D@std@@@std@@QAEXH_N@Z 0045c66a f   msvcprtd:MSVCP140D.dll
 0002:0003c670       ?tie@?$basic_ios@DU?$char_traits@D@std@@@std@@QBEPAV?$basic_ostream@DU?$char_traits@D@std@@@2@XZ 0045c670 f   msvcprtd:MSVCP140D.dll
 0002:0003c676       ?rdbuf@?$basic_ios@DU?$char_traits@D@std@@@std@@QBEPAV?$basic_streambuf@DU?$char_traits@D@std@@@2@XZ 0045c676 f   msvcprtd:MSVCP140D.dll
 0002:0003c67c       ?fill@?$basic_ios@DU?$char_traits@D@std@@@std@@QBEDXZ 0045c67c f   msvcprtd:MSVCP140D.dll
 0002:0003c682       ??0?$basic_ios@DU?$char_traits@D@std@@@std@@IAE@XZ 0045c682 f   msvcprtd:MSVCP140D.dll
 0002:0003c688       ??0?$basic_ostream@DU?$char_traits@D@std@@@std@@QAE@PAV?$basic_streambuf@DU?$char_traits@D@std@@@1@_N@Z 0045c688 f   msvcprtd:MSVCP140D.dll
 0002:0003c68e       ??1?$basic_ostream@DU?$char_traits@D@std@@@std@@UAE@XZ 0045c68e f   msvcprtd:MSVCP140D.dll
 0002:0003c694       ?_Osfx@?$basic_ostream@DU?$char_traits@D@std@@@std@@QAEXXZ 0045c694 f   msvcprtd:MSVCP140D.dll
 0002:0003c69a       ?flush@?$basic_ostream@DU?$char_traits@D@std@@@std@@QAEAAV12@XZ 0045c69a f   msvcprtd:MSVCP140D.dll
 0002:0003c6a0       ??0?$basic_istream@DU?$char_traits@D@std@@@std@@QAE@PAV?$basic_streambuf@DU?$char_traits@D@std@@@1@_N@Z 0045c6a0 f   msvcprtd:MSVCP140D.dll
 0002:0003c6a6       ??1?$basic_istream@DU?$char_traits@D@std@@@std@@UAE@XZ 0045c6a6 f   msvcprtd:MSVCP140D.dll
 0002:0003c6ac       ?_Fiopen@std@@YAPAU_iobuf@@PBDHH@Z 0045c6ac f   msvcprtd:MSVCP140D.dll
 0002:0003c6b2       ?showmanyc@?$basic_streambuf@DU?$char_traits@D@std@@@std@@MAE_JXZ 0045c6b2 f   msvcprtd:MSVCP140D.dll
 0002:0003c6b8       ?xsgetn@?$basic_streambuf@DU?$char_traits@D@std@@@std@@MAE_JPAD_J@Z 0045c6b8 f   msvcprtd:MSVCP140D.dll
 0002:0003c6be       ?xsputn@?$basic_streambuf@DU?$char_traits@D@std@@@std@@MAE_JPBD_J@Z 0045c6be f   msvcprtd:MSVCP140D.dll
 0002:0003c6c4       ??6?$basic_ostream@DU?$char_traits@D@std@@@std@@QAEAAV01@H@Z 0045c6c4 f   msvcprtd:MSVCP140D.dll
 0002:0003c6ca       ??5?$basic_istream@DU?$char_traits@D@std@@@std@@QAEAAV01@AAH@Z 0045c6ca f   msvcprtd:MSVCP140D.dll
 0002:0003c6d0       ?widen@?$basic_ios@DU?$char_traits@D@std@@@std@@QBEDD@Z 0045c6d0 f   msvcprtd:MSVCP140D.dll
 0002:0003c6d6       ??6?$basic_ostream@DU?$char_traits@D@std@@@std@@QAEAAV01@P6AAAV01@AAV01@@Z@Z 0045c6d6 f   msvcprtd:MSVCP140D.dll
 0002:0003c6dc       ??6?$basic_ostream@DU?$char_traits@D@std@@@std@@QAEAAV01@I@Z 0045c6dc f   msvcprtd:MSVCP140D.dll
 0002:0003c6e2       ??6?$basic_ostream@DU?$char_traits@D@std@@@std@@QAEAAV01@PBX@Z 0045c6e2 f   msvcprtd:MSVCP140D.dll
 0002:0003c6e8       ?put@?$basic_ostream@DU?$char_traits@D@std@@@std@@QAEAAV12@D@Z 0045c6e8 f   msvcprtd:MSVCP140D.dll
 0002:0003c6f0       ??2@YAPAXI@Z               0045c6f0 f   MSVCRTD:new_scalar.obj
 0002:0003c750       ??3@YAXPAX@Z               0045c750 f   MSVCRTD:delete_scalar.obj
 0002:0003c770       @_RTC_AllocaHelper@12      0045c770 f   MSVCRTD:_stack_.obj
 0002:0003c7b0       @_RTC_CheckStackVars2@12   0045c7b0 f   MSVCRTD:_stack_.obj
 0002:0003c8c0       @_RTC_CheckStackVars@8     0045c8c0 f   MSVCRTD:_stack_.obj
 0002:0003c930       __RTC_CheckEsp             0045c930 f   MSVCRTD:_stack_.obj
 0002:0003c970       @__security_check_cookie@4 0045c970 f   MSVCRTD:_secchk_.obj
 0002:0003c990       __CRT_RTC_INIT             0045c990 f   MSVCRTD:_init_.obj
 0002:0003c9a0       __CRT_RTC_INITW            0045c9a0 f   MSVCRTD:_init_.obj
 0002:0003c9b0       __RTC_InitBase             0045c9b0 f   MSVCRTD:_init_.obj
 0002:0003c9f0       __RTC_Shutdown             0045c9f0 f   MSVCRTD:_init_.obj
 0002:0003ca10       ??1type_info@@UAE@XZ       0045ca10 f   MSVCRTD:std_type_info_static.obj
 0002:0003ca30       ??_Gtype_info@@UAEPAXI@Z   0045ca30 f i MSVCRTD:std_type_info_static.obj
 0002:0003ca30       ??_Etype_info@@UAEPAXI@Z   0045ca30 f i MSVCRTD:std_type_info_static.obj
 0002:0003ca70       ??3@YAXPAXI@Z              0045ca70 f   MSVCRTD:delete_scalar_size.obj
 0002:0003ca90       ??$__crt_fast_decode_pointer@PAP6AXXZ@@YAPAP6AXXZQAP6AXXZ@Z 0045ca90 f i MSVCRTD:utility.obj
 0002:0003cac0       ??$__crt_fast_encode_pointer@PAP6AXXZ@@YAPAP6AXXZQAP6AXXZ@Z 0045cac0 f i MSVCRTD:utility.obj
 0002:0003cb00       ?__crt_rotate_pointer_value@@YAIIH@Z 0045cb00 f i MSVCRTD:utility.obj
 0002:0003cb10       ?configure_argv@__scrt_narrow_argv_policy@@SAHXZ 0045cb10 f i MSVCRTD:utility.obj
 0002:0003cbe0       ?initialize_environment@__scrt_narrow_environment_policy@@SAHXZ 0045cbe0 f i MSVCRTD:utility.obj
 0002:0003cc80       _NtCurrentTeb              0045cc80 f i MSVCRTD:utility.obj
 0002:0003cc90       ___scrt_acquire_startup_lock 0045cc90 f   MSVCRTD:utility.obj
 0002:0003ccf0       ___scrt_dllmain_after_initialize_c 0045ccf0 f   MSVCRTD:utility.obj
 0002:0003cd30       ___scrt_dllmain_before_initialize_c 0045cd30 f   MSVCRTD:utility.obj
 0002:0003cd60       ___scrt_dllmain_crt_thread_attach 0045cd60 f   MSVCRTD:utility.obj
 0002:0003cda0       ___scrt_dllmain_crt_thread_detach 0045cda0 f   MSVCRTD:utility.obj
 0002:0003cdc0       ___scrt_dllmain_exception_filter 0045cdc0 f   MSVCRTD:utility.obj
 0002:0003ce20       ___scrt_dllmain_uninitialize_c 0045ce20 f   MSVCRTD:utility.obj
 0002:0003ce60       ___scrt_dllmain_uninitialize_critical 0045ce60 f   MSVCRTD:utility.obj
 0002:0003ce80       ___scrt_initialize_crt     0045ce80 f   MSVCRTD:utility.obj
 0002:0003cee0       ___scrt_initialize_onexit_tables 0045cee0 f   MSVCRTD:utility.obj
 0002:0003d000       ___scrt_is_nonwritable_in_current_image 0045d000 f   MSVCRTD:utility.obj
 0002:0003d180       ___scrt_release_startup_lock 0045d180 f   MSVCRTD:utility.obj
 0002:0003d1b0       ___scrt_uninitialize_crt   0045d1b0 f   MSVCRTD:utility.obj
 0002:0003d200       __onexit                   0045d200 f   MSVCRTD:utility.obj
 0002:0003d290       _at_quick_exit             0045d290 f   MSVCRTD:utility.obj
 0002:0003d2f0       _atexit                    0045d2f0 f   MSVCRTD:utility.obj
 0002:0003d710       ?set_app_type@__scrt_main_policy@@SAXXZ 0045d710 f i MSVCRTD:exe_main.obj
 0002:0003d730       ?set_commode@__scrt_file_policy@@SAXXZ 0045d730 f i MSVCRTD:exe_main.obj
 0002:0003d750       ?set_fmode@__scrt_file_policy@@SAXXZ 0045d750 f i MSVCRTD:exe_main.obj
 0002:0003d770       _mainCRTStartup            0045d770 f   MSVCRTD:exe_main.obj
 0002:0003d780       ??_U@YAPAXI@Z              0045d780 f   MSVCRTD:new_array.obj
 0002:0003d7a0       ??_V@YAXPAX@Z              0045d7a0 f   MSVCRTD:delete_array.obj
 0002:0003d7c0       __ftoui3                   0045d7c0 f   MSVCRTD:_ftol3_.obj
 0002:0003d7cf       __ftoul3                   0045d7cf f   MSVCRTD:_ftol3_.obj
 0002:0003d7de       __ftol3                    0045d7de f   MSVCRTD:_ftol3_.obj
 0002:0003d7eb       __ftol3_NaN                0045d7eb f   MSVCRTD:_ftol3_.obj
 0002:0003d803       __ftol3_work               0045d803 f   MSVCRTD:_ftol3_.obj
 0002:0003d889       __ftol3_common             0045d889 f   MSVCRTD:_ftol3_.obj
 0002:0003d94b       __ftol3_arg_error          0045d94b f   MSVCRTD:_ftol3_.obj
 0002:0003d95d       __ftol3_except             0045d95d f   MSVCRTD:_ftol3_.obj
 0002:0003d9a1       __dtoui3                   0045d9a1 f   MSVCRTD:_ftol3_.obj
 0002:0003d9b0       __dtoul3                   0045d9b0 f   MSVCRTD:_ftol3_.obj
 0002:0003d9bf       __dtol3                    0045d9bf f   MSVCRTD:_ftol3_.obj
 0002:0003d9cc       __dtol3_NaN                0045d9cc f   MSVCRTD:_ftol3_.obj
 0002:0003d9e9       __dtol3_work               0045d9e9 f   MSVCRTD:_ftol3_.obj
 0002:0003dad0       __ultod3                   0045dad0 f   MSVCRTD:_ftol3_.obj
 0002:0003db10       __ltod3                    0045db10 f   MSVCRTD:_ftol3_.obj
 0002:0003dc20       @_guard_check_icall@4      0045dc20 f i MSVCRTD:checkcfg.obj
 0002:0003dc40       ??0bad_alloc@std@@AAE@QBD@Z 0045dc40 f i MSVCRTD:throw_bad_alloc.obj
 0002:0003dc70       ??0bad_alloc@std@@QAE@ABV01@@Z 0045dc70 f i MSVCRTD:throw_bad_alloc.obj
 0002:0003dca0       ??0bad_alloc@std@@QAE@XZ   0045dca0 f i MSVCRTD:throw_bad_alloc.obj
 0002:0003dcd0       ??0bad_array_new_length@std@@QAE@ABV01@@Z 0045dcd0 f i MSVCRTD:throw_bad_alloc.obj
 0002:0003dd00       ??0bad_array_new_length@std@@QAE@XZ 0045dd00 f i MSVCRTD:throw_bad_alloc.obj
 0002:0003dd30       ??1bad_alloc@std@@UAE@XZ   0045dd30 f i MSVCRTD:throw_bad_alloc.obj
 0002:0003dd50       ??1bad_array_new_length@std@@UAE@XZ 0045dd50 f i MSVCRTD:throw_bad_alloc.obj
 0002:0003dd70       ??_Ebad_alloc@std@@UAEPAXI@Z 0045dd70 f i MSVCRTD:throw_bad_alloc.obj
 0002:0003dd70       ??_Gbad_alloc@std@@UAEPAXI@Z 0045dd70 f i MSVCRTD:throw_bad_alloc.obj
 0002:0003ddb0       ??_Gbad_array_new_length@std@@UAEPAXI@Z 0045ddb0 f i MSVCRTD:throw_bad_alloc.obj
 0002:0003ddb0       ??_Ebad_array_new_length@std@@UAEPAXI@Z 0045ddb0 f i MSVCRTD:throw_bad_alloc.obj
 0002:0003ddf0       ?__scrt_throw_std_bad_alloc@@YAXXZ 0045ddf0 f   MSVCRTD:throw_bad_alloc.obj
 0002:0003de20       ?__scrt_throw_std_bad_array_new_length@@YAXXZ 0045de20 f   MSVCRTD:throw_bad_alloc.obj
 0002:0003dff0       ?_RTC_AllocaFailure@@YAXPAXPAU_RTC_ALLOCA_NODE@@H@Z 0045dff0 f   MSVCRTD:_error_.obj
 0002:0003e110       ?_RTC_Failure@@YAXPAXH@Z   0045e110 f   MSVCRTD:_error_.obj
 0002:0003e180       ?_RTC_StackFailure@@YAXPAXPBD@Z 0045e180 f   MSVCRTD:_error_.obj
 0002:0003e5a0       __RTC_UninitUse            0045e5a0 f   MSVCRTD:_error_.obj
 0002:0003e680       __vsprintf_s_l             0045e680 f i MSVCRTD:_error_.obj
 0002:0003e6c0       _sprintf_s                 0045e6c0 f i MSVCRTD:_error_.obj
 0002:0003e6f0       ___raise_securityfailure   0045e6f0 f   MSVCRTD:gs_report.obj
 0002:0003e730       ___report_gsfailure        0045e730 f   MSVCRTD:gs_report.obj
 0002:0003e880       ___report_rangecheckfailure 0045e880 f   MSVCRTD:gs_report.obj
 0002:0003e890       ___report_securityfailure  0045e890 f   MSVCRTD:gs_report.obj
 0002:0003e9a0       ___report_securityfailureEx 0045e9a0 f   MSVCRTD:gs_report.obj
 0002:0003eb10       ?_RTC_GetErrorFunc@@YAP6AHHPBDH00ZZPBX@Z 0045eb10 f   MSVCRTD:_userapi_.obj
 0002:0003eb20       ?_RTC_GetErrorFuncW@@YAP6AHHPB_WH00ZZPBX@Z 0045eb20 f   MSVCRTD:_userapi_.obj
 0002:0003eb30       __RTC_GetErrDesc           0045eb30 f   MSVCRTD:_userapi_.obj
 0002:0003eb50       __RTC_NumErrors            0045eb50 f   MSVCRTD:_userapi_.obj
 0002:0003eb60       __RTC_SetErrorFunc         0045eb60 f   MSVCRTD:_userapi_.obj
 0002:0003eb90       __RTC_SetErrorFuncW        0045eb90 f   MSVCRTD:_userapi_.obj
 0002:0003ebc0       __RTC_SetErrorType         0045ebc0 f   MSVCRTD:_userapi_.obj
 0002:0003ebf0       ___isa_available_init      0045ebf0 f   MSVCRTD:_cpu_disp_.obj
 0002:0003ef80       __get_startup_argv_mode    0045ef80 f   MSVCRTD:argv_mode.obj
 0002:0003ef90       ___scrt_is_ucrt_dll_in_use 0045ef90 f   MSVCRTD:ucrt_detection.obj
 0002:0003efc0       ___scrt_fastfail           0045efc0 f   MSVCRTD:utility_desktop.obj
 0002:0003f150       ___scrt_get_show_window_mode 0045f150 f   MSVCRTD:utility_desktop.obj
 0002:0003f1a0       ___scrt_initialize_winrt   0045f1a0 f   MSVCRTD:utility_desktop.obj
 0002:0003f1b0       ___scrt_is_managed_app     0045f1b0 f   MSVCRTD:utility_desktop.obj
 0002:0003f260       ___scrt_set_unhandled_exception_filter 0045f260 f   MSVCRTD:utility_desktop.obj
 0002:0003f280       ___scrt_unhandled_exception_filter@4 0045f280 f   MSVCRTD:utility_desktop.obj
 0002:0003f300       __crt_debugger_hook        0045f300 f   MSVCRTD:utility_desktop.obj
 0002:0003f320       __except_handler4          0045f320 f   MSVCRTD:_chandler4gs_.obj
 0002:0003f3e0       ___security_init_cookie    0045f3e0 f   MSVCRTD:gs_support.obj
 0002:0003f480       __matherr                  0045f480 f   MSVCRTD:matherr.obj
 0002:0003f490       __get_startup_commit_mode  0045f490 f   MSVCRTD:commit_mode.obj
 0002:0003f4a0       __get_startup_file_mode    0045f4a0 f   MSVCRTD:file_mode.obj
 0002:0003f4b0       __get_startup_new_mode     0045f4b0 f   MSVCRTD:new_mode.obj
 0002:0003f4c0       __get_startup_thread_locale_mode 0045f4c0 f   MSVCRTD:thread_locale.obj
 0002:0003f4d0       ?__scrt_initialize_type_info@@YAXXZ 0045f4d0 f   MSVCRTD:tncleanup.obj
 0002:0003f4f0       ?__scrt_uninitialize_type_info@@YAXXZ 0045f4f0 f   MSVCRTD:tncleanup.obj
 0002:0003f510       __should_initialize_environment 0045f510 f   MSVCRTD:env_mode.obj
 0002:0003f520       __initialize_default_precision 0045f520 f   MSVCRTD:default_precision.obj
 0002:0003f550       __initialize_invalid_parameter_handler 0045f550 f   MSVCRTD:invalid_parameter_handler.obj
 0002:0003f560       __initialize_denormal_control 0045f560 f   MSVCRTD:denormal_control.obj
 0002:0003f570       ___local_stdio_scanf_options 0045f570 f i MSVCRTD:default_local_stdio_options.obj
 0002:0003f580       ___scrt_initialize_default_local_stdio_options 0045f580 f   MSVCRTD:default_local_stdio_options.obj
 0002:0003f5d0       ___scrt_is_user_matherr_present 0045f5d0 f   MSVCRTD:matherr_detection.obj
 0002:0003f600       ___scrt_get_dyn_tls_init_callback 0045f600 f   MSVCRTD:dyn_tls_init.obj
 0002:0003f610       ___scrt_get_dyn_tls_dtor_callback 0045f610 f   MSVCRTD:dyn_tls_dtor.obj
 0002:0003f620       __RTC_Initialize           0045f620 f   MSVCRTD:_initsect_.obj
 0002:0003f660       __RTC_Terminate            0045f660 f   MSVCRTD:_initsect_.obj
 0002:0003f6a0       @_guard_check_icall_nop@4  0045f6a0 f i MSVCRTD:guard_support.obj
 0002:0003f6b0       _ReadNoFence               0045f6b0 f i MSVCRTD:guard_support.obj
 0002:0003f6d0       _ReadPointerNoFence        0045f6d0 f i MSVCRTD:guard_support.obj
 0002:0003f6f0       __guard_icall_checks_enforced 0045f6f0 f i MSVCRTD:guard_support.obj
 0002:0003fcf0       ?_RTC_GetSrcLine@@YAHPAEPA_WKPAH1K@Z 0045fcf0 f   MSVCRTD:_pdblkup_.obj
 0002:0004010a       _memcpy                    0046010a f   vcruntimed:VCRUNTIME140D.dll
 0002:00040110       _memmove                   00460110 f   vcruntimed:VCRUNTIME140D.dll
 0002:00040116       ___CxxFrameHandler3        00460116 f   vcruntimed:VCRUNTIME140D.dll
 0002:0004011c       _memset                    0046011c f   vcruntimed:VCRUNTIME140D.dll
 0002:00040122       ___std_exception_copy      00460122 f   vcruntimed:VCRUNTIME140D.dll
 0002:00040128       ___std_exception_destroy   00460128 f   vcruntimed:VCRUNTIME140D.dll
 0002:0004012e       __CxxThrowException@8      0046012e f   vcruntimed:VCRUNTIME140D.dll
 0002:00040134       ___RTDynamicCast           00460134 f   vcruntimed:VCRUNTIME140D.dll
 0002:0004013a       _memcmp                    0046013a f   vcruntimed:VCRUNTIME140D.dll
 0002:00040140       __except_handler4_common   00460140 f   vcruntimed:VCRUNTIME140D.dll
 0002:00040146       ___std_type_info_destroy_list 00460146 f   vcruntimed:VCRUNTIME140D.dll
 0002:0004014c       ___vcrt_GetModuleFileNameW 0046014c f   vcruntimed:VCRUNTIME140D.dll
 0002:00040152       ___vcrt_GetModuleHandleW   00460152 f   vcruntimed:VCRUNTIME140D.dll
 0002:00040158       ___vcrt_LoadLibraryExW     00460158 f   vcruntimed:VCRUNTIME140D.dll
 0002:0004015e       __invalid_parameter        0046015e f   ucrtd:ucrtbased.dll
 0002:00040164       _atan                      00460164 f   ucrtd:ucrtbased.dll
 0002:0004016a       _strlen                    0046016a f   ucrtd:ucrtbased.dll
 0002:00040170       __CrtDbgReportW            00460170 f   ucrtd:ucrtbased.dll
 0002:00040176       __invalid_parameter_noinfo 00460176 f   ucrtd:ucrtbased.dll
 0002:0004017c       __errno                    0046017c f   ucrtd:ucrtbased.dll
 0002:00040182       _system                    00460182 f   ucrtd:ucrtbased.dll
 0002:00040188       __get_stream_buffer_pointers 00460188 f   ucrtd:ucrtbased.dll
 0002:0004018e       _fclose                    0046018e f   ucrtd:ucrtbased.dll
 0002:00040194       _fflush                    00460194 f   ucrtd:ucrtbased.dll
 0002:0004019a       _fgetc                     0046019a f   ucrtd:ucrtbased.dll
 0002:000401a0       _fgetpos                   004601a0 f   ucrtd:ucrtbased.dll
 0002:000401a6       _fputc                     004601a6 f   ucrtd:ucrtbased.dll
 0002:000401ac       _fsetpos                   004601ac f   ucrtd:ucrtbased.dll
 0002:000401b2       __fseeki64                 004601b2 f   ucrtd:ucrtbased.dll
 0002:000401b8       _fwrite                    004601b8 f   ucrtd:ucrtbased.dll
 0002:000401be       _setvbuf                   004601be f   ucrtd:ucrtbased.dll
 0002:000401c4       _ungetc                    004601c4 f   ucrtd:ucrtbased.dll
 0002:000401ca       __lock_file                004601ca f   ucrtd:ucrtbased.dll
 0002:000401d0       __unlock_file              004601d0 f   ucrtd:ucrtbased.dll
 0002:000401d6       _srand                     004601d6 f   ucrtd:ucrtbased.dll
 0002:000401dc       _rand                      004601dc f   ucrtd:ucrtbased.dll
 0002:000401e2       __time64                   004601e2 f   ucrtd:ucrtbased.dll
 0002:000401e8       __wassert                  004601e8 f   ucrtd:ucrtbased.dll
 0002:000401ee       ___acrt_iob_func           004601ee f   ucrtd:ucrtbased.dll
 0002:000401f4       ___stdio_common_vfprintf   004601f4 f   ucrtd:ucrtbased.dll
 0002:000401fa       _free                      004601fa f   ucrtd:ucrtbased.dll
 0002:00040200       _malloc                    00460200 f   ucrtd:ucrtbased.dll
 0002:00040206       _sqrt                      00460206 f   ucrtd:ucrtbased.dll
 0002:0004020c       __free_dbg                 0046020c f   ucrtd:ucrtbased.dll
 0002:00040212       __malloc_dbg               00460212 f   ucrtd:ucrtbased.dll
 0002:00040218       __callnewh                 00460218 f   ucrtd:ucrtbased.dll
 0002:0004021e       __CrtDbgReport             0046021e f   ucrtd:ucrtbased.dll
 0002:00040224       __seh_filter_dll           00460224 f   ucrtd:ucrtbased.dll
 0002:0004022a       __configure_narrow_argv    0046022a f   ucrtd:ucrtbased.dll
 0002:00040230       __initialize_narrow_environment 00460230 f   ucrtd:ucrtbased.dll
 0002:00040236       __initialize_onexit_table  00460236 f   ucrtd:ucrtbased.dll
 0002:0004023c       __register_onexit_function 0046023c f   ucrtd:ucrtbased.dll
 0002:00040242       __execute_onexit_table     00460242 f   ucrtd:ucrtbased.dll
 0002:00040248       __crt_atexit               00460248 f   ucrtd:ucrtbased.dll
 0002:0004024e       __crt_at_quick_exit        0046024e f   ucrtd:ucrtbased.dll
 0002:00040254       __cexit                    00460254 f   ucrtd:ucrtbased.dll
 0002:0004025a       __seh_filter_exe           0046025a f   ucrtd:ucrtbased.dll
 0002:00040260       __set_app_type             00460260 f   ucrtd:ucrtbased.dll
 0002:00040266       ___setusermatherr          00460266 f   ucrtd:ucrtbased.dll
 0002:0004026c       __get_initial_narrow_environment 0046026c f   ucrtd:ucrtbased.dll
 0002:00040272       __initterm                 00460272 f   ucrtd:ucrtbased.dll
 0002:00040278       __initterm_e               00460278 f   ucrtd:ucrtbased.dll
 0002:0004027e       _exit                      0046027e f   ucrtd:ucrtbased.dll
 0002:00040284       __exit                     00460284 f   ucrtd:ucrtbased.dll
 0002:0004028a       __set_fmode                0046028a f   ucrtd:ucrtbased.dll
 0002:00040290       ___p___argc                00460290 f   ucrtd:ucrtbased.dll
 0002:00040296       ___p___argv                00460296 f   ucrtd:ucrtbased.dll
 0002:0004029c       __c_exit                   0046029c f   ucrtd:ucrtbased.dll
 0002:000402a2       __register_thread_local_exe_atexit_callback 004602a2 f   ucrtd:ucrtbased.dll
 0002:000402a8       __configthreadlocale       004602a8 f   ucrtd:ucrtbased.dll
 0002:000402ae       __set_new_mode             004602ae f   ucrtd:ucrtbased.dll
 0002:000402b4       ___p__commode              004602b4 f   ucrtd:ucrtbased.dll
 0002:000402ba       __except1                  004602ba f   ucrtd:ucrtbased.dll
 0002:000402c0       _strcpy_s                  004602c0 f   ucrtd:ucrtbased.dll
 0002:000402c6       _strcat_s                  004602c6 f   ucrtd:ucrtbased.dll
 0002:000402cc       ___stdio_common_vsprintf_s 004602cc f   ucrtd:ucrtbased.dll
 0002:000402d2       _terminate                 004602d2 f   ucrtd:ucrtbased.dll
 0002:000402d8       __controlfp_s              004602d8 f   ucrtd:ucrtbased.dll
 0002:000402de       __wmakepath_s              004602de f   ucrtd:ucrtbased.dll
 0002:000402e4       __wsplitpath_s             004602e4 f   ucrtd:ucrtbased.dll
 0002:000402ea       _wcscpy_s                  004602ea f   ucrtd:ucrtbased.dll
 0002:000402f0       _IsDebuggerPresent@0       004602f0 f   kernel32:KERNEL32.dll
 0002:000402f6       _RaiseException@16         004602f6 f   kernel32:KERNEL32.dll
 0002:000402fc       _MultiByteToWideChar@24    004602fc f   kernel32:KERNEL32.dll
 0002:00040302       _WideCharToMultiByte@32    00460302 f   kernel32:KERNEL32.dll
 0002:00040308       _UnhandledExceptionFilter@4 00460308 f   kernel32:KERNEL32.dll
 0002:0004030e       _SetUnhandledExceptionFilter@4 0046030e f   kernel32:KERNEL32.dll
 0002:00040314       _GetCurrentProcess@0       00460314 f   kernel32:KERNEL32.dll
 0002:0004031a       _TerminateProcess@8        0046031a f   kernel32:KERNEL32.dll
 0002:00040320       _IsProcessorFeaturePresent@4 00460320 f   kernel32:KERNEL32.dll
 0002:00040326       _GetStartupInfoW@4         00460326 f   kernel32:KERNEL32.dll
 0002:0004032c       _GetModuleHandleW@4        0046032c f   kernel32:KERNEL32.dll
 0002:00040332       _GetCurrentProcessId@0     00460332 f   kernel32:KERNEL32.dll
 0002:00040338       _GetCurrentThreadId@0      00460338 f   kernel32:KERNEL32.dll
 0002:0004033e       _GetSystemTimeAsFileTime@4 0046033e f   kernel32:KERNEL32.dll
 0002:00040344       _InitializeSListHead@4     00460344 f   kernel32:KERNEL32.dll
 0002:0004034a       _GetLastError@0            0046034a f   kernel32:KERNEL32.dll
 0002:00040350       _HeapAlloc@12              00460350 f   kernel32:KERNEL32.dll
 0002:00040356       _HeapFree@12               00460356 f   kernel32:KERNEL32.dll
 0002:0004035c       _GetProcessHeap@0          0046035c f   kernel32:KERNEL32.dll
 0002:00040362       _VirtualQuery@12           00460362 f   kernel32:KERNEL32.dll
 0002:00040368       _FreeLibrary@4             00460368 f   kernel32:KERNEL32.dll
 0002:0004036e       _GetProcAddress@8          0046036e f   kernel32:KERNEL32.dll
 0002:00040380       ___scrt_stub_for_acrt_initialize 00460380 f   MSVCRTD:ucrt_stubs.obj
 0002:00040380       ___vcrt_initialize         00460380 f   MSVCRTD:ucrt_stubs.obj
 0002:00040380       ___acrt_initialize         00460380 f   MSVCRTD:ucrt_stubs.obj
 0002:00040390       ___vcrt_thread_attach      00460390 f   MSVCRTD:ucrt_stubs.obj
 0002:00040390       ___scrt_stub_for_acrt_thread_attach 00460390 f   MSVCRTD:ucrt_stubs.obj
 0002:00040390       ___acrt_thread_attach      00460390 f   MSVCRTD:ucrt_stubs.obj
 0002:000403a0       ___acrt_thread_detach      004603a0 f   MSVCRTD:ucrt_stubs.obj
 0002:000403a0       ___scrt_stub_for_acrt_thread_detach 004603a0 f   MSVCRTD:ucrt_stubs.obj
 0002:000403a0       ___vcrt_thread_detach      004603a0 f   MSVCRTD:ucrt_stubs.obj
 0002:000403b0       ___vcrt_uninitialize       004603b0 f   MSVCRTD:ucrt_stubs.obj
 0002:000403b0       ___scrt_stub_for_acrt_uninitialize 004603b0 f   MSVCRTD:ucrt_stubs.obj
 0002:000403b0       ___acrt_uninitialize       004603b0 f   MSVCRTD:ucrt_stubs.obj
 0002:000403c0       ___vcrt_uninitialize_critical 004603c0 f   MSVCRTD:ucrt_stubs.obj
 0002:000403c0       ___scrt_stub_for_acrt_uninitialize_critical 004603c0 f   MSVCRTD:ucrt_stubs.obj
 0002:000403c0       ___acrt_uninitialize_critical 004603c0 f   MSVCRTD:ucrt_stubs.obj
 0002:000403d0       ___scrt_stub_for_is_c_termination_complete 004603d0 f   MSVCRTD:ucrt_stubs.obj
 0002:000403d0       __is_c_termination_complete 004603d0 f   MSVCRTD:ucrt_stubs.obj
 0003:00000000       ___xc_a                    00468000     MSVCRTD:initializers.obj
 0003:00000438       ___xc_z                    00468438     MSVCRTD:initializers.obj
 0003:0000053c       ___xi_a                    0046853c     MSVCRTD:initializers.obj
 0003:00000848       ___xi_z                    00468848     MSVCRTD:initializers.obj
 0003:0000094c       ___xp_a                    0046894c     MSVCRTD:initializers.obj
 0003:00000a50       ___xp_z                    00468a50     MSVCRTD:initializers.obj
 0003:00000b54       ___xt_a                    00468b54     MSVCRTD:initializers.obj
 0003:00000c58       ___xt_z                    00468c58     MSVCRTD:initializers.obj
 0003:00000d6c       ??_C@_0BE@LMNLACIC@_Ptr_container?5?$CB?$DN?50?$AA@ 00468d6c     Editor.obj
 0003:00000d84       ??_C@_1DG@HGDKEBPG@?$AA?$CC?$AA_?$AAP?$AAt?$AAr?$AA_?$AAc?$AAo?$AAn?$AAt?$AAa?$AAi?$AAn?$AAe?$AAr?$AA?5?$AA?$CB?$AA?$DN?$AA?5?$AA0?$AA?$CC?$AA?5?$AA?$CG?$AA?$CG?$AA?5?$AA0?$AA?$AA@ 00468d84     Editor.obj
 0003:00000dc4       ??_C@_17CNPHIMPH@?$AA?$CF?$AAl?$AAs?$AA?$AA@ 00468dc4     Editor.obj
 0003:00000dd0       ??_C@_1NE@LDAPAPE@?$AAc?$AA?3?$AA?2?$AAp?$AAr?$AAo?$AAg?$AAr?$AAa?$AAm?$AA?5?$AAf?$AAi?$AAl?$AAe?$AAs?$AA?5?$AA?$CI?$AAx?$AA8?$AA6?$AA?$CJ?$AA?2?$AAm?$AAi?$AAc?$AAr?$AAo?$AAs?$AAo?$AAf?$AAt@ 00468dd0     Editor.obj
 0003:00000ed0       ??_C@_1BO@NKFMJPA@?$AAs?$AAt?$AAd?$AA?3?$AA?3?$AA_?$AAA?$AAl?$AAl?$AAo?$AAc?$AAa?$AAt?$AAe?$AA?$AA@ 00468ed0     Editor.obj
 0003:00000ef4       ??_C@_1CG@JNLFBNGN@?$AA?$CC?$AAi?$AAn?$AAv?$AAa?$AAl?$AAi?$AAd?$AA?5?$AAa?$AAr?$AAg?$AAu?$AAm?$AAe?$AAn?$AAt?$AA?$CC?$AA?$AA@ 00468ef4     Editor.obj
 0003:00000f24       ??_C@_09GLJCAGLP@_Ptr?5?$CB?$DN?50?$AA@ 00468f24     Editor.obj
 0003:00000f30       ??_C@_1CC@GKJLLHIM@?$AA?$CC?$AA_?$AAP?$AAt?$AAr?$AA?5?$AA?$CB?$AA?$DN?$AA?5?$AA0?$AA?$CC?$AA?5?$AA?$CG?$AA?$CG?$AA?5?$AA0?$AA?$AA@ 00468f30     Editor.obj
 0003:00000f58       ??_C@_1CC@LOFJFFDB@?$AAs?$AAt?$AAd?$AA?3?$AA?3?$AA_?$AAD?$AAe?$AAa?$AAl?$AAl?$AAo?$AAc?$AAa?$AAt?$AAe?$AA?$AA@ 00468f58     Editor.obj
 0003:00000f84       ??_7Editor@@6B@            00468f84     Editor.obj
 0003:00000fa4       ??_C@_0O@LJOHIBP@wallpaper?4bmp?$AA@ 00468fa4     Editor.obj
 0003:00000fb4       ??_C@_0BA@JFNIOLAK@string?5too?5long?$AA@ 00468fb4     Editor.obj
 0003:00000fc8       __real@3ff0000000000000    00468fc8     Editor.obj
 0003:00000fd8       __real@4010000000000000    00468fd8     Editor.obj
 0003:00000fe8       ??_7exception@std@@6B@     00468fe8     main.obj
 0003:00000ff4       ??_C@_0BC@EOODALEL@Unknown?5exception?$AA@ 00468ff4     main.obj
 0003:00001010       ??_C@_1NE@PGNLCFFH@?$AAc?$AA?3?$AA?2?$AAp?$AAr?$AAo?$AAg?$AAr?$AAa?$AAm?$AA?5?$AAf?$AAi?$AAl?$AAe?$AAs?$AA?5?$AA?$CI?$AAx?$AA8?$AA6?$AA?$CJ?$AA?2?$AAm?$AAi?$AAc?$AAr?$AAo?$AAs?$AAo?$AAf?$AAt@ 00469010     main.obj
 0003:00001110       ??_C@_1DC@POOIKBAO@?$AAI?$AAT?$AAE?$AAR?$AAA?$AAT?$AAO?$AAR?$AA?5?$AAL?$AAI?$AAS?$AAT?$AA?5?$AAC?$AAO?$AAR?$AAR?$AAU?$AAP?$AAT?$AAE?$AAD?$AA?$CB?$AA?$AA@ 00469110     main.obj
 0003:00001150       ??_C@_1EE@KLDMFDFL@?$AAs?$AAt?$AAd?$AA?3?$AA?3?$AA_?$AAI?$AAt?$AAe?$AAr?$AAa?$AAt?$AAo?$AAr?$AA_?$AAb?$AAa?$AAs?$AAe?$AA1?$AA2?$AA?3?$AA?3?$AA_?$AAO?$AAr?$AAp?$AAh?$AAa?$AAn?$AA_?$AAm@ 00469150     main.obj
 0003:000011a4       ??_C@_1DG@PLBPCAEM@?$AA?$CC?$AAI?$AAT?$AAE?$AAR?$AAA?$AAT?$AAO?$AAR?$AA?5?$AAL?$AAI?$AAS?$AAT?$AA?5?$AAC?$AAO?$AAR?$AAR?$AAU?$AAP?$AAT?$AAE?$AAD?$AA?$CB?$AA?$CC?$AA?$AA@ 004691a4     main.obj
 0003:000011e8       ??_7bad_cast@std@@6B@      004691e8     main.obj
 0003:000011f4       ??_C@_08EPJLHIJG@bad?5cast?$AA@ 004691f4     main.obj
 0003:00001200       ??_C@_0N@KFGCJNCF@pathgrid?4txt?$AA@ 00469200     main.obj
 0003:00001214       ??_7?$basic_filebuf@DU?$char_traits@D@std@@@std@@6B@ 00469214     main.obj
 0003:00001260       ??_7?$basic_ofstream@DU?$char_traits@D@std@@@std@@6B@ 00469260     main.obj
 0003:00001268       ??_8?$basic_ofstream@DU?$char_traits@D@std@@@std@@7B@ 00469268     main.obj
 0003:00001278       ??_7?$basic_ifstream@DU?$char_traits@D@std@@@std@@6B@ 00469278     main.obj
 0003:00001280       ??_8?$basic_ifstream@DU?$char_traits@D@std@@@std@@7B@ 00469280     main.obj
 0003:0000128c       ??_C@_0N@HNPDNMDL@Grid?5saved?$CB?6?$AA@ 0046928c     main.obj
 0003:0000129c       ??_C@_0O@OBPNDELL@Grid?5loaded?$CB?6?$AA@ 0046929c     main.obj
 0003:000012ac       ??_C@_05PDJBBECF@pause?$AA@ 004692ac     main.obj
 0003:000012b8       ??_C@_1NC@BACJDPOH@?$AAc?$AA?3?$AA?2?$AAp?$AAr?$AAo?$AAg?$AAr?$AAa?$AAm?$AA?5?$AAf?$AAi?$AAl?$AAe?$AAs?$AA?5?$AA?$CI?$AAx?$AA8?$AA6?$AA?$CJ?$AA?2?$AAm?$AAi?$AAc?$AAr?$AAo?$AAs?$AAo?$AAf?$AAt@ 004692b8     main.obj
 0003:000013b8       ??_C@_1GK@EPFFCEAH@?$AAc?$AAa?$AAn?$AAn?$AAo?$AAt?$AA?5?$AAd?$AAe?$AAr?$AAe?$AAf?$AAe?$AAr?$AAe?$AAn?$AAc?$AAe?$AA?5?$AAv?$AAa?$AAl?$AAu?$AAe?$AA?9?$AAi?$AAn?$AAi?$AAt?$AAi?$AAa?$AAl@ 004693b8     main.obj
 0003:00001438       ??_C@_1MG@GDGHDIKC@?$AAs?$AAt?$AAd?$AA?3?$AA?3?$AA_?$AAS?$AAt?$AAr?$AAi?$AAn?$AAg?$AA_?$AAc?$AAo?$AAn?$AAs?$AAt?$AA_?$AAi?$AAt?$AAe?$AAr?$AAa?$AAt?$AAo?$AAr?$AA?$DM?$AAc?$AAl?$AAa?$AAs@ 00469438     main.obj
 0003:00001528       ??_C@_1GO@PNALIMBD@?$AA?$CC?$AAc?$AAa?$AAn?$AAn?$AAo?$AAt?$AA?5?$AAd?$AAe?$AAr?$AAe?$AAf?$AAe?$AAr?$AAe?$AAn?$AAc?$AAe?$AA?5?$AAv?$AAa?$AAl?$AAu?$AAe?$AA?9?$AAi?$AAn?$AAi?$AAt?$AAi?$AAa@ 00469528     main.obj
 0003:000015b0       ??_C@_1BAE@HEEJFKO@?$AAc?$AAa?$AAn?$AAn?$AAo?$AAt?$AA?5?$AAd?$AAe?$AAr?$AAe?$AAf?$AAe?$AAr?$AAe?$AAn?$AAc?$AAe?$AA?5?$AAs?$AAt?$AAr?$AAi?$AAn?$AAg?$AA?5?$AAi?$AAt?$AAe?$AAr?$AAa?$AAt@ 004695b0     main.obj
 0003:000016e8       ??_C@_1BAO@BGLBIONH@?$AA?$CC?$AAc?$AAa?$AAn?$AAn?$AAo?$AAt?$AA?5?$AAd?$AAe?$AAr?$AAe?$AAf?$AAe?$AAr?$AAe?$AAn?$AAc?$AAe?$AA?5?$AAs?$AAt?$AAr?$AAi?$AAn?$AAg?$AA?5?$AAi?$AAt?$AAe?$AAr?$AAa@ 004696e8     main.obj
 0003:00001830       ??_C@_1KK@GJPIMLCF@?$AAc?$AAa?$AAn?$AAn?$AAo?$AAt?$AA?5?$AAd?$AAe?$AAr?$AAe?$AAf?$AAe?$AAr?$AAe?$AAn?$AAc?$AAe?$AA?5?$AAs?$AAt?$AAr?$AAi?$AAn?$AAg?$AA?5?$AAi?$AAt?$AAe?$AAr?$AAa?$AAt@ 00469830     main.obj
 0003:00001900       ??_C@_1KO@CMPBFHAM@?$AA?$CC?$AAc?$AAa?$AAn?$AAn?$AAo?$AAt?$AA?5?$AAd?$AAe?$AAr?$AAe?$AAf?$AAe?$AAr?$AAe?$AAn?$AAc?$AAe?$AA?5?$AAs?$AAt?$AAr?$AAi?$AAn?$AAg?$AA?5?$AAi?$AAt?$AAe?$AAr?$AAa@ 00469900     main.obj
 0003:000019d0       ??_C@_0BI@CFPLBAOH@invalid?5string?5position?$AA@ 004699d0     main.obj
 0003:000019f4       ??_7Game@@6B@              004699f4     CommonPathfindingLib:Game.obj
 0003:00001a14       ??_C@_0BP@NFOMDBJD@failed?5to?5initialize?5allegro?$CB?6?$AA@ 00469a14     CommonPathfindingLib:Game.obj
 0003:00001a3c       ??_C@_0CN@NDCAIAOH@failed?5to?5initialize?5GraphicsSys@ 00469a3c     CommonPathfindingLib:Game.obj
 0003:00001a74       ??_C@_0BN@OFBNGFA@image?5addon?5failed?5to?5load?$CB?6?$AA@ 00469a74     CommonPathfindingLib:Game.obj
 0003:00001a98       ??_C@_0BN@NHNICPGG@failed?5to?5initialize?5sound?$CB?6?$AA@ 00469a98     CommonPathfindingLib:Game.obj
 0003:00001abc       ??_C@_0CE@CPKCHMEC@failed?5to?5initialize?5audio?5codec@ 00469abc     CommonPathfindingLib:Game.obj
 0003:00001ae8       ??_C@_0BM@KCGEPDF@failed?5to?5reserve?5samples?$CB?6?$AA@ 00469ae8     CommonPathfindingLib:Game.obj
 0003:00001b0c       ??_C@_0BJ@JPBGIMMC@Keyboard?5not?5installed?$CB?6?$AA@ 00469b0c     CommonPathfindingLib:Game.obj
 0003:00001b2c       ??_C@_0BG@BDBLLEFH@Mouse?5not?5installed?$CB?6?$AA@ 00469b2c     CommonPathfindingLib:Game.obj
 0003:00001b48       ??_C@_0CG@BLOOKPHC@ttf?5font?5addon?5not?5initted?5prope@ 00469b48     CommonPathfindingLib:Game.obj
 0003:00001b78       ??_C@_08HHJKBNGC@cour?4ttf?$AA@ 00469b78     CommonPathfindingLib:Game.obj
 0003:00001b84       ??_C@_0CE@KEIEBNEM@ttf?5font?5file?5not?5loaded?5properl@ 00469b84     CommonPathfindingLib:Game.obj
 0003:00001bb0       ??_C@_0BN@GJEDGGAG@Primitives?5addon?5not?5added?$CB?6?$AA@ 00469bb0     CommonPathfindingLib:Game.obj
 0003:00001bd8       ??_C@_1NG@HCKCBECE@?$AAc?$AA?3?$AA?2?$AAu?$AAs?$AAe?$AAr?$AAs?$AA?2?$AAs?$AAt?$AAu?$AAd?$AAe?$AAn?$AAt?$AA?2?$AAd?$AAo?$AAc?$AAu?$AAm?$AAe?$AAn?$AAt?$AAs?$AA?2?$AAm?$AAm?$AAi?$AAd?$AAd@ 00469bd8     CommonPathfindingLib:Game.obj
 0003:00001cd8       ??_C@_1BK@FCDNEEDD@?$AAs?$AAt?$AAa?$AAr?$AAt?$AA?5?$AA?$DM?$AA?$DN?$AA?5?$AAe?$AAn?$AAd?$AA?$AA@ 00469cd8     CommonPathfindingLib:Game.obj
 0003:00001cf8       __real@4000000000000000    00469cf8     CommonPathfindingLib:Game.obj
 0003:00001d04       __real@46fffe00            00469d04     CommonPathfindingLib:Game.obj
 0003:00001d10       ??_C@_1MO@LLAFBOOJ@?$AAc?$AA?3?$AA?2?$AAp?$AAr?$AAo?$AAg?$AAr?$AAa?$AAm?$AA?5?$AAf?$AAi?$AAl?$AAe?$AAs?$AA?5?$AA?$CI?$AAx?$AA8?$AA6?$AA?$CJ?$AA?2?$AAm?$AAi?$AAc?$AAr?$AAo?$AAs?$AAo?$AAf?$AAt@ 00469d10     CommonPathfindingLib:GraphicsBufferManager.obj
 0003:00001e08       ??_C@_1DO@CFEEPGGJ@?$AAm?$AAa?$AAp?$AA?1?$AAs?$AAe?$AAt?$AA?5?$AAi?$AAt?$AAe?$AAr?$AAa?$AAt?$AAo?$AAr?$AAs?$AA?5?$AAi?$AAn?$AAc?$AAo?$AAm?$AAp?$AAa?$AAt?$AAi?$AAb?$AAl?$AAe?$AA?$AA@ 00469e08     CommonPathfindingLib:GraphicsBufferManager.obj
 0003:00001e58       ??_C@_1BKM@LBOFJKLH@?$AAs?$AAt?$AAd?$AA?3?$AA?3?$AA_?$AAT?$AAr?$AAe?$AAe?$AA_?$AAc?$AAo?$AAn?$AAs?$AAt?$AA_?$AAi?$AAt?$AAe?$AAr?$AAa?$AAt?$AAo?$AAr?$AA?$DM?$AAc?$AAl?$AAa?$AAs?$AAs?$AA?5@ 00469e58     CommonPathfindingLib:GraphicsBufferManager.obj
 0003:00002060       ??_C@_1EC@JLIDLCDH@?$AA?$CC?$AAm?$AAa?$AAp?$AA?1?$AAs?$AAe?$AAt?$AA?5?$AAi?$AAt?$AAe?$AAr?$AAa?$AAt?$AAo?$AAr?$AAs?$AA?5?$AAi?$AAn?$AAc?$AAo?$AAm?$AAp?$AAa?$AAt?$AAi?$AAb?$AAl?$AAe?$AA?$CC@ 0046a060     CommonPathfindingLib:GraphicsBufferManager.obj
 0003:000020b0       ??_C@_1BCK@OJKBJFLO@?$AAs?$AAt?$AAd?$AA?3?$AA?3?$AA_?$AAT?$AAr?$AAe?$AAe?$AA_?$AAc?$AAo?$AAn?$AAs?$AAt?$AA_?$AAi?$AAt?$AAe?$AAr?$AAa?$AAt?$AAo?$AAr?$AA?$DM?$AAc?$AAl?$AAa?$AAs?$AAs?$AA?5@ 0046a0b0     CommonPathfindingLib:GraphicsBufferManager.obj
 0003:00002218       ??_C@_1EG@EHJFMBHJ@?$AAm?$AAa?$AAp?$AA?1?$AAs?$AAe?$AAt?$AA?5?$AAi?$AAt?$AAe?$AAr?$AAa?$AAt?$AAo?$AAr?$AA?5?$AAn?$AAo?$AAt?$AA?5?$AAi?$AAn?$AAc?$AAr?$AAe?$AAm?$AAe?$AAn?$AAt?$AAa?$AAb@ 0046a218     CommonPathfindingLib:GraphicsBufferManager.obj
 0003:00002270       ??_C@_1BKM@BBBIHDHC@?$AAs?$AAt?$AAd?$AA?3?$AA?3?$AA_?$AAT?$AAr?$AAe?$AAe?$AA_?$AAc?$AAo?$AAn?$AAs?$AAt?$AA_?$AAi?$AAt?$AAe?$AAr?$AAa?$AAt?$AAo?$AAr?$AA?$DM?$AAc?$AAl?$AAa?$AAs?$AAs?$AA?5@ 0046a270     CommonPathfindingLib:GraphicsBufferManager.obj
 0003:00002478       ??_C@_1EK@BCPDGOMC@?$AA?$CC?$AAm?$AAa?$AAp?$AA?1?$AAs?$AAe?$AAt?$AA?5?$AAi?$AAt?$AAe?$AAr?$AAa?$AAt?$AAo?$AAr?$AA?5?$AAn?$AAo?$AAt?$AA?5?$AAi?$AAn?$AAc?$AAr?$AAe?$AAm?$AAe?$AAn?$AAt?$AAa@ 0046a478     CommonPathfindingLib:GraphicsBufferManager.obj
 0003:000024d0       ??_C@_1BCK@EJFMHMHL@?$AAs?$AAt?$AAd?$AA?3?$AA?3?$AA_?$AAT?$AAr?$AAe?$AAe?$AA_?$AAc?$AAo?$AAn?$AAs?$AAt?$AA_?$AAi?$AAt?$AAe?$AAr?$AAa?$AAt?$AAo?$AAr?$AA?$DM?$AAc?$AAl?$AAa?$AAs?$AAs?$AA?5@ 0046a4d0     CommonPathfindingLib:GraphicsBufferManager.obj
 0003:00002638       ??_C@_1EI@FHEHNNNM@?$AAm?$AAa?$AAp?$AA?1?$AAs?$AAe?$AAt?$AA?5?$AAi?$AAt?$AAe?$AAr?$AAa?$AAt?$AAo?$AAr?$AA?5?$AAn?$AAo?$AAt?$AA?5?$AAd?$AAe?$AAr?$AAe?$AAf?$AAe?$AAr?$AAe?$AAn?$AAc?$AAa@ 0046a638     CommonPathfindingLib:GraphicsBufferManager.obj
 0003:00002690       ??_C@_1BKK@NKNEDAJK@?$AAs?$AAt?$AAd?$AA?3?$AA?3?$AA_?$AAT?$AAr?$AAe?$AAe?$AA_?$AAc?$AAo?$AAn?$AAs?$AAt?$AA_?$AAi?$AAt?$AAe?$AAr?$AAa?$AAt?$AAo?$AAr?$AA?$DM?$AAc?$AAl?$AAa?$AAs?$AAs?$AA?5@ 0046a690     CommonPathfindingLib:GraphicsBufferManager.obj
 0003:00002890       ??_C@_1EM@KEKCOCNI@?$AA?$CC?$AAm?$AAa?$AAp?$AA?1?$AAs?$AAe?$AAt?$AA?5?$AAi?$AAt?$AAe?$AAr?$AAa?$AAt?$AAo?$AAr?$AA?5?$AAn?$AAo?$AAt?$AA?5?$AAd?$AAe?$AAr?$AAe?$AAf?$AAe?$AAr?$AAe?$AAn?$AAc@ 0046a890     CommonPathfindingLib:GraphicsBufferManager.obj
 0003:000028f0       ??_C@_1BCI@EAFCIGCE@?$AAs?$AAt?$AAd?$AA?3?$AA?3?$AA_?$AAT?$AAr?$AAe?$AAe?$AA_?$AAc?$AAo?$AAn?$AAs?$AAt?$AA_?$AAi?$AAt?$AAe?$AAr?$AAa?$AAt?$AAo?$AAr?$AA?$DM?$AAc?$AAl?$AAa?$AAs?$AAs?$AA?5@ 0046a8f0     CommonPathfindingLib:GraphicsBufferManager.obj
 0003:00002a58       ??_C@_1EK@PPDBPCAN@?$AAm?$AAa?$AAp?$AA?1?$AAs?$AAe?$AAt?$AA?5?$AAe?$AAr?$AAa?$AAs?$AAe?$AA?5?$AAi?$AAt?$AAe?$AAr?$AAa?$AAt?$AAo?$AAr?$AA?5?$AAo?$AAu?$AAt?$AAs?$AAi?$AAd?$AAe?$AA?5?$AAr@ 0046aa58     CommonPathfindingLib:GraphicsBufferManager.obj
 0003:00002ab0       ??_C@_1DAE@KNBKOAAE@?$AAs?$AAt?$AAd?$AA?3?$AA?3?$AA_?$AAT?$AAr?$AAe?$AAe?$AA?$DM?$AAc?$AAl?$AAa?$AAs?$AAs?$AA?5?$AAs?$AAt?$AAd?$AA?3?$AA?3?$AA_?$AAT?$AAm?$AAa?$AAp?$AA_?$AAt?$AAr?$AAa?$AAi@ 0046aab0     CommonPathfindingLib:GraphicsBufferManager.obj
 0003:00002e50       ??_C@_1EO@CEDAEPC@?$AA?$CC?$AAm?$AAa?$AAp?$AA?1?$AAs?$AAe?$AAt?$AA?5?$AAe?$AAr?$AAa?$AAs?$AAe?$AA?5?$AAi?$AAt?$AAe?$AAr?$AAa?$AAt?$AAo?$AAr?$AA?5?$AAo?$AAu?$AAt?$AAs?$AAi?$AAd?$AAe?$AA?5@ 0046ae50     CommonPathfindingLib:GraphicsBufferManager.obj
 0003:00002eb0       ??_C@_1BFG@GHKNDGGN@?$AAs?$AAt?$AAd?$AA?3?$AA?3?$AA_?$AAT?$AAr?$AAe?$AAe?$AA?$DM?$AAc?$AAl?$AAa?$AAs?$AAs?$AA?5?$AAs?$AAt?$AAd?$AA?3?$AA?3?$AA_?$AAT?$AAm?$AAa?$AAp?$AA_?$AAt?$AAr?$AAa?$AAi@ 0046aeb0     CommonPathfindingLib:GraphicsBufferManager.obj
 0003:0000304c       ??_C@_1CG@LEJCKCBB@?$AAi?$AAn?$AAv?$AAa?$AAl?$AAi?$AAd?$AA?5?$AAc?$AAo?$AAm?$AAp?$AAa?$AAr?$AAa?$AAt?$AAo?$AAr?$AA?$AA@ 0046b04c     CommonPathfindingLib:GraphicsBufferManager.obj
 0003:0000307c       ??_C@_1CI@JONCLBEJ@?$AAs?$AAt?$AAd?$AA?3?$AA?3?$AA_?$AAD?$AAe?$AAb?$AAu?$AAg?$AA_?$AAl?$AAt?$AA_?$AAp?$AAr?$AAe?$AAd?$AA?$AA@ 0046b07c     CommonPathfindingLib:GraphicsBufferManager.obj
 0003:000030ac       ??_C@_1CK@NDNHPKPI@?$AA?$CC?$AAi?$AAn?$AAv?$AAa?$AAl?$AAi?$AAd?$AA?5?$AAc?$AAo?$AAm?$AAp?$AAa?$AAr?$AAa?$AAt?$AAo?$AAr?$AA?$CC?$AA?$AA@ 0046b0ac     CommonPathfindingLib:GraphicsBufferManager.obj
 0003:000030e0       ??_C@_1MK@BGCKFPHK@?$AAc?$AA?3?$AA?2?$AAp?$AAr?$AAo?$AAg?$AAr?$AAa?$AAm?$AA?5?$AAf?$AAi?$AAl?$AAe?$AAs?$AA?5?$AA?$CI?$AAx?$AA8?$AA6?$AA?$CJ?$AA?2?$AAm?$AAi?$AAc?$AAr?$AAo?$AAs?$AAo?$AAf?$AAt@ 0046b0e0     CommonPathfindingLib:GraphicsBufferManager.obj
 0003:000031d8       ??_C@_1EM@MHOKKPFH@?$AAm?$AAa?$AAp?$AA?1?$AAs?$AAe?$AAt?$AA?5?$AAi?$AAn?$AAs?$AAe?$AAr?$AAt?$AA?5?$AAi?$AAt?$AAe?$AAr?$AAa?$AAt?$AAo?$AAr?$AA?5?$AAo?$AAu?$AAt?$AAs?$AAi?$AAd?$AAe?$AA?5@ 0046b1d8     CommonPathfindingLib:GraphicsBufferManager.obj
 0003:00003238       ??_C@_1DBC@OHPOMKKH@?$AAs?$AAt?$AAd?$AA?3?$AA?3?$AA_?$AAT?$AAr?$AAe?$AAe?$AA?$DM?$AAc?$AAl?$AAa?$AAs?$AAs?$AA?5?$AAs?$AAt?$AAd?$AA?3?$AA?3?$AA_?$AAT?$AAm?$AAa?$AAp?$AA_?$AAt?$AAr?$AAa?$AAi@ 0046b238     CommonPathfindingLib:GraphicsBufferManager.obj
 0003:000035e8       ??_C@_1FA@HNFOKDLB@?$AA?$CC?$AAm?$AAa?$AAp?$AA?1?$AAs?$AAe?$AAt?$AA?5?$AAi?$AAn?$AAs?$AAe?$AAr?$AAt?$AA?5?$AAi?$AAt?$AAe?$AAr?$AAa?$AAt?$AAo?$AAr?$AA?5?$AAo?$AAu?$AAt?$AAs?$AAi?$AAd?$AAe@ 0046b5e8     CommonPathfindingLib:GraphicsBufferManager.obj
 0003:00003648       ??_C@_1BGE@IPAALDOK@?$AAs?$AAt?$AAd?$AA?3?$AA?3?$AA_?$AAT?$AAr?$AAe?$AAe?$AA?$DM?$AAc?$AAl?$AAa?$AAs?$AAs?$AA?5?$AAs?$AAt?$AAd?$AA?3?$AA?3?$AA_?$AAT?$AAm?$AAa?$AAp?$AA_?$AAt?$AAr?$AAa?$AAi@ 0046b648     CommonPathfindingLib:GraphicsBufferManager.obj
 0003:000037f8       ??_C@_1EG@OKCGOALM@?$AAm?$AAa?$AAp?$AA?1?$AAs?$AAe?$AAt?$AA?5?$AAi?$AAt?$AAe?$AAr?$AAa?$AAt?$AAo?$AAr?$AA?5?$AAn?$AAo?$AAt?$AA?5?$AAd?$AAe?$AAc?$AAr?$AAe?$AAm?$AAe?$AAn?$AAt?$AAa?$AAb@ 0046b7f8     CommonPathfindingLib:GraphicsBufferManager.obj
 0003:00003850       ??_C@_1BKM@OCCKMPLD@?$AAs?$AAt?$AAd?$AA?3?$AA?3?$AA_?$AAT?$AAr?$AAe?$AAe?$AA_?$AAc?$AAo?$AAn?$AAs?$AAt?$AA_?$AAi?$AAt?$AAe?$AAr?$AAa?$AAt?$AAo?$AAr?$AA?$DM?$AAc?$AAl?$AAa?$AAs?$AAs?$AA?5@ 0046b850     CommonPathfindingLib:GraphicsBufferManager.obj
 0003:00003a58       ??_C@_1EK@OIBHPACE@?$AA?$CC?$AAm?$AAa?$AAp?$AA?1?$AAs?$AAe?$AAt?$AA?5?$AAi?$AAt?$AAe?$AAr?$AAa?$AAt?$AAo?$AAr?$AA?5?$AAn?$AAo?$AAt?$AA?5?$AAd?$AAe?$AAc?$AAr?$AAe?$AAm?$AAe?$AAn?$AAt?$AAa@ 0046ba58     CommonPathfindingLib:GraphicsBufferManager.obj
 0003:00003ab0       ??_C@_1BCK@LKGOMALK@?$AAs?$AAt?$AAd?$AA?3?$AA?3?$AA_?$AAT?$AAr?$AAe?$AAe?$AA_?$AAc?$AAo?$AAn?$AAs?$AAt?$AA_?$AAi?$AAt?$AAe?$AAr?$AAa?$AAt?$AAo?$AAr?$AA?$DM?$AAc?$AAl?$AAa?$AAs?$AAs?$AA?5@ 0046bab0     CommonPathfindingLib:GraphicsBufferManager.obj
 0003:00003c18       ??_C@_0BE@JONHPENG@map?1set?$DMT?$DO?5too?5long?$AA@ 0046bc18     CommonPathfindingLib:GraphicsBufferManager.obj
 0003:00003c34       ??_C@_01CLKCMJKC@?5?$AA@   0046bc34     CommonPathfindingLib:Grid.obj
 0003:00003c38       ??_C@_0BD@OLBABOEK@vector?$DMT?$DO?5too?5long?$AA@ 0046bc38     CommonPathfindingLib:Grid.obj
 0003:00003c68       ??_C@_1NA@DBEFKKMC@?$AAc?$AA?3?$AA?2?$AAp?$AAr?$AAo?$AAg?$AAr?$AAa?$AAm?$AA?5?$AAf?$AAi?$AAl?$AAe?$AAs?$AA?5?$AA?$CI?$AAx?$AA8?$AA6?$AA?$CJ?$AA?2?$AAm?$AAi?$AAc?$AAr?$AAo?$AAs?$AAo?$AAf?$AAt@ 0046bc68     CommonPathfindingLib:GridVisualizer.obj
 0003:00003d64       ??_C@_1DM@LHGCHCBA@?$AAv?$AAe?$AAc?$AAt?$AAo?$AAr?$AA?5?$AAs?$AAu?$AAb?$AAs?$AAc?$AAr?$AAi?$AAp?$AAt?$AA?5?$AAo?$AAu?$AAt?$AA?5?$AAo?$AAf?$AA?5?$AAr?$AAa?$AAn?$AAg?$AAe?$AA?$AA@ 0046bd64     CommonPathfindingLib:GridVisualizer.obj
 0003:00003db0       ??_C@_1HC@HBCEAHKD@?$AAs?$AAt?$AAd?$AA?3?$AA?3?$AAv?$AAe?$AAc?$AAt?$AAo?$AAr?$AA?$DM?$AAi?$AAn?$AAt?$AA?0?$AAc?$AAl?$AAa?$AAs?$AAs?$AA?5?$AAs?$AAt?$AAd?$AA?3?$AA?3?$AAa?$AAl?$AAl?$AAo?$AAc@ 0046bdb0     CommonPathfindingLib:GridVisualizer.obj
 0003:00003e38       ??_C@_1EA@LEKOKFNB@?$AA?$CC?$AAv?$AAe?$AAc?$AAt?$AAo?$AAr?$AA?5?$AAs?$AAu?$AAb?$AAs?$AAc?$AAr?$AAi?$AAp?$AAt?$AA?5?$AAo?$AAu?$AAt?$AA?5?$AAo?$AAf?$AA?5?$AAr?$AAa?$AAn?$AAg?$AAe?$AA?$CC?$AA?$AA@ 0046be38     CommonPathfindingLib:GridVisualizer.obj
 0003:00003e88       ??_C@_1BIE@CKJBPEOB@?$AAs?$AAt?$AAd?$AA?3?$AA?3?$AA_?$AAT?$AAr?$AAe?$AAe?$AA_?$AAc?$AAo?$AAn?$AAs?$AAt?$AA_?$AAi?$AAt?$AAe?$AAr?$AAa?$AAt?$AAo?$AAr?$AA?$DM?$AAc?$AAl?$AAa?$AAs?$AAs?$AA?5@ 0046be88     CommonPathfindingLib:GridVisualizer.obj
 0003:00004060       ??_C@_1BIE@IKGMBNCE@?$AAs?$AAt?$AAd?$AA?3?$AA?3?$AA_?$AAT?$AAr?$AAe?$AAe?$AA_?$AAc?$AAo?$AAn?$AAs?$AAt?$AA_?$AAi?$AAt?$AAe?$AAr?$AAa?$AAt?$AAo?$AAr?$AA?$DM?$AAc?$AAl?$AAa?$AAs?$AAs?$AA?5@ 0046c060     CommonPathfindingLib:GridVisualizer.obj
 0003:00004238       ??_C@_1BIC@KMEIKKAA@?$AAs?$AAt?$AAd?$AA?3?$AA?3?$AA_?$AAT?$AAr?$AAe?$AAe?$AA_?$AAc?$AAo?$AAn?$AAs?$AAt?$AA_?$AAi?$AAt?$AAe?$AAr?$AAa?$AAt?$AAo?$AAr?$AA?$DM?$AAc?$AAl?$AAa?$AAs?$AAs?$AA?5@ 0046c238     CommonPathfindingLib:GridVisualizer.obj
 0003:00004408       ??_C@_1CBA@CCNHNPBA@?$AAs?$AAt?$AAd?$AA?3?$AA?3?$AA_?$AAT?$AAr?$AAe?$AAe?$AA?$DM?$AAc?$AAl?$AAa?$AAs?$AAs?$AA?5?$AAs?$AAt?$AAd?$AA?3?$AA?3?$AA_?$AAT?$AAm?$AAa?$AAp?$AA_?$AAt?$AAr?$AAa?$AAi@ 0046c408     CommonPathfindingLib:GridVisualizer.obj
 0003:00004684       ??_C@_1CO@DGLIKNHI@?$AAi?$AAn?$AAv?$AAa?$AAl?$AAi?$AAd?$AA?5?$AAi?$AAt?$AAe?$AAr?$AAa?$AAt?$AAo?$AAr?$AA?5?$AAr?$AAa?$AAn?$AAg?$AAe?$AA?$AA@ 0046c684     CommonPathfindingLib:GridVisualizer.obj
 0003:000046bc       ??_C@_1CG@MDICLDJA@?$AAs?$AAt?$AAd?$AA?3?$AA?3?$AA_?$AAD?$AAe?$AAb?$AAu?$AAg?$AA_?$AAr?$AAa?$AAn?$AAg?$AAe?$AA2?$AA?$AA@ 0046c6bc     CommonPathfindingLib:GridVisualizer.obj
 0003:000046ec       ??_C@_1DC@CHPPODDE@?$AA?$CC?$AAi?$AAn?$AAv?$AAa?$AAl?$AAi?$AAd?$AA?5?$AAi?$AAt?$AAe?$AAr?$AAa?$AAt?$AAo?$AAr?$AA?5?$AAr?$AAa?$AAn?$AAg?$AAe?$AA?$CC?$AA?$AA@ 0046c6ec     CommonPathfindingLib:GridVisualizer.obj
 0003:00004728       ??_C@_1CBO@JCPLFJGN@?$AAs?$AAt?$AAd?$AA?3?$AA?3?$AA_?$AAT?$AAr?$AAe?$AAe?$AA?$DM?$AAc?$AAl?$AAa?$AAs?$AAs?$AA?5?$AAs?$AAt?$AAd?$AA?3?$AA?3?$AA_?$AAT?$AAm?$AAa?$AAp?$AA_?$AAt?$AAr?$AAa?$AAi@ 0046c728     CommonPathfindingLib:GridVisualizer.obj
 0003:000049b8       ??_C@_1BIE@HJFOKBOF@?$AAs?$AAt?$AAd?$AA?3?$AA?3?$AA_?$AAT?$AAr?$AAe?$AAe?$AA_?$AAc?$AAo?$AAn?$AAs?$AAt?$AA_?$AAi?$AAt?$AAe?$AAr?$AAa?$AAt?$AAo?$AAr?$AA?$DM?$AAc?$AAl?$AAa?$AAs?$AAs?$AA?5@ 0046c9b8     CommonPathfindingLib:GridVisualizer.obj
 0003:00004b90       ??_C@_1BBK@NOPGMEMI@?$AAs?$AAt?$AAd?$AA?3?$AA?3?$AA_?$AAT?$AAr?$AAe?$AAe?$AA_?$AAc?$AAo?$AAn?$AAs?$AAt?$AA_?$AAi?$AAt?$AAe?$AAr?$AAa?$AAt?$AAo?$AAr?$AA?$DM?$AAc?$AAl?$AAa?$AAs?$AAs?$AA?5@ 0046cb90     CommonPathfindingLib:SpriteManager.obj
 0003:00004ce8       ??_C@_1BBK@HOALCNAN@?$AAs?$AAt?$AAd?$AA?3?$AA?3?$AA_?$AAT?$AAr?$AAe?$AAe?$AA_?$AAc?$AAo?$AAn?$AAs?$AAt?$AA_?$AAi?$AAt?$AAe?$AAr?$AAa?$AAt?$AAo?$AAr?$AA?$DM?$AAc?$AAl?$AAa?$AAs?$AAs?$AA?5@ 0046cce8     CommonPathfindingLib:SpriteManager.obj
 0003:00004e40       ??_C@_1BBI@EPEKJCPI@?$AAs?$AAt?$AAd?$AA?3?$AA?3?$AA_?$AAT?$AAr?$AAe?$AAe?$AA_?$AAc?$AAo?$AAn?$AAs?$AAt?$AA_?$AAi?$AAt?$AAe?$AAr?$AAa?$AAt?$AAo?$AAr?$AA?$DM?$AAc?$AAl?$AAa?$AAs?$AAs?$AA?5@ 0046ce40     CommonPathfindingLib:SpriteManager.obj
 0003:00004f90       ??_C@_1BDG@FMPDPFCM@?$AAs?$AAt?$AAd?$AA?3?$AA?3?$AA_?$AAT?$AAr?$AAe?$AAe?$AA?$DM?$AAc?$AAl?$AAa?$AAs?$AAs?$AA?5?$AAs?$AAt?$AAd?$AA?3?$AA?3?$AA_?$AAT?$AAm?$AAa?$AAp?$AA_?$AAt?$AAr?$AAa?$AAi@ 0046cf90     CommonPathfindingLib:SpriteManager.obj
 0003:00005108       ??_C@_1BEE@CNJKDIFF@?$AAs?$AAt?$AAd?$AA?3?$AA?3?$AA_?$AAT?$AAr?$AAe?$AAe?$AA?$DM?$AAc?$AAl?$AAa?$AAs?$AAs?$AA?5?$AAs?$AAt?$AAd?$AA?3?$AA?3?$AA_?$AAT?$AAm?$AAa?$AAp?$AA_?$AAt?$AAr?$AAa?$AAi@ 0046d108     CommonPathfindingLib:SpriteManager.obj
 0003:00005290       ??_C@_1BBK@INDJJBMM@?$AAs?$AAt?$AAd?$AA?3?$AA?3?$AA_?$AAT?$AAr?$AAe?$AAe?$AA_?$AAc?$AAo?$AAn?$AAs?$AAt?$AA_?$AAi?$AAt?$AAe?$AAr?$AAa?$AAt?$AAo?$AAr?$AA?$DM?$AAc?$AAl?$AAa?$AAs?$AAs?$AA?5@ 0046d290     CommonPathfindingLib:SpriteManager.obj
 0003:000053e4       ??_C@_0CL@CGPALMN@GraphicsSystem?3?3failed?5to?5create@ 0046d3e4     CommonPathfindingLib:GraphicsSystem.obj
 0003:00005418       __real@3f800000            0046d418     CommonPathfindingLib:GraphicsSystem.obj
 0003:0000541c       __real@00000000            0046d41c     CommonPathfindingLib:Sprite.obj
 0003:00005420       __real@0000000000000000    0046d420     DeanLib:Timer.obj
 0003:00005430       __real@4024000000000000    0046d430     DeanLib:Timer.obj
 0003:00005440       __real@408f400000000000    0046d440     DeanLib:Timer.obj
 0003:00005450       ??_C@_1NC@LGJMFBHG@?$AAc?$AA?3?$AA?2?$AAp?$AAr?$AAo?$AAg?$AAr?$AAa?$AAm?$AA?5?$AAf?$AAi?$AAl?$AAe?$AAs?$AA?5?$AA?$CI?$AAx?$AA8?$AA6?$AA?$CJ?$AA?2?$AAm?$AAi?$AAc?$AAr?$AAo?$AAs?$AAo?$AAf?$AAt@ 0046d450     DeanLib:MemoryTracker.obj
 0003:00005550       ??_C@_1NC@ELHHIENF@?$AAc?$AA?3?$AA?2?$AAp?$AAr?$AAo?$AAg?$AAr?$AAa?$AAm?$AA?5?$AAf?$AAi?$AAl?$AAe?$AAs?$AA?5?$AA?$CI?$AAx?$AA8?$AA6?$AA?$CJ?$AA?2?$AAm?$AAi?$AAc?$AAr?$AAo?$AAs?$AAo?$AAf?$AAt@ 0046d550     DeanLib:MemoryTracker.obj
 0003:0000564c       ??_C@_0DI@GKEBKCHH@MemoryTracker?5being?5deleted?3?5fin@ 0046d64c     DeanLib:MemoryTracker.obj
 0003:00005690       ??_C@_0BN@IJFAENGF@Current?5memory?5allocations?3?6?$AA@ 0046d690     DeanLib:MemoryTracker.obj
 0003:000056b4       ??_C@_05FGNEEEOC@?5num?3?$AA@ 0046d6b4     DeanLib:MemoryTracker.obj
 0003:000056bc       ??_C@_06NLINOEAE@?5size?3?$AA@ 0046d6bc     DeanLib:MemoryTracker.obj
 0003:000056c4       ??_C@_08GEBKOLPE@address?3?$AA@ 0046d6c4     DeanLib:MemoryTracker.obj
 0003:000056d0       ??_C@_1MM@JPKBOFNK@?$AAc?$AA?3?$AA?2?$AAp?$AAr?$AAo?$AAg?$AAr?$AAa?$AAm?$AA?5?$AAf?$AAi?$AAl?$AAe?$AAs?$AA?5?$AA?$CI?$AAx?$AA8?$AA6?$AA?$CJ?$AA?2?$AAm?$AAi?$AAc?$AAr?$AAo?$AAs?$AAo?$AAf?$AAt@ 0046d6d0     DeanLib:MemoryTracker.obj
 0003:000057c8       ??_C@_1BDA@PAJOLEOP@?$AAs?$AAt?$AAd?$AA?3?$AA?3?$AA_?$AAT?$AAr?$AAe?$AAe?$AA_?$AAc?$AAo?$AAn?$AAs?$AAt?$AA_?$AAi?$AAt?$AAe?$AAr?$AAa?$AAt?$AAo?$AAr?$AA?$DM?$AAc?$AAl?$AAa?$AAs?$AAs?$AA?5@ 0046d7c8     DeanLib:MemoryTracker.obj
 0003:00005938       ??_C@_1BDA@FAGDFNCK@?$AAs?$AAt?$AAd?$AA?3?$AA?3?$AA_?$AAT?$AAr?$AAe?$AAe?$AA_?$AAc?$AAo?$AAn?$AAs?$AAt?$AA_?$AAi?$AAt?$AAe?$AAr?$AAa?$AAt?$AAo?$AAr?$AA?$DM?$AAc?$AAl?$AAa?$AAs?$AAs?$AA?5@ 0046d938     DeanLib:MemoryTracker.obj
 0003:00005aa8       ??_C@_1BCO@OEOBCANG@?$AAs?$AAt?$AAd?$AA?3?$AA?3?$AA_?$AAT?$AAr?$AAe?$AAe?$AA_?$AAc?$AAo?$AAn?$AAs?$AAt?$AA_?$AAi?$AAt?$AAe?$AAr?$AAa?$AAt?$AAo?$AAr?$AA?$DM?$AAc?$AAl?$AAa?$AAs?$AAs?$AA?5@ 0046daa8     DeanLib:MemoryTracker.obj
 0003:00005c18       ??_C@_1BGK@MALKCOLG@?$AAs?$AAt?$AAd?$AA?3?$AA?3?$AA_?$AAT?$AAr?$AAe?$AAe?$AA?$DM?$AAc?$AAl?$AAa?$AAs?$AAs?$AA?5?$AAs?$AAt?$AAd?$AA?3?$AA?3?$AA_?$AAT?$AAm?$AAa?$AAp?$AA_?$AAt?$AAr?$AAa?$AAi@ 0046dc18     DeanLib:MemoryTracker.obj
 0003:00005dd0       ??_C@_1BDA@KDFBOBOL@?$AAs?$AAt?$AAd?$AA?3?$AA?3?$AA_?$AAT?$AAr?$AAe?$AAe?$AA_?$AAc?$AAo?$AAn?$AAs?$AAt?$AA_?$AAi?$AAt?$AAe?$AAr?$AAa?$AAt?$AAo?$AAr?$AA?$DM?$AAc?$AAl?$AAa?$AAs?$AAs?$AA?5@ 0046ddd0     DeanLib:MemoryTracker.obj
 0003:00005f3c       __real@00800000            0046df3c     DeanLib:Vector2D.obj
 0003:00005f40       ??_C@_0CM@OKINAFCK@f?3?2dd?2vctools?2crt?2crtw32?2stdcpp?2@ 0046df40     msvcprtd:locale0_implib.obj
 0003:00005f78       ??_7type_info@@6B@         0046df78     MSVCRTD:std_type_info_static.obj
 0003:00006020       ??_7bad_alloc@std@@6B@     0046e020     MSVCRTD:throw_bad_alloc.obj
 0003:0000602c       ??_C@_0P@GHFPNOJB@bad?5allocation?$AA@ 0046e02c     MSVCRTD:throw_bad_alloc.obj
 0003:00006044       ??_7bad_array_new_length@std@@6B@ 0046e044     MSVCRTD:throw_bad_alloc.obj
 0003:00006050       ??_C@_0BF@KINCDENJ@bad?5array?5new?5length?$AA@ 0046e050     MSVCRTD:throw_bad_alloc.obj
 0003:00006128       ??_C@_0NN@NGPKDKPD@The?5value?5of?5ESP?5was?5not?5properl@ 0046e128     MSVCRTD:_error_.obj
 0003:00006238       ??_C@_0BBN@GPMLNJCF@A?5cast?5to?5a?5smaller?5data?5type?5ha@ 0046e238     MSVCRTD:_error_.obj
 0003:00006390       ??_C@_0BN@FFOINMNJ@Stack?5memory?5was?5corrupted?6?$AN?$AA@ 0046e390     MSVCRTD:_error_.obj
 0003:000063b4       ??_C@_0DG@HKJMLLLP@A?5local?5variable?5was?5used?5before@ 0046e3b4     MSVCRTD:_error_.obj
 0003:000063f4       ??_C@_0CM@NGINOKPC@Stack?5memory?5around?5_alloca?5was?5@ 0046e3f4     MSVCRTD:_error_.obj
 0003:00006428       ??_C@_0BO@GNIAFIKK@Unknown?5Runtime?5Check?5Error?6?$AN?$AA@ 0046e428     MSVCRTD:_error_.obj
 0003:00006450       ??_C@_1GM@OLMCBDMB@?$AAR?$AAu?$AAn?$AAt?$AAi?$AAm?$AAe?$AA?5?$AAC?$AAh?$AAe?$AAc?$AAk?$AA?5?$AAE?$AAr?$AAr?$AAo?$AAr?$AA?4?$AA?6?$AA?$AN?$AA?5?$AAU?$AAn?$AAa?$AAb?$AAl?$AAe?$AA?5?$AAt?$AAo@ 0046e450     MSVCRTD:_error_.obj
 0003:000064d8       ??_C@_1EA@NFKNIFJP@?$AAR?$AAu?$AAn?$AA?9?$AAT?$AAi?$AAm?$AAe?$AA?5?$AAC?$AAh?$AAe?$AAc?$AAk?$AA?5?$AAF?$AAa?$AAi?$AAl?$AAu?$AAr?$AAe?$AA?5?$AA?$CD?$AA?$CF?$AAd?$AA?5?$AA?9?$AA?5?$AA?$CF?$AAs?$AA?$AA@ 0046e4d8     MSVCRTD:_error_.obj
 0003:00006524       ??_C@_0BB@PFFGGCJP@Unknown?5Filename?$AA@ 0046e524     MSVCRTD:_error_.obj
 0003:00006538       ??_C@_0BE@GNBOBNCK@Unknown?5Module?5Name?$AA@ 0046e538     MSVCRTD:_error_.obj
 0003:00006550       ??_C@_0CA@IODNCDPG@Run?9Time?5Check?5Failure?5?$CD?$CFd?5?9?5?$CFs?$AA@ 0046e550     MSVCRTD:_error_.obj
 0003:00006578       ??_C@_0CG@IAFNJNEE@Stack?5corrupted?5near?5unknown?5var@ 0046e578     MSVCRTD:_error_.obj
 0003:000065a8       ??_C@_05MKKEDADM@?$CF?42X?5?$AA@ 0046e5a8     MSVCRTD:_error_.obj
 0003:000065b0       ??_C@_0EJ@LJKNEOLN@Stack?5area?5around?5_alloca?5memory@ 0046e5b0     MSVCRTD:_error_.obj
 0003:00006608       ??_C@_01EEMJAFIK@?6?$AA@   0046e608     MSVCRTD:_error_.obj
 0003:0000660c       ??_C@_02LLMPMKNF@?$DO?5?$AA@ 0046e60c     MSVCRTD:_error_.obj
 0003:00006610       ??_C@_08OMAHNMHJ@?6Data?3?5?$DM?$AA@ 0046e610     MSVCRTD:_error_.obj
 0003:0000661c       ??_C@_0CK@DKGBICFE@?6Allocation?5number?5within?5this?5f@ 0046e61c     MSVCRTD:_error_.obj
 0003:00006650       ??_C@_07DFDJCKFN@?6Size?3?5?$AA@ 0046e650     MSVCRTD:_error_.obj
 0003:0000665c       ??_C@_0N@MHFFIMFG@?6Address?3?50x?$AA@ 0046e65c     MSVCRTD:_error_.obj
 0003:00006670       ??_C@_0EI@CLEPFNGI@Stack?5area?5around?5_alloca?5memory@ 0046e670     MSVCRTD:_error_.obj
 0003:000066c8       ??_C@_0BK@ODNDAGKB@?$CFs?$CFs?$CFp?$CFs?$CFzd?$CFs?$CFd?$CFs?$CFs?$CFs?$CFs?$CFs?$AA@ 0046e6c8     MSVCRTD:_error_.obj
 0003:000066e8       ??_C@_0DE@OHJBPMBP@A?5variable?5is?5being?5used?5without@ 0046e6e8     MSVCRTD:_error_.obj
 0003:0000674c       ??_C@_0BJ@HEGAHDFO@Stack?5pointer?5corruption?$AA@ 0046e74c     MSVCRTD:_userapi_.obj
 0003:0000676c       ??_C@_0CK@FEGOIOPB@Cast?5to?5smaller?5type?5causing?5los@ 0046e76c     MSVCRTD:_userapi_.obj
 0003:000067a0       ??_C@_0BI@CIGMDCBH@Stack?5memory?5corruption?$AA@ 0046e7a0     MSVCRTD:_userapi_.obj
 0003:000067bc       ??_C@_0CK@CNLNOEPB@Local?5variable?5used?5before?5initi@ 0046e7bc     MSVCRTD:_userapi_.obj
 0003:000067f0       ??_C@_0BP@OGBCLIBO@Stack?5around?5_alloca?5corrupted?$AA@ 0046e7f0     MSVCRTD:_userapi_.obj
 0003:00006870       ??_C@_1EI@MLPKHBGE@?$AAa?$AAp?$AAi?$AA?9?$AAm?$AAs?$AA?9?$AAw?$AAi?$AAn?$AA?9?$AAc?$AAo?$AAr?$AAe?$AA?9?$AAr?$AAe?$AAg?$AAi?$AAs?$AAt?$AAr?$AAy?$AA?9?$AAl?$AA1?$AA?9?$AA1?$AA?9?$AA0?$AA?4@ 0046e870     MSVCRTD:_pdblkup_.obj
 0003:000068c8       ??_C@_1BK@JHLNAEJL@?$AAa?$AAd?$AAv?$AAa?$AAp?$AAi?$AA3?$AA2?$AA?4?$AAd?$AAl?$AAl?$AA?$AA@ 0046e8c8     MSVCRTD:_pdblkup_.obj
 0003:000068e8       ??_C@_0O@COHOBMLB@RegOpenKeyExW?$AA@ 0046e8e8     MSVCRTD:_pdblkup_.obj
 0003:000068f8       ??_C@_0BB@GLNAEDBD@RegQueryValueExW?$AA@ 0046e8f8     MSVCRTD:_pdblkup_.obj
 0003:0000690c       ??_C@_0M@HLOHPNFA@RegCloseKey?$AA@ 0046e90c     MSVCRTD:_pdblkup_.obj
 0003:00006920       ??_C@_1HE@EBEAGLFB@?$AAS?$AAO?$AAF?$AAT?$AAW?$AAA?$AAR?$AAE?$AA?2?$AAW?$AAo?$AAw?$AA6?$AA4?$AA3?$AA2?$AAN?$AAo?$AAd?$AAe?$AA?2?$AAM?$AAi?$AAc?$AAr?$AAo?$AAs?$AAo?$AAf?$AAt?$AA?2?$AAV@ 0046e920     MSVCRTD:_pdblkup_.obj
 0003:000069ac       ??_C@_1BG@EABPBLLF@?$AAP?$AAr?$AAo?$AAd?$AAu?$AAc?$AAt?$AAD?$AAi?$AAr?$AA?$AA@ 0046e9ac     MSVCRTD:_pdblkup_.obj
 0003:000069ec       ??_C@_1BC@JINFINNJ@?$AAM?$AAS?$AAP?$AAD?$AAB?$AA1?$AA4?$AA0?$AA?$AA@ 0046e9ec     MSVCRTD:_pdblkup_.obj
 0003:00006a04       ??_C@_0BB@KCIACLNC@PDBOpenValidate5?$AA@ 0046ea04     MSVCRTD:_pdblkup_.obj
 0003:00006a18       ??_C@_01KDCPPGHE@r?$AA@    0046ea18     MSVCRTD:_pdblkup_.obj
 0003:00006a58       __load_config_used         0046ea58     MSVCRTD:loadcfg.obj
 0003:00006cc8       ??_R4Editor@@6B@           0046ecc8     Editor.obj
 0003:00006ce0       ??_R3Editor@@8             0046ece0     Editor.obj
 0003:00006cf4       ??_R2Editor@@8             0046ecf4     Editor.obj
 0003:00006d04       ??_R1A@?0A@EA@Editor@@8    0046ed04     Editor.obj
 0003:00006d28       ??_R1A@?0A@EA@Game@@8      0046ed28     Editor.obj
 0003:00006d4c       ??_R3Game@@8               0046ed4c     Editor.obj
 0003:00006d60       ??_R2Game@@8               0046ed60     Editor.obj
 0003:00006d6c       ??_R13?0A@EA@Trackable@@8  0046ed6c     Editor.obj
 0003:00006d90       ??_R3Trackable@@8          0046ed90     Editor.obj
 0003:00006da4       ??_R2Trackable@@8          0046eda4     Editor.obj
 0003:00006dac       ??_R1A@?0A@EA@Trackable@@8 0046edac     Editor.obj
 0003:00006dd0       ??_R4exception@std@@6B@    0046edd0     main.obj
 0003:00006de8       ??_R3exception@std@@8      0046ede8     main.obj
 0003:00006dfc       ??_R2exception@std@@8      0046edfc     main.obj
 0003:00006e04       ??_R1A@?0A@EA@exception@std@@8 0046ee04     main.obj
 0003:00006e28       ??_R4?$basic_filebuf@DU?$char_traits@D@std@@@std@@6B@ 0046ee28     main.obj
 0003:00006e40       ??_R3?$basic_filebuf@DU?$char_traits@D@std@@@std@@8 0046ee40     main.obj
 0003:00006e54       ??_R2?$basic_filebuf@DU?$char_traits@D@std@@@std@@8 0046ee54     main.obj
 0003:00006e60       ??_R1A@?0A@EA@?$basic_filebuf@DU?$char_traits@D@std@@@std@@8 0046ee60     main.obj
 0003:00006e84       ??_R1A@?0A@EA@?$basic_streambuf@DU?$char_traits@D@std@@@std@@8 0046ee84     main.obj
 0003:00006ea8       ??_R3?$basic_streambuf@DU?$char_traits@D@std@@@std@@8 0046eea8     main.obj
 0003:00006ebc       ??_R2?$basic_streambuf@DU?$char_traits@D@std@@@std@@8 0046eebc     main.obj
 0003:00006ec4       ??_R4?$basic_ifstream@DU?$char_traits@D@std@@@std@@6B@ 0046eec4     main.obj
 0003:00006edc       ??_R3?$basic_ifstream@DU?$char_traits@D@std@@@std@@8 0046eedc     main.obj
 0003:00006ef0       ??_R2?$basic_ifstream@DU?$char_traits@D@std@@@std@@8 0046eef0     main.obj
 0003:00006f0c       ??_R1A@?0A@EA@?$basic_ifstream@DU?$char_traits@D@std@@@std@@8 0046ef0c     main.obj
 0003:00006f30       ??_R1A@?0A@EA@?$basic_istream@DU?$char_traits@D@std@@@std@@8 0046ef30     main.obj
 0003:00006f54       ??_R3?$basic_istream@DU?$char_traits@D@std@@@std@@8 0046ef54     main.obj
 0003:00006f68       ??_R2?$basic_istream@DU?$char_traits@D@std@@@std@@8 0046ef68     main.obj
 0003:00006f7c       ??_R1A@A@3FA@?$basic_ios@DU?$char_traits@D@std@@@std@@8 0046ef7c     main.obj
 0003:00006fa0       ??_R3?$basic_ios@DU?$char_traits@D@std@@@std@@8 0046efa0     main.obj
 0003:00006fb4       ??_R2?$basic_ios@DU?$char_traits@D@std@@@std@@8 0046efb4     main.obj
 0003:00006fc4       ??_R1A@?0A@EA@?$basic_ios@DU?$char_traits@D@std@@@std@@8 0046efc4     main.obj
 0003:00006fe8       ??_R1A@?0A@EA@ios_base@std@@8 0046efe8     main.obj
 0003:0000700c       ??_R3ios_base@std@@8       0046f00c     main.obj
 0003:00007020       ??_R2ios_base@std@@8       0046f020     main.obj
 0003:0000702c       ??_R17?0A@EA@?$_Iosb@H@std@@8 0046f02c     main.obj
 0003:00007050       ??_R3?$_Iosb@H@std@@8      0046f050     main.obj
 0003:00007064       ??_R2?$_Iosb@H@std@@8      0046f064     main.obj
 0003:0000706c       ??_R1A@?0A@EA@?$_Iosb@H@std@@8 0046f06c     main.obj
 0003:00007090       ??_R1A@A@3EA@ios_base@std@@8 0046f090     main.obj
 0003:000070b4       ??_R17A@3EA@?$_Iosb@H@std@@8 0046f0b4     main.obj
 0003:000070d8       ??_R4?$basic_ofstream@DU?$char_traits@D@std@@@std@@6B@ 0046f0d8     main.obj
 0003:000070f0       ??_R3?$basic_ofstream@DU?$char_traits@D@std@@@std@@8 0046f0f0     main.obj
 0003:00007104       ??_R2?$basic_ofstream@DU?$char_traits@D@std@@@std@@8 0046f104     main.obj
 0003:00007120       ??_R1A@?0A@EA@?$basic_ofstream@DU?$char_traits@D@std@@@std@@8 0046f120     main.obj
 0003:00007144       ??_R1A@?0A@EA@?$basic_ostream@DU?$char_traits@D@std@@@std@@8 0046f144     main.obj
 0003:00007168       ??_R3?$basic_ostream@DU?$char_traits@D@std@@@std@@8 0046f168     main.obj
 0003:0000717c       ??_R2?$basic_ostream@DU?$char_traits@D@std@@@std@@8 0046f17c     main.obj
 0003:00007190       ??_R4bad_cast@std@@6B@     0046f190     main.obj
 0003:000071a8       ??_R3bad_cast@std@@8       0046f1a8     main.obj
 0003:000071bc       ??_R2bad_cast@std@@8       0046f1bc     main.obj
 0003:000071c8       ??_R1A@?0A@EA@bad_cast@std@@8 0046f1c8     main.obj
 0003:000071ec       ??_R4Game@@6B@             0046f1ec     CommonPathfindingLib:Game.obj
 0003:00007204       ??_R4type_info@@6B@        0046f204     MSVCRTD:std_type_info_static.obj
 0003:0000721c       ??_R3type_info@@8          0046f21c     MSVCRTD:std_type_info_static.obj
 0003:00007230       ??_R2type_info@@8          0046f230     MSVCRTD:std_type_info_static.obj
 0003:00007238       ??_R1A@?0A@EA@type_info@@8 0046f238     MSVCRTD:std_type_info_static.obj
 0003:0000725c       ??_R4bad_alloc@std@@6B@    0046f25c     MSVCRTD:throw_bad_alloc.obj
 0003:00007274       ??_R3bad_alloc@std@@8      0046f274     MSVCRTD:throw_bad_alloc.obj
 0003:00007288       ??_R2bad_alloc@std@@8      0046f288     MSVCRTD:throw_bad_alloc.obj
 0003:00007294       ??_R1A@?0A@EA@bad_alloc@std@@8 0046f294     MSVCRTD:throw_bad_alloc.obj
 0003:000072b8       ??_R4bad_array_new_length@std@@6B@ 0046f2b8     MSVCRTD:throw_bad_alloc.obj
 0003:000072d0       ??_R3bad_array_new_length@std@@8 0046f2d0     MSVCRTD:throw_bad_alloc.obj
 0003:000072e4       ??_R2bad_array_new_length@std@@8 0046f2e4     MSVCRTD:throw_bad_alloc.obj
 0003:000072f4       ??_R1A@?0A@EA@bad_array_new_length@std@@8 0046f2f4     MSVCRTD:throw_bad_alloc.obj
 0003:000075ec       ___rtc_iaa                 0046f5ec     MSVCRTD:_initsect_.obj
 0003:00007834       ___rtc_izz                 0046f834     MSVCRTD:_initsect_.obj
 0003:00007938       ___rtc_taa                 0046f938     MSVCRTD:_initsect_.obj
 0003:00007b80       ___rtc_tzz                 0046fb80     MSVCRTD:_initsect_.obj
 0003:000082b8       __CT??_R0?AVexception@std@@@8??0exception@std@@QAE@ABV01@@Z12 004702b8     main.obj
 0003:000082d8       __TI2?AVbad_cast@std@@     004702d8     main.obj
 0003:000082ec       __CTA2?AVbad_cast@std@@    004702ec     main.obj
 0003:000082fc       __CT??_R0?AVbad_cast@std@@@8??0bad_cast@std@@QAE@ABV01@@Z12 004702fc     main.obj
 0003:0000aa20       __TI2?AVbad_alloc@std@@    00472a20     MSVCRTD:throw_bad_alloc.obj
 0003:0000aa34       __CTA2?AVbad_alloc@std@@   00472a34     MSVCRTD:throw_bad_alloc.obj
 0003:0000aa44       __CT??_R0?AVbad_alloc@std@@@8??0bad_alloc@std@@QAE@ABV01@@Z12 00472a44     MSVCRTD:throw_bad_alloc.obj
 0003:0000aa64       __TI3?AVbad_array_new_length@std@@ 00472a64     MSVCRTD:throw_bad_alloc.obj
 0003:0000aa78       __CTA3?AVbad_array_new_length@std@@ 00472a78     MSVCRTD:throw_bad_alloc.obj
 0003:0000aa8c       __CT??_R0?AVbad_array_new_length@std@@@8??0bad_array_new_length@std@@QAE@ABV01@@Z12 00472a8c     MSVCRTD:throw_bad_alloc.obj
 0004:00000000       ?__LINE__Var@?0??_Allocate@std@@YAPAXII_N@Z@4JA 00474000     Editor.obj
 0004:00000004       ?__LINE__Var@?0??_Deallocate@std@@YAXPAXII@Z@4JA 00474004     Editor.obj
 0004:00000008       ?__LINE__Var@?0??lerp@@YAMHHH@Z@4JA 00474008     CommonPathfindingLib:Game.obj
 0004:00000034       ___security_cookie         00474034     MSVCRTD:gs_cookie.obj
 0004:00000038       ___security_cookie_complement 00474038     MSVCRTD:gs_cookie.obj
 0004:00000040       __fltused                  00474040     MSVCRTD:fltused.obj
 0004:00000044       ___scrt_native_dllmain_reason 00474044     MSVCRTD:utility.obj
 0004:00000050       ?_RTC_ErrorLevels@@3PAHA   00474050     MSVCRTD:_error_.obj
 0004:00000068       ___isa_enabled             00474068     MSVCRTD:_cpu_disp_.obj
 0004:0000006c       ___scrt_default_matherr    0047406c     MSVCRTD:matherr.obj
 0004:00000070       ___scrt_ucrt_dll_is_in_use 00474070     MSVCRTD:ucrt_stubs.obj
 0004:00000180       ??_R0?AVEditor@@@8         00474180     Editor.obj
 0004:0000019c       ??_R0?AVGame@@@8           0047419c     Editor.obj
 0004:000001b4       ??_R0?AVTrackable@@@8      004741b4     Editor.obj
 0004:000001d0       ??_R0?AVexception@std@@@8  004741d0     main.obj
 0004:000001f4       ??_R0?AVbad_cast@std@@@8   004741f4     main.obj
 0004:00000214       ??_R0?AV?$basic_filebuf@DU?$char_traits@D@std@@@std@@@8 00474214     main.obj
 0004:0000025c       ??_R0?AV?$basic_streambuf@DU?$char_traits@D@std@@@std@@@8 0047425c     main.obj
 0004:000002a4       ??_R0?AV?$basic_ifstream@DU?$char_traits@D@std@@@std@@@8 004742a4     main.obj
 0004:000002ec       ??_R0?AV?$basic_istream@DU?$char_traits@D@std@@@std@@@8 004742ec     main.obj
 0004:00000334       ??_R0?AV?$basic_ios@DU?$char_traits@D@std@@@std@@@8 00474334     main.obj
 0004:00000374       ??_R0?AVios_base@std@@@8   00474374     main.obj
 0004:00000394       ??_R0?AV?$_Iosb@H@std@@@8  00474394     main.obj
 0004:000003b8       ??_R0?AV?$basic_ofstream@DU?$char_traits@D@std@@@std@@@8 004743b8     main.obj
 0004:00000400       ??_R0?AV?$basic_ostream@DU?$char_traits@D@std@@@std@@@8 00474400     main.obj
 0004:00000448       ??_R0?AVtype_info@@@8      00474448     MSVCRTD:std_type_info_static.obj
 0004:00000464       ??_R0?AVbad_alloc@std@@@8  00474464     MSVCRTD:throw_bad_alloc.obj
 0004:00000488       ??_R0?AVbad_array_new_length@std@@@8 00474488     MSVCRTD:throw_bad_alloc.obj
 0004:00000608       ?_Stinit@?1??_Init@?$basic_filebuf@DU?$char_traits@D@std@@@std@@IAEXPAU_iobuf@@W4_Initfl@23@@Z@4U_Mbstatet@@A 00474608     main.obj
 0004:00000614       ?_Psave@?$_Facetptr@V?$codecvt@DDU_Mbstatet@@@std@@@std@@2PBVfacet@locale@2@B 00474614     main.obj
 0004:00000618       ?gpGame@@3PAVGame@@A       00474618     CommonPathfindingLib:Game.obj
 0004:00000630       ?_OptionsStorage@?1??__local_stdio_printf_options@@9@4_KA 00474630     CommonPathfindingLib:Game.obj
 0004:00000640       ?msNextID@GraphicsBufferManager@@0HA 00474640     CommonPathfindingLib:GraphicsBufferManager.obj
 0004:00000664       ?msAllocationNum@MemoryTracker@@0HA 00474664     DeanLib:MemoryTracker.obj
 0004:00000668       ?gMemoryTracker@@3VMemoryTracker@@A 00474668     DeanLib:MemoryTracker.obj
 0004:00000678       ?gZeroVector2D@@3VVector2D@@A 00474678     DeanLib:Vector2D.obj
 0004:000006a8       ___scrt_current_native_startup_state 004746a8     MSVCRTD:utility.obj
 0004:000006ac       ___scrt_native_startup_lock 004746ac     MSVCRTD:utility.obj
 0004:00000a80       ___isa_available           00474a80     MSVCRTD:_cpu_disp_.obj
 0004:00000a84       ___favor                   00474a84     MSVCRTD:_cpu_disp_.obj
 0004:00000a8c       ___scrt_debugger_hook_flag 00474a8c     MSVCRTD:utility_desktop.obj
 0004:00000a90       ?__type_info_root_node@@3U__type_info_node@@A 00474a90     MSVCRTD:tncleanup.obj
 0004:00000aa0       ?_OptionsStorage@?1??__local_stdio_scanf_options@@9@4_KA 00474aa0     MSVCRTD:default_local_stdio_options.obj
 0004:00000ab4       ___dyn_tls_dtor_callback   00474ab4     <common>
 0004:00000ac0       ___dyn_tls_init_callback   00474ac0     <common>
 0005:00000000       __imp__GetProcAddress@8    00475000     kernel32:KERNEL32.dll
 0005:00000004       __imp__FreeLibrary@4       00475004     kernel32:KERNEL32.dll
 0005:00000008       __imp__VirtualQuery@12     00475008     kernel32:KERNEL32.dll
 0005:0000000c       __imp__GetProcessHeap@0    0047500c     kernel32:KERNEL32.dll
 0005:00000010       __imp__HeapFree@12         00475010     kernel32:KERNEL32.dll
 0005:00000014       __imp__HeapAlloc@12        00475014     kernel32:KERNEL32.dll
 0005:00000018       __imp__GetLastError@0      00475018     kernel32:KERNEL32.dll
 0005:0000001c       __imp__InitializeSListHead@4 0047501c     kernel32:KERNEL32.dll
 0005:00000020       __imp__GetSystemTimeAsFileTime@4 00475020     kernel32:KERNEL32.dll
 0005:00000024       __imp__GetCurrentThreadId@0 00475024     kernel32:KERNEL32.dll
 0005:00000028       __imp__GetCurrentProcessId@0 00475028     kernel32:KERNEL32.dll
 0005:0000002c       __imp__GetModuleHandleW@4  0047502c     kernel32:KERNEL32.dll
 0005:00000030       __imp__GetStartupInfoW@4   00475030     kernel32:KERNEL32.dll
 0005:00000034       __imp__IsProcessorFeaturePresent@4 00475034     kernel32:KERNEL32.dll
 0005:00000038       __imp__TerminateProcess@8  00475038     kernel32:KERNEL32.dll
 0005:0000003c       __imp__GetCurrentProcess@0 0047503c     kernel32:KERNEL32.dll
 0005:00000040       __imp__SetUnhandledExceptionFilter@4 00475040     kernel32:KERNEL32.dll
 0005:00000044       __imp__UnhandledExceptionFilter@4 00475044     kernel32:KERNEL32.dll
 0005:00000048       __imp__WideCharToMultiByte@32 00475048     kernel32:KERNEL32.dll
 0005:0000004c       __imp__MultiByteToWideChar@24 0047504c     kernel32:KERNEL32.dll
 0005:00000050       __imp__RaiseException@16   00475050     kernel32:KERNEL32.dll
 0005:00000054       __imp__IsDebuggerPresent@0 00475054     kernel32:KERNEL32.dll
 0005:00000058       __imp__QueryPerformanceFrequency@4 00475058     kernel32:KERNEL32.dll
 0005:0000005c       __imp__QueryPerformanceCounter@4 0047505c     kernel32:KERNEL32.dll
 0005:00000060       __imp__Sleep@4             00475060     kernel32:KERNEL32.dll
 0005:00000064       \177KERNEL32_NULL_THUNK_DATA 00475064     kernel32:KERNEL32.dll
 0005:000000a4       __imp_??6?$basic_ostream@DU?$char_traits@D@std@@@std@@QAEAAV01@P6AAAV01@AAV01@@Z@Z 004750a4     msvcprtd:MSVCP140D.dll
 0005:000000a8       __imp_?widen@?$basic_ios@DU?$char_traits@D@std@@@std@@QBEDD@Z 004750a8     msvcprtd:MSVCP140D.dll
 0005:000000ac       __imp_??5?$basic_istream@DU?$char_traits@D@std@@@std@@QAEAAV01@AAH@Z 004750ac     msvcprtd:MSVCP140D.dll
 0005:000000b0       __imp_??6?$basic_ostream@DU?$char_traits@D@std@@@std@@QAEAAV01@H@Z 004750b0     msvcprtd:MSVCP140D.dll
 0005:000000b4       __imp_?cout@std@@3V?$basic_ostream@DU?$char_traits@D@std@@@1@A 004750b4     msvcprtd:MSVCP140D.dll
 0005:000000b8       __imp_?id@?$codecvt@DDU_Mbstatet@@@std@@2V0locale@2@A 004750b8     msvcprtd:MSVCP140D.dll
 0005:000000bc       __imp_?_BADOFF@std@@3_JB   004750bc     msvcprtd:MSVCP140D.dll
 0005:000000c0       __imp_?xsputn@?$basic_streambuf@DU?$char_traits@D@std@@@std@@MAE_JPBD_J@Z 004750c0     msvcprtd:MSVCP140D.dll
 0005:000000c4       __imp_?xsgetn@?$basic_streambuf@DU?$char_traits@D@std@@@std@@MAE_JPAD_J@Z 004750c4     msvcprtd:MSVCP140D.dll
 0005:000000c8       __imp_?showmanyc@?$basic_streambuf@DU?$char_traits@D@std@@@std@@MAE_JXZ 004750c8     msvcprtd:MSVCP140D.dll
 0005:000000cc       __imp_?_Fiopen@std@@YAPAU_iobuf@@PBDHH@Z 004750cc     msvcprtd:MSVCP140D.dll
 0005:000000d0       __imp_??1?$basic_istream@DU?$char_traits@D@std@@@std@@UAE@XZ 004750d0     msvcprtd:MSVCP140D.dll
 0005:000000d4       __imp_??0?$basic_istream@DU?$char_traits@D@std@@@std@@QAE@PAV?$basic_streambuf@DU?$char_traits@D@std@@@1@_N@Z 004750d4     msvcprtd:MSVCP140D.dll
 0005:000000d8       __imp_?flush@?$basic_ostream@DU?$char_traits@D@std@@@std@@QAEAAV12@XZ 004750d8     msvcprtd:MSVCP140D.dll
 0005:000000dc       __imp_?_Osfx@?$basic_ostream@DU?$char_traits@D@std@@@std@@QAEXXZ 004750dc     msvcprtd:MSVCP140D.dll
 0005:000000e0       __imp_??6?$basic_ostream@DU?$char_traits@D@std@@@std@@QAEAAV01@PBX@Z 004750e0     msvcprtd:MSVCP140D.dll
 0005:000000e4       __imp_?put@?$basic_ostream@DU?$char_traits@D@std@@@std@@QAEAAV12@D@Z 004750e4     msvcprtd:MSVCP140D.dll
 0005:000000e8       __imp_??0?$basic_ostream@DU?$char_traits@D@std@@@std@@QAE@PAV?$basic_streambuf@DU?$char_traits@D@std@@@1@_N@Z 004750e8     msvcprtd:MSVCP140D.dll
 0005:000000ec       __imp_??6?$basic_ostream@DU?$char_traits@D@std@@@std@@QAEAAV01@I@Z 004750ec     msvcprtd:MSVCP140D.dll
 0005:000000f0       __imp_??0_Lockit@std@@QAE@H@Z 004750f0     msvcprtd:MSVCP140D.dll
 0005:000000f4       __imp_??1_Lockit@std@@QAE@XZ 004750f4     msvcprtd:MSVCP140D.dll
 0005:000000f8       __imp_?_Xbad_alloc@std@@YAXXZ 004750f8     msvcprtd:MSVCP140D.dll
 0005:000000fc       __imp_?_Xlength_error@std@@YAXPBD@Z 004750fc     msvcprtd:MSVCP140D.dll
 0005:00000100       __imp_?uncaught_exception@std@@YA_NXZ 00475100     msvcprtd:MSVCP140D.dll
 0005:00000104       __imp_?_Debug_message@std@@YAXPB_W0I@Z 00475104     msvcprtd:MSVCP140D.dll
 0005:00000108       __imp_?_Xout_of_range@std@@YAXPBD@Z 00475108     msvcprtd:MSVCP140D.dll
 0005:0000010c       __imp_??Bid@locale@std@@QAEIXZ 0047510c     msvcprtd:MSVCP140D.dll
 0005:00000110       __imp_?_Getgloballocale@locale@std@@CAPAV_Locimp@12@XZ 00475110     msvcprtd:MSVCP140D.dll
 0005:00000114       __imp_?always_noconv@codecvt_base@std@@QBE_NXZ 00475114     msvcprtd:MSVCP140D.dll
 0005:00000118       __imp_?in@?$codecvt@DDU_Mbstatet@@@std@@QBEHAAU_Mbstatet@@PBD1AAPBDPAD3AAPAD@Z 00475118     msvcprtd:MSVCP140D.dll
 0005:0000011c       __imp_?out@?$codecvt@DDU_Mbstatet@@@std@@QBEHAAU_Mbstatet@@PBD1AAPBDPAD3AAPAD@Z 0047511c     msvcprtd:MSVCP140D.dll
 0005:00000120       __imp_?unshift@?$codecvt@DDU_Mbstatet@@@std@@QBEHAAU_Mbstatet@@PAD1AAPAD@Z 00475120     msvcprtd:MSVCP140D.dll
 0005:00000124       __imp_?_Getcat@?$codecvt@DDU_Mbstatet@@@std@@SAIPAPBVfacet@locale@2@PBV42@@Z 00475124     msvcprtd:MSVCP140D.dll
 0005:00000128       __imp_?good@ios_base@std@@QBE_NXZ 00475128     msvcprtd:MSVCP140D.dll
 0005:0000012c       __imp_?flags@ios_base@std@@QBEHXZ 0047512c     msvcprtd:MSVCP140D.dll
 0005:00000130       __imp_?width@ios_base@std@@QBE_JXZ 00475130     msvcprtd:MSVCP140D.dll
 0005:00000134       __imp_?width@ios_base@std@@QAE_J_J@Z 00475134     msvcprtd:MSVCP140D.dll
 0005:00000138       __imp_??0?$basic_streambuf@DU?$char_traits@D@std@@@std@@IAE@XZ 00475138     msvcprtd:MSVCP140D.dll
 0005:0000013c       __imp_??1?$basic_streambuf@DU?$char_traits@D@std@@@std@@UAE@XZ 0047513c     msvcprtd:MSVCP140D.dll
 0005:00000140       __imp_?getloc@?$basic_streambuf@DU?$char_traits@D@std@@@std@@QBE?AVlocale@2@XZ 00475140     msvcprtd:MSVCP140D.dll
 0005:00000144       __imp_?sputc@?$basic_streambuf@DU?$char_traits@D@std@@@std@@QAEHD@Z 00475144     msvcprtd:MSVCP140D.dll
 0005:00000148       __imp_?sputn@?$basic_streambuf@DU?$char_traits@D@std@@@std@@QAE_JPBD_J@Z 00475148     msvcprtd:MSVCP140D.dll
 0005:0000014c       __imp_?eback@?$basic_streambuf@DU?$char_traits@D@std@@@std@@IBEPADXZ 0047514c     msvcprtd:MSVCP140D.dll
 0005:00000150       __imp_?gptr@?$basic_streambuf@DU?$char_traits@D@std@@@std@@IBEPADXZ 00475150     msvcprtd:MSVCP140D.dll
 0005:00000154       __imp_?pptr@?$basic_streambuf@DU?$char_traits@D@std@@@std@@IBEPADXZ 00475154     msvcprtd:MSVCP140D.dll
 0005:00000158       __imp_?egptr@?$basic_streambuf@DU?$char_traits@D@std@@@std@@IBEPADXZ 00475158     msvcprtd:MSVCP140D.dll
 0005:0000015c       __imp_?setg@?$basic_streambuf@DU?$char_traits@D@std@@@std@@IAEXPAD00@Z 0047515c     msvcprtd:MSVCP140D.dll
 0005:00000160       __imp_?epptr@?$basic_streambuf@DU?$char_traits@D@std@@@std@@IBEPADXZ 00475160     msvcprtd:MSVCP140D.dll
 0005:00000164       __imp_?_Gndec@?$basic_streambuf@DU?$char_traits@D@std@@@std@@IAEPADXZ 00475164     msvcprtd:MSVCP140D.dll
 0005:00000168       __imp_?_Gninc@?$basic_streambuf@DU?$char_traits@D@std@@@std@@IAEPADXZ 00475168     msvcprtd:MSVCP140D.dll
 0005:0000016c       __imp_?_Pninc@?$basic_streambuf@DU?$char_traits@D@std@@@std@@IAEPADXZ 0047516c     msvcprtd:MSVCP140D.dll
 0005:00000170       __imp_?_Init@?$basic_streambuf@DU?$char_traits@D@std@@@std@@IAEXXZ 00475170     msvcprtd:MSVCP140D.dll
 0005:00000174       __imp_?_Init@?$basic_streambuf@DU?$char_traits@D@std@@@std@@IAEXPAPAD0PAH001@Z 00475174     msvcprtd:MSVCP140D.dll
 0005:00000178       __imp_??1?$basic_ios@DU?$char_traits@D@std@@@std@@UAE@XZ 00475178     msvcprtd:MSVCP140D.dll
 0005:0000017c       __imp_?setstate@?$basic_ios@DU?$char_traits@D@std@@@std@@QAEXH_N@Z 0047517c     msvcprtd:MSVCP140D.dll
 0005:00000180       __imp_?tie@?$basic_ios@DU?$char_traits@D@std@@@std@@QBEPAV?$basic_ostream@DU?$char_traits@D@std@@@2@XZ 00475180     msvcprtd:MSVCP140D.dll
 0005:00000184       __imp_?rdbuf@?$basic_ios@DU?$char_traits@D@std@@@std@@QBEPAV?$basic_streambuf@DU?$char_traits@D@std@@@2@XZ 00475184     msvcprtd:MSVCP140D.dll
 0005:00000188       __imp_?fill@?$basic_ios@DU?$char_traits@D@std@@@std@@QBEDXZ 00475188     msvcprtd:MSVCP140D.dll
 0005:0000018c       __imp_??0?$basic_ios@DU?$char_traits@D@std@@@std@@IAE@XZ 0047518c     msvcprtd:MSVCP140D.dll
 0005:00000190       __imp_??1?$basic_ostream@DU?$char_traits@D@std@@@std@@UAE@XZ 00475190     msvcprtd:MSVCP140D.dll
 0005:00000194       \177MSVCP140D_NULL_THUNK_DATA 00475194     msvcprtd:MSVCP140D.dll
 0005:000001f0       __imp__memcmp              004751f0     vcruntimed:VCRUNTIME140D.dll
 0005:000001f4       __imp____vcrt_LoadLibraryExW 004751f4     vcruntimed:VCRUNTIME140D.dll
 0005:000001f8       __imp____vcrt_GetModuleHandleW 004751f8     vcruntimed:VCRUNTIME140D.dll
 0005:000001fc       __imp____vcrt_GetModuleFileNameW 004751fc     vcruntimed:VCRUNTIME140D.dll
 0005:00000200       __imp____std_type_info_destroy_list 00475200     vcruntimed:VCRUNTIME140D.dll
 0005:00000204       __imp___except_handler4_common 00475204     vcruntimed:VCRUNTIME140D.dll
 0005:00000208       __imp____RTDynamicCast     00475208     vcruntimed:VCRUNTIME140D.dll
 0005:0000020c       __imp___CxxThrowException@8 0047520c     vcruntimed:VCRUNTIME140D.dll
 0005:00000210       __imp____std_exception_destroy 00475210     vcruntimed:VCRUNTIME140D.dll
 0005:00000214       __imp____std_exception_copy 00475214     vcruntimed:VCRUNTIME140D.dll
 0005:00000218       __imp__memset              00475218     vcruntimed:VCRUNTIME140D.dll
 0005:0000021c       __imp____CxxFrameHandler3  0047521c     vcruntimed:VCRUNTIME140D.dll
 0005:00000220       __imp__memmove             00475220     vcruntimed:VCRUNTIME140D.dll
 0005:00000224       __imp__memcpy              00475224     vcruntimed:VCRUNTIME140D.dll
 0005:00000228       \177VCRUNTIME140D_NULL_THUNK_DATA 00475228     vcruntimed:VCRUNTIME140D.dll
 0005:0000025c       __imp__al_draw_filled_rectangle 0047525c     allegro-5.0.10-monolith-md:allegro-5.0.10-monolith-md.dll
 0005:00000260       __imp__al_shutdown_primitives_addon 00475260     allegro-5.0.10-monolith-md:allegro-5.0.10-monolith-md.dll
 0005:00000264       __imp__al_create_display   00475264     allegro-5.0.10-monolith-md:allegro-5.0.10-monolith-md.dll
 0005:00000268       __imp__al_shutdown_ttf_addon 00475268     allegro-5.0.10-monolith-md:allegro-5.0.10-monolith-md.dll
 0005:0000026c       __imp__al_destroy_display  0047526c     allegro-5.0.10-monolith-md:allegro-5.0.10-monolith-md.dll
 0005:00000270       __imp__al_set_target_bitmap 00475270     allegro-5.0.10-monolith-md:allegro-5.0.10-monolith-md.dll
 0005:00000274       __imp__al_get_backbuffer   00475274     allegro-5.0.10-monolith-md:allegro-5.0.10-monolith-md.dll
 0005:00000278       __imp__al_get_target_bitmap 00475278     allegro-5.0.10-monolith-md:allegro-5.0.10-monolith-md.dll
 0005:0000027c       __imp__al_flip_display     0047527c     allegro-5.0.10-monolith-md:allegro-5.0.10-monolith-md.dll
 0005:00000280       __imp__al_create_sub_bitmap 00475280     allegro-5.0.10-monolith-md:allegro-5.0.10-monolith-md.dll
 0005:00000284       __imp__al_draw_bitmap      00475284     allegro-5.0.10-monolith-md:allegro-5.0.10-monolith-md.dll
 0005:00000288       __imp__al_draw_rotated_bitmap 00475288     allegro-5.0.10-monolith-md:allegro-5.0.10-monolith-md.dll
 0005:0000028c       __imp__al_get_bitmap_width 0047528c     allegro-5.0.10-monolith-md:allegro-5.0.10-monolith-md.dll
 0005:00000290       __imp__al_create_bitmap    00475290     allegro-5.0.10-monolith-md:allegro-5.0.10-monolith-md.dll
 0005:00000294       __imp__al_destroy_bitmap   00475294     allegro-5.0.10-monolith-md:allegro-5.0.10-monolith-md.dll
 0005:00000298       __imp__al_clone_bitmap     00475298     allegro-5.0.10-monolith-md:allegro-5.0.10-monolith-md.dll
 0005:0000029c       __imp__al_load_bitmap      0047529c     allegro-5.0.10-monolith-md:allegro-5.0.10-monolith-md.dll
 0005:000002a0       __imp__al_clear_to_color   004752a0     allegro-5.0.10-monolith-md:allegro-5.0.10-monolith-md.dll
 0005:000002a4       __imp__al_init_primitives_addon 004752a4     allegro-5.0.10-monolith-md:allegro-5.0.10-monolith-md.dll
 0005:000002a8       __imp__al_get_bitmap_height 004752a8     allegro-5.0.10-monolith-md:allegro-5.0.10-monolith-md.dll
 0005:000002ac       __imp__al_get_mouse_state  004752ac     allegro-5.0.10-monolith-md:allegro-5.0.10-monolith-md.dll
 0005:000002b0       __imp__al_mouse_button_down 004752b0     allegro-5.0.10-monolith-md:allegro-5.0.10-monolith-md.dll
 0005:000002b4       __imp__al_get_keyboard_state 004752b4     allegro-5.0.10-monolith-md:allegro-5.0.10-monolith-md.dll
 0005:000002b8       __imp__al_key_down         004752b8     allegro-5.0.10-monolith-md:allegro-5.0.10-monolith-md.dll
 0005:000002bc       __imp__al_install_keyboard 004752bc     allegro-5.0.10-monolith-md:allegro-5.0.10-monolith-md.dll
 0005:000002c0       __imp__al_uninstall_keyboard 004752c0     allegro-5.0.10-monolith-md:allegro-5.0.10-monolith-md.dll
 0005:000002c4       __imp__al_install_mouse    004752c4     allegro-5.0.10-monolith-md:allegro-5.0.10-monolith-md.dll
 0005:000002c8       __imp__al_uninstall_mouse  004752c8     allegro-5.0.10-monolith-md:allegro-5.0.10-monolith-md.dll
 0005:000002cc       __imp__al_install_system   004752cc     allegro-5.0.10-monolith-md:allegro-5.0.10-monolith-md.dll
 0005:000002d0       __imp__al_install_audio    004752d0     allegro-5.0.10-monolith-md:allegro-5.0.10-monolith-md.dll
 0005:000002d4       __imp__al_uninstall_audio  004752d4     allegro-5.0.10-monolith-md:allegro-5.0.10-monolith-md.dll
 0005:000002d8       __imp__al_reserve_samples  004752d8     allegro-5.0.10-monolith-md:allegro-5.0.10-monolith-md.dll
 0005:000002dc       __imp__al_init_acodec_addon 004752dc     allegro-5.0.10-monolith-md:allegro-5.0.10-monolith-md.dll
 0005:000002e0       __imp__al_init_image_addon 004752e0     allegro-5.0.10-monolith-md:allegro-5.0.10-monolith-md.dll
 0005:000002e4       __imp__al_shutdown_image_addon 004752e4     allegro-5.0.10-monolith-md:allegro-5.0.10-monolith-md.dll
 0005:000002e8       __imp__al_destroy_font     004752e8     allegro-5.0.10-monolith-md:allegro-5.0.10-monolith-md.dll
 0005:000002ec       __imp__al_init_font_addon  004752ec     allegro-5.0.10-monolith-md:allegro-5.0.10-monolith-md.dll
 0005:000002f0       __imp__al_shutdown_font_addon 004752f0     allegro-5.0.10-monolith-md:allegro-5.0.10-monolith-md.dll
 0005:000002f4       __imp__al_load_ttf_font    004752f4     allegro-5.0.10-monolith-md:allegro-5.0.10-monolith-md.dll
 0005:000002f8       __imp__al_init_ttf_addon   004752f8     allegro-5.0.10-monolith-md:allegro-5.0.10-monolith-md.dll
 0005:000002fc       \177allegro-5.0.10-monolith-md_NULL_THUNK_DATA 004752fc     allegro-5.0.10-monolith-md:allegro-5.0.10-monolith-md.dll
 0005:00000348       __imp___time64             00475348     ucrtd:ucrtbased.dll
 0005:0000034c       __imp___wassert            0047534c     ucrtd:ucrtbased.dll
 0005:00000350       __imp____acrt_iob_func     00475350     ucrtd:ucrtbased.dll
 0005:00000354       __imp____stdio_common_vfprintf 00475354     ucrtd:ucrtbased.dll
 0005:00000358       __imp__free                00475358     ucrtd:ucrtbased.dll
 0005:0000035c       __imp__malloc              0047535c     ucrtd:ucrtbased.dll
 0005:00000360       __imp__rand                00475360     ucrtd:ucrtbased.dll
 0005:00000364       __imp___free_dbg           00475364     ucrtd:ucrtbased.dll
 0005:00000368       __imp___malloc_dbg         00475368     ucrtd:ucrtbased.dll
 0005:0000036c       __imp___callnewh           0047536c     ucrtd:ucrtbased.dll
 0005:00000370       __imp___CrtDbgReport       00475370     ucrtd:ucrtbased.dll
 0005:00000374       __imp___seh_filter_dll     00475374     ucrtd:ucrtbased.dll
 0005:00000378       __imp___configure_narrow_argv 00475378     ucrtd:ucrtbased.dll
 0005:0000037c       __imp___initialize_narrow_environment 0047537c     ucrtd:ucrtbased.dll
 0005:00000380       __imp___initialize_onexit_table 00475380     ucrtd:ucrtbased.dll
 0005:00000384       __imp___register_onexit_function 00475384     ucrtd:ucrtbased.dll
 0005:00000388       __imp___execute_onexit_table 00475388     ucrtd:ucrtbased.dll
 0005:0000038c       __imp___crt_atexit         0047538c     ucrtd:ucrtbased.dll
 0005:00000390       __imp___crt_at_quick_exit  00475390     ucrtd:ucrtbased.dll
 0005:00000394       __imp___cexit              00475394     ucrtd:ucrtbased.dll
 0005:00000398       __imp___seh_filter_exe     00475398     ucrtd:ucrtbased.dll
 0005:0000039c       __imp___set_app_type       0047539c     ucrtd:ucrtbased.dll
 0005:000003a0       __imp____setusermatherr    004753a0     ucrtd:ucrtbased.dll
 0005:000003a4       __imp___get_initial_narrow_environment 004753a4     ucrtd:ucrtbased.dll
 0005:000003a8       __imp___initterm           004753a8     ucrtd:ucrtbased.dll
 0005:000003ac       __imp___initterm_e         004753ac     ucrtd:ucrtbased.dll
 0005:000003b0       __imp__exit                004753b0     ucrtd:ucrtbased.dll
 0005:000003b4       __imp___exit               004753b4     ucrtd:ucrtbased.dll
 0005:000003b8       __imp___set_fmode          004753b8     ucrtd:ucrtbased.dll
 0005:000003bc       __imp____p___argc          004753bc     ucrtd:ucrtbased.dll
 0005:000003c0       __imp____p___argv          004753c0     ucrtd:ucrtbased.dll
 0005:000003c4       __imp___c_exit             004753c4     ucrtd:ucrtbased.dll
 0005:000003c8       __imp___register_thread_local_exe_atexit_callback 004753c8     ucrtd:ucrtbased.dll
 0005:000003cc       __imp___configthreadlocale 004753cc     ucrtd:ucrtbased.dll
 0005:000003d0       __imp___set_new_mode       004753d0     ucrtd:ucrtbased.dll
 0005:000003d4       __imp____p__commode        004753d4     ucrtd:ucrtbased.dll
 0005:000003d8       __imp___except1            004753d8     ucrtd:ucrtbased.dll
 0005:000003dc       __imp__strcpy_s            004753dc     ucrtd:ucrtbased.dll
 0005:000003e0       __imp__strcat_s            004753e0     ucrtd:ucrtbased.dll
 0005:000003e4       __imp____stdio_common_vsprintf_s 004753e4     ucrtd:ucrtbased.dll
 0005:000003e8       __imp__terminate           004753e8     ucrtd:ucrtbased.dll
 0005:000003ec       __imp___controlfp_s        004753ec     ucrtd:ucrtbased.dll
 0005:000003f0       __imp___wmakepath_s        004753f0     ucrtd:ucrtbased.dll
 0005:000003f4       __imp___wsplitpath_s       004753f4     ucrtd:ucrtbased.dll
 0005:000003f8       __imp__wcscpy_s            004753f8     ucrtd:ucrtbased.dll
 0005:000003fc       __imp___invalid_parameter  004753fc     ucrtd:ucrtbased.dll
 0005:00000400       __imp__srand               00475400     ucrtd:ucrtbased.dll
 0005:00000404       __imp___unlock_file        00475404     ucrtd:ucrtbased.dll
 0005:00000408       __imp___lock_file          00475408     ucrtd:ucrtbased.dll
 0005:0000040c       __imp__ungetc              0047540c     ucrtd:ucrtbased.dll
 0005:00000410       __imp__setvbuf             00475410     ucrtd:ucrtbased.dll
 0005:00000414       __imp__fwrite              00475414     ucrtd:ucrtbased.dll
 0005:00000418       __imp___fseeki64           00475418     ucrtd:ucrtbased.dll
 0005:0000041c       __imp__fsetpos             0047541c     ucrtd:ucrtbased.dll
 0005:00000420       __imp__fputc               00475420     ucrtd:ucrtbased.dll
 0005:00000424       __imp__fgetpos             00475424     ucrtd:ucrtbased.dll
 0005:00000428       __imp__fgetc               00475428     ucrtd:ucrtbased.dll
 0005:0000042c       __imp__fflush              0047542c     ucrtd:ucrtbased.dll
 0005:00000430       __imp__fclose              00475430     ucrtd:ucrtbased.dll
 0005:00000434       __imp___get_stream_buffer_pointers 00475434     ucrtd:ucrtbased.dll
 0005:00000438       __imp__system              00475438     ucrtd:ucrtbased.dll
 0005:0000043c       __imp___errno              0047543c     ucrtd:ucrtbased.dll
 0005:00000440       __imp___invalid_parameter_noinfo 00475440     ucrtd:ucrtbased.dll
 0005:00000444       __imp___CrtDbgReportW      00475444     ucrtd:ucrtbased.dll
 0005:00000448       __imp__strlen              00475448     ucrtd:ucrtbased.dll
 0005:0000044c       __imp__atan                0047544c     ucrtd:ucrtbased.dll
 0005:00000450       __imp__sqrt                00475450     ucrtd:ucrtbased.dll
 0005:00000454       \177ucrtbased_NULL_THUNK_DATA 00475454     ucrtd:ucrtbased.dll
 0005:000004b4       __IMPORT_DESCRIPTOR_allegro-5.0.10-monolith-md 004754b4     allegro-5.0.10-monolith-md:allegro-5.0.10-monolith-md.dll
 0005:000004c8       __IMPORT_DESCRIPTOR_KERNEL32 004754c8     kernel32:KERNEL32.dll
 0005:000004dc       __IMPORT_DESCRIPTOR_MSVCP140D 004754dc     msvcprtd:MSVCP140D.dll
 0005:000004f0       __IMPORT_DESCRIPTOR_VCRUNTIME140D 004754f0     vcruntimed:VCRUNTIME140D.dll
 0005:00000504       __IMPORT_DESCRIPTOR_ucrtbased 00475504     ucrtd:ucrtbased.dll
 0005:00000518       __NULL_IMPORT_DESCRIPTOR   00475518     allegro-5.0.10-monolith-md:allegro-5.0.10-monolith-md.dll
 0006:00000000       ___guard_check_icall_fptr  00478000     MSVCRTD:guard_support.obj
